
/home/teja/Pico/JTAGprobe/build/debugprobe.elf:     file format elf32-littlearm

Sections:
Idx Name          Size      VMA       LMA       File off  Algn
  0 .boot2        00000100  10000000  10000000  00001000  2**0
                  CONTENTS, ALLOC, LOAD, READONLY, CODE
  1 .flashtext    000001d8  10000100  10000100  00001100  2**3
                  CONTENTS, ALLOC, LOAD, READONLY, CODE
  2 .rodata       00000000  100002d8  100002d8  0000d580  2**0
                  CONTENTS, ALLOC, LOAD, DATA
  3 .binary_info  0000002c  100002d8  100002d8  000012d8  2**2
                  CONTENTS, ALLOC, LOAD, READONLY, DATA
  4 .ram_vector_table 000000c0  20000000  20000000  0000e000  2**2
                  ALLOC
  5 .text         0000a138  200000c0  10000304  000020c0  2**2
                  CONTENTS, ALLOC, LOAD, READONLY, CODE
  6 .data         00001380  2000a200  1000a43c  0000c200  2**4
                  CONTENTS, ALLOC, LOAD, CODE
  7 .uninitialized_data 00000000  2000b580  2000b580  0000d580  2**0
                  CONTENTS
  8 .scratch_x    00000000  20040000  20040000  0000d580  2**0
                  CONTENTS
  9 .scratch_y    00000000  20041000  20041000  0000d580  2**0
                  CONTENTS
 10 .bss          00016350  2000b580  2000b580  0000d580  2**3
                  ALLOC
 11 .heap         00000800  200218d0  200218d0  0000d580  2**2
                  CONTENTS, READONLY
 12 .stack1_dummy 00000800  20040000  20040000  0000e000  2**2
                  ALLOC
 13 .stack_dummy  00000800  20041000  20041000  0000dd80  2**5
                  CONTENTS, READONLY
 14 .ARM.attributes 00000028  00000000  00000000  0000e580  2**0
                  CONTENTS, READONLY
 15 .comment      00000033  00000000  00000000  0000e5a8  2**0
                  CONTENTS, READONLY
 16 .debug_line   000001d2  00000000  00000000  0000e5db  2**0
                  CONTENTS, READONLY, DEBUGGING, OCTETS
 17 .debug_info   00000114  00000000  00000000  0000e7ad  2**0
                  CONTENTS, READONLY, DEBUGGING, OCTETS
 18 .debug_abbrev 000000a3  00000000  00000000  0000e8c1  2**0
                  CONTENTS, READONLY, DEBUGGING, OCTETS
 19 .debug_aranges 00000040  00000000  00000000  0000e968  2**3
                  CONTENTS, READONLY, DEBUGGING, OCTETS
 20 .debug_str    00000232  00000000  00000000  0000e9a8  2**0
                  CONTENTS, READONLY, DEBUGGING, OCTETS
 21 .debug_loc    00000090  00000000  00000000  0000ebda  2**0
                  CONTENTS, READONLY, DEBUGGING, OCTETS
 22 .debug_frame  00000028  00000000  00000000  0000ec6c  2**2
                  CONTENTS, READONLY, DEBUGGING, OCTETS

/home/teja/Pico/JTAGprobe/build/debugprobe.elf:     file format elf32-littlearm


Disassembly of section .boot2:

10000000 <__boot2_start__>:
10000000:	4b32b500 	.word	0x4b32b500
10000004:	60582021 	.word	0x60582021
10000008:	21026898 	.word	0x21026898
1000000c:	60984388 	.word	0x60984388
10000010:	611860d8 	.word	0x611860d8
10000014:	4b2e6158 	.word	0x4b2e6158
10000018:	60992100 	.word	0x60992100
1000001c:	61592102 	.word	0x61592102
10000020:	22f02101 	.word	0x22f02101
10000024:	492b5099 	.word	0x492b5099
10000028:	21016019 	.word	0x21016019
1000002c:	20356099 	.word	0x20356099
10000030:	f844f000 	.word	0xf844f000
10000034:	42902202 	.word	0x42902202
10000038:	2106d014 	.word	0x2106d014
1000003c:	f0006619 	.word	0xf0006619
10000040:	6e19f834 	.word	0x6e19f834
10000044:	66192101 	.word	0x66192101
10000048:	66182000 	.word	0x66182000
1000004c:	f000661a 	.word	0xf000661a
10000050:	6e19f82c 	.word	0x6e19f82c
10000054:	6e196e19 	.word	0x6e196e19
10000058:	f0002005 	.word	0xf0002005
1000005c:	2101f82f 	.word	0x2101f82f
10000060:	d1f94208 	.word	0xd1f94208
10000064:	60992100 	.word	0x60992100
10000068:	6019491b 	.word	0x6019491b
1000006c:	60592100 	.word	0x60592100
10000070:	481b491a 	.word	0x481b491a
10000074:	21016001 	.word	0x21016001
10000078:	21eb6099 	.word	0x21eb6099
1000007c:	21a06619 	.word	0x21a06619
10000080:	f0006619 	.word	0xf0006619
10000084:	2100f812 	.word	0x2100f812
10000088:	49166099 	.word	0x49166099
1000008c:	60014814 	.word	0x60014814
10000090:	60992101 	.word	0x60992101
10000094:	2800bc01 	.word	0x2800bc01
10000098:	4700d000 	.word	0x4700d000
1000009c:	49134812 	.word	0x49134812
100000a0:	c8036008 	.word	0xc8036008
100000a4:	8808f380 	.word	0x8808f380
100000a8:	b5034708 	.word	0xb5034708
100000ac:	20046a99 	.word	0x20046a99
100000b0:	d0fb4201 	.word	0xd0fb4201
100000b4:	42012001 	.word	0x42012001
100000b8:	bd03d1f8 	.word	0xbd03d1f8
100000bc:	6618b502 	.word	0x6618b502
100000c0:	f7ff6618 	.word	0xf7ff6618
100000c4:	6e18fff2 	.word	0x6e18fff2
100000c8:	bd026e18 	.word	0xbd026e18
100000cc:	40020000 	.word	0x40020000
100000d0:	18000000 	.word	0x18000000
100000d4:	00070000 	.word	0x00070000
100000d8:	005f0300 	.word	0x005f0300
100000dc:	00002221 	.word	0x00002221
100000e0:	180000f4 	.word	0x180000f4
100000e4:	a0002022 	.word	0xa0002022
100000e8:	10000100 	.word	0x10000100
100000ec:	e000ed08 	.word	0xe000ed08
	...
100000fc:	7a4eb274 	.word	0x7a4eb274

Disassembly of section .flashtext:

10000100 <__VECTOR_TABLE>:
10000100:	20042000 	.word	0x20042000
10000104:	100001f7 	.word	0x100001f7
10000108:	100001c3 	.word	0x100001c3
1000010c:	100001c5 	.word	0x100001c5
10000110:	100001c1 	.word	0x100001c1
10000114:	100001c1 	.word	0x100001c1
10000118:	100001c1 	.word	0x100001c1
1000011c:	100001c1 	.word	0x100001c1
10000120:	100001c1 	.word	0x100001c1
10000124:	100001c1 	.word	0x100001c1
10000128:	100001c1 	.word	0x100001c1
1000012c:	100001c7 	.word	0x100001c7
10000130:	100001c1 	.word	0x100001c1
10000134:	100001c1 	.word	0x100001c1
10000138:	100001c9 	.word	0x100001c9
1000013c:	100001cb 	.word	0x100001cb
10000140:	100001cd 	.word	0x100001cd
10000144:	100001cd 	.word	0x100001cd
10000148:	100001cd 	.word	0x100001cd
1000014c:	100001cd 	.word	0x100001cd
10000150:	100001cd 	.word	0x100001cd
10000154:	100001cd 	.word	0x100001cd
10000158:	100001cd 	.word	0x100001cd
1000015c:	100001cd 	.word	0x100001cd
10000160:	100001cd 	.word	0x100001cd
10000164:	100001cd 	.word	0x100001cd
10000168:	100001cd 	.word	0x100001cd
1000016c:	100001cd 	.word	0x100001cd
10000170:	100001cd 	.word	0x100001cd
10000174:	100001cd 	.word	0x100001cd
10000178:	100001cd 	.word	0x100001cd
1000017c:	100001cd 	.word	0x100001cd
10000180:	100001cd 	.word	0x100001cd
10000184:	100001cd 	.word	0x100001cd
10000188:	100001cd 	.word	0x100001cd
1000018c:	100001cd 	.word	0x100001cd
10000190:	100001cd 	.word	0x100001cd
10000194:	100001cd 	.word	0x100001cd
10000198:	100001cd 	.word	0x100001cd
1000019c:	100001cd 	.word	0x100001cd
100001a0:	100001cd 	.word	0x100001cd
100001a4:	100001cd 	.word	0x100001cd
100001a8:	100001cd 	.word	0x100001cd
100001ac:	100001cd 	.word	0x100001cd
100001b0:	100001cd 	.word	0x100001cd
100001b4:	100001cd 	.word	0x100001cd
100001b8:	100001cd 	.word	0x100001cd
100001bc:	100001cd 	.word	0x100001cd

100001c0 <isr_invalid>:
100001c0:	be00      	bkpt	0x0000

100001c2 <isr_nmi>:
100001c2:	be00      	bkpt	0x0000

100001c4 <isr_hardfault>:
100001c4:	be00      	bkpt	0x0000

100001c6 <isr_svcall>:
100001c6:	be00      	bkpt	0x0000

100001c8 <isr_pendsv>:
100001c8:	be00      	bkpt	0x0000

100001ca <isr_systick>:
100001ca:	be00      	bkpt	0x0000

100001cc <__unhandled_user_irq>:
100001cc:	f3ef 8005 	mrs	r0, IPSR
100001d0:	3810      	subs	r0, #16

100001d2 <unhandled_user_irq_num_in_r0>:
100001d2:	be00      	bkpt	0x0000

100001d4 <binary_info_header>:
100001d4:	7188ebf2 	.word	0x7188ebf2
100001d8:	100002d8 	.word	0x100002d8
100001dc:	10000304 	.word	0x10000304
100001e0:	10000234 	.word	0x10000234
100001e4:	e71aa390 	.word	0xe71aa390

100001e8 <_entry_point>:
100001e8:	2000      	movs	r0, #0
100001ea:	4922      	ldr	r1, [pc, #136]	; (10000274 <hold_non_core0_in_bootrom+0xa>)
100001ec:	6008      	str	r0, [r1, #0]
100001ee:	c806      	ldmia	r0!, {r1, r2}
100001f0:	f381 8808 	msr	MSP, r1
100001f4:	4710      	bx	r2

100001f6 <_reset_handler>:
100001f6:	4820      	ldr	r0, [pc, #128]	; (10000278 <hold_non_core0_in_bootrom+0xe>)
100001f8:	6800      	ldr	r0, [r0, #0]
100001fa:	2800      	cmp	r0, #0
100001fc:	d135      	bne.n	1000026a <hold_non_core0_in_bootrom>
100001fe:	a40d      	add	r4, pc, #52	; (adr r4, 10000234 <data_cpy_table>)
10000200:	cc0e      	ldmia	r4!, {r1, r2, r3}
10000202:	2900      	cmp	r1, #0
10000204:	d002      	beq.n	1000020c <_reset_handler+0x16>
10000206:	f000 f812 	bl	1000022e <data_cpy>
1000020a:	e7f9      	b.n	10000200 <_reset_handler+0xa>
1000020c:	491b      	ldr	r1, [pc, #108]	; (1000027c <hold_non_core0_in_bootrom+0x12>)
1000020e:	4a1c      	ldr	r2, [pc, #112]	; (10000280 <hold_non_core0_in_bootrom+0x16>)
10000210:	2000      	movs	r0, #0
10000212:	e000      	b.n	10000216 <bss_fill_test>

10000214 <bss_fill_loop>:
10000214:	c101      	stmia	r1!, {r0}

10000216 <bss_fill_test>:
10000216:	4291      	cmp	r1, r2
10000218:	d1fc      	bne.n	10000214 <bss_fill_loop>

1000021a <platform_entry>:
1000021a:	491a      	ldr	r1, [pc, #104]	; (10000284 <hold_non_core0_in_bootrom+0x1a>)
1000021c:	4788      	blx	r1
1000021e:	491a      	ldr	r1, [pc, #104]	; (10000288 <hold_non_core0_in_bootrom+0x1e>)
10000220:	4788      	blx	r1
10000222:	491a      	ldr	r1, [pc, #104]	; (1000028c <hold_non_core0_in_bootrom+0x22>)
10000224:	4788      	blx	r1
10000226:	be00      	bkpt	0x0000
10000228:	e7fd      	b.n	10000226 <platform_entry+0xc>

1000022a <data_cpy_loop>:
1000022a:	c901      	ldmia	r1!, {r0}
1000022c:	c201      	stmia	r2!, {r0}

1000022e <data_cpy>:
1000022e:	429a      	cmp	r2, r3
10000230:	d3fb      	bcc.n	1000022a <data_cpy_loop>
10000232:	4770      	bx	lr

10000234 <data_cpy_table>:
10000234:	10000304 	.word	0x10000304
10000238:	200000c0 	.word	0x200000c0
1000023c:	2000a1f8 	.word	0x2000a1f8
10000240:	1000a43c 	.word	0x1000a43c
10000244:	2000a200 	.word	0x2000a200
10000248:	2000b580 	.word	0x2000b580
1000024c:	1000b7bc 	.word	0x1000b7bc
10000250:	20040000 	.word	0x20040000
10000254:	20040000 	.word	0x20040000
10000258:	1000b7bc 	.word	0x1000b7bc
1000025c:	20041000 	.word	0x20041000
10000260:	20041000 	.word	0x20041000
10000264:	00000000 	.word	0x00000000
10000268:	4770      	bx	lr

1000026a <hold_non_core0_in_bootrom>:
1000026a:	4809      	ldr	r0, [pc, #36]	; (10000290 <hold_non_core0_in_bootrom+0x26>)
1000026c:	f000 f814 	bl	10000298 <__rom_func_lookup_veneer>
10000270:	4700      	bx	r0
10000272:	0000      	.short	0x0000
10000274:	e000ed08 	.word	0xe000ed08
10000278:	d0000000 	.word	0xd0000000
1000027c:	2000b580 	.word	0x2000b580
10000280:	200218d0 	.word	0x200218d0
10000284:	200050b5 	.word	0x200050b5
10000288:	2000286d 	.word	0x2000286d
1000028c:	200051a9 	.word	0x200051a9
10000290:	00005657 	.word	0x00005657
10000294:	00000000 	.word	0x00000000

10000298 <__rom_func_lookup_veneer>:
10000298:	b401      	push	{r0}
1000029a:	4802      	ldr	r0, [pc, #8]	; (100002a4 <__rom_func_lookup_veneer+0xc>)
1000029c:	4684      	mov	ip, r0
1000029e:	bc01      	pop	{r0}
100002a0:	4760      	bx	ip
100002a2:	bf00      	nop
100002a4:	20005249 	.word	0x20005249

100002a8 <__bi_50>:
100002a8:	50520006 5360b3ab 2000b1b8              ..RP..`S... 

100002b4 <__bi_38>:
100002b4:	50520006 02031c86 2000b1c8              ..RP....... 

100002c0 <__bi_30>:
100002c0:	50520006 9da22254 2000b1d4              ..RPT"..... 

100002cc <__bi_22>:
100002cc:	50520005 68f465de 1000b7bc              ..RP.e.h....

Disassembly of section .text:

200000c0 <_init>:
200000c0:	b5f8      	push	{r3, r4, r5, r6, r7, lr}
200000c2:	46c0      	nop			; (mov r8, r8)

200000c4 <deregister_tm_clones>:
200000c4:	4804      	ldr	r0, [pc, #16]	; (200000d8 <deregister_tm_clones+0x14>)
200000c6:	4b05      	ldr	r3, [pc, #20]	; (200000dc <deregister_tm_clones+0x18>)
200000c8:	b510      	push	{r4, lr}
200000ca:	4283      	cmp	r3, r0
200000cc:	d003      	beq.n	200000d6 <deregister_tm_clones+0x12>
200000ce:	4b04      	ldr	r3, [pc, #16]	; (200000e0 <deregister_tm_clones+0x1c>)
200000d0:	2b00      	cmp	r3, #0
200000d2:	d000      	beq.n	200000d6 <deregister_tm_clones+0x12>
200000d4:	4798      	blx	r3
200000d6:	bd10      	pop	{r4, pc}
200000d8:	2000b580 	.word	0x2000b580
200000dc:	2000b580 	.word	0x2000b580
200000e0:	00000000 	.word	0x00000000

200000e4 <register_tm_clones>:
200000e4:	4806      	ldr	r0, [pc, #24]	; (20000100 <register_tm_clones+0x1c>)
200000e6:	4907      	ldr	r1, [pc, #28]	; (20000104 <register_tm_clones+0x20>)
200000e8:	1a09      	subs	r1, r1, r0
200000ea:	108b      	asrs	r3, r1, #2
200000ec:	0fc9      	lsrs	r1, r1, #31
200000ee:	18c9      	adds	r1, r1, r3
200000f0:	b510      	push	{r4, lr}
200000f2:	1049      	asrs	r1, r1, #1
200000f4:	d003      	beq.n	200000fe <register_tm_clones+0x1a>
200000f6:	4b04      	ldr	r3, [pc, #16]	; (20000108 <register_tm_clones+0x24>)
200000f8:	2b00      	cmp	r3, #0
200000fa:	d000      	beq.n	200000fe <register_tm_clones+0x1a>
200000fc:	4798      	blx	r3
200000fe:	bd10      	pop	{r4, pc}
20000100:	2000b580 	.word	0x2000b580
20000104:	2000b580 	.word	0x2000b580
20000108:	00000000 	.word	0x00000000

2000010c <__do_global_dtors_aux>:
2000010c:	b510      	push	{r4, lr}
2000010e:	4c07      	ldr	r4, [pc, #28]	; (2000012c <__do_global_dtors_aux+0x20>)
20000110:	7823      	ldrb	r3, [r4, #0]
20000112:	2b00      	cmp	r3, #0
20000114:	d109      	bne.n	2000012a <__do_global_dtors_aux+0x1e>
20000116:	f7ff ffd5 	bl	200000c4 <deregister_tm_clones>
2000011a:	4b05      	ldr	r3, [pc, #20]	; (20000130 <__do_global_dtors_aux+0x24>)
2000011c:	2b00      	cmp	r3, #0
2000011e:	d002      	beq.n	20000126 <__do_global_dtors_aux+0x1a>
20000120:	4804      	ldr	r0, [pc, #16]	; (20000134 <__do_global_dtors_aux+0x28>)
20000122:	e000      	b.n	20000126 <__do_global_dtors_aux+0x1a>
20000124:	bf00      	nop
20000126:	2301      	movs	r3, #1
20000128:	7023      	strb	r3, [r4, #0]
2000012a:	bd10      	pop	{r4, pc}
2000012c:	2000b8c0 	.word	0x2000b8c0
20000130:	00000000 	.word	0x00000000
20000134:	2000a1f8 	.word	0x2000a1f8

20000138 <frame_dummy>:
20000138:	4b05      	ldr	r3, [pc, #20]	; (20000150 <frame_dummy+0x18>)
2000013a:	b510      	push	{r4, lr}
2000013c:	2b00      	cmp	r3, #0
2000013e:	d003      	beq.n	20000148 <frame_dummy+0x10>
20000140:	4904      	ldr	r1, [pc, #16]	; (20000154 <frame_dummy+0x1c>)
20000142:	4805      	ldr	r0, [pc, #20]	; (20000158 <frame_dummy+0x20>)
20000144:	e000      	b.n	20000148 <frame_dummy+0x10>
20000146:	bf00      	nop
20000148:	f7ff ffcc 	bl	200000e4 <register_tm_clones>
2000014c:	bd10      	pop	{r4, pc}
2000014e:	46c0      	nop			; (mov r8, r8)
20000150:	00000000 	.word	0x00000000
20000154:	2000b8c4 	.word	0x2000b8c4
20000158:	2000a1f8 	.word	0x2000a1f8

2000015c <DAP_ProcessCommand>:
2000015c:	b5f0      	push	{r4, r5, r6, r7, lr}
2000015e:	464e      	mov	r6, r9
20000160:	4645      	mov	r5, r8
20000162:	46de      	mov	lr, fp
20000164:	4657      	mov	r7, sl
20000166:	b5e0      	push	{r5, r6, r7, lr}
20000168:	7803      	ldrb	r3, [r0, #0]
2000016a:	0005      	movs	r5, r0
2000016c:	001a      	movs	r2, r3
2000016e:	3a80      	subs	r2, #128	; 0x80
20000170:	b2d2      	uxtb	r2, r2
20000172:	4689      	mov	r9, r1
20000174:	b08f      	sub	sp, #60	; 0x3c
20000176:	2a1f      	cmp	r2, #31
20000178:	d909      	bls.n	2000018e <DAP_ProcessCommand+0x32>
2000017a:	000a      	movs	r2, r1
2000017c:	3201      	adds	r2, #1
2000017e:	9201      	str	r2, [sp, #4]
20000180:	700b      	strb	r3, [r1, #0]
20000182:	2b1d      	cmp	r3, #29
20000184:	d80e      	bhi.n	200001a4 <DAP_ProcessCommand+0x48>
20000186:	49d2      	ldr	r1, [pc, #840]	; (200004d0 <DAP_ProcessCommand+0x374>)
20000188:	009a      	lsls	r2, r3, #2
2000018a:	588a      	ldr	r2, [r1, r2]
2000018c:	4697      	mov	pc, r2
2000018e:	f002 fdc1 	bl	20002d14 <DAP_ProcessVendorCommand>
20000192:	0004      	movs	r4, r0
20000194:	0020      	movs	r0, r4
20000196:	b00f      	add	sp, #60	; 0x3c
20000198:	bcf0      	pop	{r4, r5, r6, r7}
2000019a:	46bb      	mov	fp, r7
2000019c:	46b2      	mov	sl, r6
2000019e:	46a9      	mov	r9, r5
200001a0:	46a0      	mov	r8, r4
200001a2:	bdf0      	pop	{r4, r5, r6, r7, pc}
200001a4:	23ff      	movs	r3, #255	; 0xff
200001a6:	464a      	mov	r2, r9
200001a8:	4cca      	ldr	r4, [pc, #808]	; (200004d4 <DAP_ProcessCommand+0x378>)
200001aa:	7013      	strb	r3, [r2, #0]
200001ac:	e7f2      	b.n	20000194 <DAP_ProcessCommand+0x38>
200001ae:	2302      	movs	r3, #2
200001b0:	444b      	add	r3, r9
200001b2:	464a      	mov	r2, r9
200001b4:	469a      	mov	sl, r3
200001b6:	2300      	movs	r3, #0
200001b8:	7053      	strb	r3, [r2, #1]
200001ba:	7842      	ldrb	r2, [r0, #1]
200001bc:	1c83      	adds	r3, r0, #2
200001be:	1e56      	subs	r6, r2, #1
200001c0:	2a00      	cmp	r2, #0
200001c2:	d100      	bne.n	200001c6 <DAP_ProcessCommand+0x6a>
200001c4:	e30e      	b.n	200007e4 <DAP_ProcessCommand+0x688>
200001c6:	2201      	movs	r2, #1
200001c8:	9201      	str	r2, [sp, #4]
200001ca:	323e      	adds	r2, #62	; 0x3e
200001cc:	4691      	mov	r9, r2
200001ce:	22d0      	movs	r2, #208	; 0xd0
200001d0:	0612      	lsls	r2, r2, #24
200001d2:	2401      	movs	r4, #1
200001d4:	4693      	mov	fp, r2
200001d6:	e015      	b.n	20000204 <DAP_ProcessCommand+0xa8>
200001d8:	2200      	movs	r2, #0
200001da:	2101      	movs	r1, #1
200001dc:	2001      	movs	r0, #1
200001de:	f004 fc71 	bl	20004ac4 <gpio_set_pulls>
200001e2:	4652      	mov	r2, sl
200001e4:	4641      	mov	r1, r8
200001e6:	0028      	movs	r0, r5
200001e8:	f002 fdc6 	bl	20002d78 <SWD_Sequence>
200001ec:	2e00      	cmp	r6, #0
200001ee:	d100      	bne.n	200001f2 <DAP_ProcessCommand+0x96>
200001f0:	e2df      	b.n	200007b2 <DAP_ProcessCommand+0x656>
200001f2:	4643      	mov	r3, r8
200001f4:	3401      	adds	r4, #1
200001f6:	19db      	adds	r3, r3, r7
200001f8:	193c      	adds	r4, r7, r4
200001fa:	1e72      	subs	r2, r6, #1
200001fc:	2e00      	cmp	r6, #0
200001fe:	d100      	bne.n	20000202 <DAP_ProcessCommand+0xa6>
20000200:	e2d0      	b.n	200007a4 <DAP_ProcessCommand+0x648>
20000202:	0016      	movs	r6, r2
20000204:	1c5a      	adds	r2, r3, #1
20000206:	781d      	ldrb	r5, [r3, #0]
20000208:	4690      	mov	r8, r2
2000020a:	464b      	mov	r3, r9
2000020c:	464a      	mov	r2, r9
2000020e:	2708      	movs	r7, #8
20000210:	402b      	ands	r3, r5
20000212:	422a      	tst	r2, r5
20000214:	d001      	beq.n	2000021a <DAP_ProcessCommand+0xbe>
20000216:	3307      	adds	r3, #7
20000218:	08df      	lsrs	r7, r3, #3
2000021a:	b26b      	sxtb	r3, r5
2000021c:	2b00      	cmp	r3, #0
2000021e:	dadb      	bge.n	200001d8 <DAP_ProcessCommand+0x7c>
20000220:	2302      	movs	r3, #2
20000222:	465a      	mov	r2, fp
20000224:	2100      	movs	r1, #0
20000226:	2001      	movs	r0, #1
20000228:	6293      	str	r3, [r2, #40]	; 0x28
2000022a:	2200      	movs	r2, #0
2000022c:	f004 fc4a 	bl	20004ac4 <gpio_set_pulls>
20000230:	4652      	mov	r2, sl
20000232:	4641      	mov	r1, r8
20000234:	0028      	movs	r0, r5
20000236:	f002 fd9f 	bl	20002d78 <SWD_Sequence>
2000023a:	2e00      	cmp	r6, #0
2000023c:	d100      	bne.n	20000240 <DAP_ProcessCommand+0xe4>
2000023e:	e2d3      	b.n	200007e8 <DAP_ProcessCommand+0x68c>
20000240:	9b01      	ldr	r3, [sp, #4]
20000242:	3401      	adds	r4, #1
20000244:	469c      	mov	ip, r3
20000246:	44bc      	add	ip, r7
20000248:	4663      	mov	r3, ip
2000024a:	44ba      	add	sl, r7
2000024c:	9301      	str	r3, [sp, #4]
2000024e:	4643      	mov	r3, r8
20000250:	e7d3      	b.n	200001fa <DAP_ProcessCommand+0x9e>
20000252:	4ba1      	ldr	r3, [pc, #644]	; (200004d8 <DAP_ProcessCommand+0x37c>)
20000254:	781a      	ldrb	r2, [r3, #0]
20000256:	2a02      	cmp	r2, #2
20000258:	d000      	beq.n	2000025c <DAP_ProcessCommand+0x100>
2000025a:	e2c0      	b.n	200007de <DAP_ProcessCommand+0x682>
2000025c:	7842      	ldrb	r2, [r0, #1]
2000025e:	76da      	strb	r2, [r3, #27]
20000260:	7e9b      	ldrb	r3, [r3, #26]
20000262:	4293      	cmp	r3, r2
20000264:	d800      	bhi.n	20000268 <DAP_ProcessCommand+0x10c>
20000266:	e2ba      	b.n	200007de <DAP_ProcessCommand+0x682>
20000268:	200e      	movs	r0, #14
2000026a:	f001 ff2f 	bl	200020cc <JTAG_IR>
2000026e:	f001 fdf1 	bl	20001e54 <JTAG_ReadIDCode>
20000272:	464a      	mov	r2, r9
20000274:	2300      	movs	r3, #0
20000276:	7053      	strb	r3, [r2, #1]
20000278:	0a03      	lsrs	r3, r0, #8
2000027a:	7090      	strb	r0, [r2, #2]
2000027c:	70d3      	strb	r3, [r2, #3]
2000027e:	0c03      	lsrs	r3, r0, #16
20000280:	0e00      	lsrs	r0, r0, #24
20000282:	4c96      	ldr	r4, [pc, #600]	; (200004dc <DAP_ProcessCommand+0x380>)
20000284:	7113      	strb	r3, [r2, #4]
20000286:	7150      	strb	r0, [r2, #5]
20000288:	e784      	b.n	20000194 <DAP_ProcessCommand+0x38>
2000028a:	4a93      	ldr	r2, [pc, #588]	; (200004d8 <DAP_ProcessCommand+0x37c>)
2000028c:	7843      	ldrb	r3, [r0, #1]
2000028e:	4692      	mov	sl, r2
20000290:	7693      	strb	r3, [r2, #26]
20000292:	2b00      	cmp	r3, #0
20000294:	d065      	beq.n	20000362 <DAP_ProcessCommand+0x206>
20000296:	7881      	ldrb	r1, [r0, #2]
20000298:	4650      	mov	r0, sl
2000029a:	7711      	strb	r1, [r2, #28]
2000029c:	2200      	movs	r2, #0
2000029e:	8482      	strh	r2, [r0, #36]	; 0x24
200002a0:	2b01      	cmp	r3, #1
200002a2:	d101      	bne.n	200002a8 <DAP_ProcessCommand+0x14c>
200002a4:	f001 f953 	bl	2000154e <DAP_ProcessCommand+0x13f2>
200002a8:	78ea      	ldrb	r2, [r5, #3]
200002aa:	84c1      	strh	r1, [r0, #38]	; 0x26
200002ac:	7742      	strb	r2, [r0, #29]
200002ae:	1852      	adds	r2, r2, r1
200002b0:	2b02      	cmp	r3, #2
200002b2:	d027      	beq.n	20000304 <DAP_ProcessCommand+0x1a8>
200002b4:	4654      	mov	r4, sl
200002b6:	7928      	ldrb	r0, [r5, #4]
200002b8:	8522      	strh	r2, [r4, #40]	; 0x28
200002ba:	77a0      	strb	r0, [r4, #30]
200002bc:	1812      	adds	r2, r2, r0
200002be:	2b03      	cmp	r3, #3
200002c0:	d020      	beq.n	20000304 <DAP_ProcessCommand+0x1a8>
200002c2:	7968      	ldrb	r0, [r5, #5]
200002c4:	8562      	strh	r2, [r4, #42]	; 0x2a
200002c6:	77e0      	strb	r0, [r4, #31]
200002c8:	1812      	adds	r2, r2, r0
200002ca:	2b04      	cmp	r3, #4
200002cc:	d01a      	beq.n	20000304 <DAP_ProcessCommand+0x1a8>
200002ce:	4656      	mov	r6, sl
200002d0:	2420      	movs	r4, #32
200002d2:	79a8      	ldrb	r0, [r5, #6]
200002d4:	85b2      	strh	r2, [r6, #44]	; 0x2c
200002d6:	5530      	strb	r0, [r6, r4]
200002d8:	1812      	adds	r2, r2, r0
200002da:	2b05      	cmp	r3, #5
200002dc:	d012      	beq.n	20000304 <DAP_ProcessCommand+0x1a8>
200002de:	2421      	movs	r4, #33	; 0x21
200002e0:	79e8      	ldrb	r0, [r5, #7]
200002e2:	85f2      	strh	r2, [r6, #46]	; 0x2e
200002e4:	5530      	strb	r0, [r6, r4]
200002e6:	1812      	adds	r2, r2, r0
200002e8:	2b06      	cmp	r3, #6
200002ea:	d00b      	beq.n	20000304 <DAP_ProcessCommand+0x1a8>
200002ec:	2422      	movs	r4, #34	; 0x22
200002ee:	7a28      	ldrb	r0, [r5, #8]
200002f0:	8632      	strh	r2, [r6, #48]	; 0x30
200002f2:	5530      	strb	r0, [r6, r4]
200002f4:	1812      	adds	r2, r2, r0
200002f6:	2b07      	cmp	r3, #7
200002f8:	d004      	beq.n	20000304 <DAP_ProcessCommand+0x1a8>
200002fa:	2423      	movs	r4, #35	; 0x23
200002fc:	7a68      	ldrb	r0, [r5, #9]
200002fe:	8672      	strh	r2, [r6, #50]	; 0x32
20000300:	5530      	strb	r0, [r6, r4]
20000302:	1812      	adds	r2, r2, r0
20000304:	1a52      	subs	r2, r2, r1
20000306:	4651      	mov	r1, sl
20000308:	868a      	strh	r2, [r1, #52]	; 0x34
2000030a:	7f49      	ldrb	r1, [r1, #29]
2000030c:	1a52      	subs	r2, r2, r1
2000030e:	4651      	mov	r1, sl
20000310:	86ca      	strh	r2, [r1, #54]	; 0x36
20000312:	2b02      	cmp	r3, #2
20000314:	d025      	beq.n	20000362 <DAP_ProcessCommand+0x206>
20000316:	4651      	mov	r1, sl
20000318:	7f89      	ldrb	r1, [r1, #30]
2000031a:	1a52      	subs	r2, r2, r1
2000031c:	4651      	mov	r1, sl
2000031e:	870a      	strh	r2, [r1, #56]	; 0x38
20000320:	2b03      	cmp	r3, #3
20000322:	d01e      	beq.n	20000362 <DAP_ProcessCommand+0x206>
20000324:	7fc9      	ldrb	r1, [r1, #31]
20000326:	1a52      	subs	r2, r2, r1
20000328:	4651      	mov	r1, sl
2000032a:	874a      	strh	r2, [r1, #58]	; 0x3a
2000032c:	2b04      	cmp	r3, #4
2000032e:	d018      	beq.n	20000362 <DAP_ProcessCommand+0x206>
20000330:	4650      	mov	r0, sl
20000332:	2120      	movs	r1, #32
20000334:	5c41      	ldrb	r1, [r0, r1]
20000336:	1a52      	subs	r2, r2, r1
20000338:	8782      	strh	r2, [r0, #60]	; 0x3c
2000033a:	2b05      	cmp	r3, #5
2000033c:	d011      	beq.n	20000362 <DAP_ProcessCommand+0x206>
2000033e:	2121      	movs	r1, #33	; 0x21
20000340:	5c41      	ldrb	r1, [r0, r1]
20000342:	1a52      	subs	r2, r2, r1
20000344:	87c2      	strh	r2, [r0, #62]	; 0x3e
20000346:	2b06      	cmp	r3, #6
20000348:	d00b      	beq.n	20000362 <DAP_ProcessCommand+0x206>
2000034a:	2122      	movs	r1, #34	; 0x22
2000034c:	5c41      	ldrb	r1, [r0, r1]
2000034e:	1a52      	subs	r2, r2, r1
20000350:	2140      	movs	r1, #64	; 0x40
20000352:	5242      	strh	r2, [r0, r1]
20000354:	2b07      	cmp	r3, #7
20000356:	d004      	beq.n	20000362 <DAP_ProcessCommand+0x206>
20000358:	391d      	subs	r1, #29
2000035a:	5c41      	ldrb	r1, [r0, r1]
2000035c:	1a52      	subs	r2, r2, r1
2000035e:	2142      	movs	r1, #66	; 0x42
20000360:	5242      	strh	r2, [r0, r1]
20000362:	3301      	adds	r3, #1
20000364:	041c      	lsls	r4, r3, #16
20000366:	2301      	movs	r3, #1
20000368:	431c      	orrs	r4, r3
2000036a:	4b5a      	ldr	r3, [pc, #360]	; (200004d4 <DAP_ProcessCommand+0x378>)
2000036c:	2200      	movs	r2, #0
2000036e:	4649      	mov	r1, r9
20000370:	469c      	mov	ip, r3
20000372:	704a      	strb	r2, [r1, #1]
20000374:	4464      	add	r4, ip
20000376:	e70d      	b.n	20000194 <DAP_ProcessCommand+0x38>
20000378:	4a57      	ldr	r2, [pc, #348]	; (200004d8 <DAP_ProcessCommand+0x37c>)
2000037a:	7813      	ldrb	r3, [r2, #0]
2000037c:	2b01      	cmp	r3, #1
2000037e:	d101      	bne.n	20000384 <DAP_ProcessCommand+0x228>
20000380:	f000 fcbf 	bl	20000d02 <DAP_ProcessCommand+0xba6>
20000384:	2b02      	cmp	r3, #2
20000386:	d000      	beq.n	2000038a <DAP_ProcessCommand+0x22e>
20000388:	e238      	b.n	200007fc <DAP_ProcessCommand+0x6a0>
2000038a:	7843      	ldrb	r3, [r0, #1]
2000038c:	76d3      	strb	r3, [r2, #27]
2000038e:	7e92      	ldrb	r2, [r2, #26]
20000390:	429a      	cmp	r2, r3
20000392:	d800      	bhi.n	20000396 <DAP_ProcessCommand+0x23a>
20000394:	e232      	b.n	200007fc <DAP_ProcessCommand+0x6a0>
20000396:	2008      	movs	r0, #8
20000398:	f001 fe98 	bl	200020cc <JTAG_IR>
2000039c:	78eb      	ldrb	r3, [r5, #3]
2000039e:	78a8      	ldrb	r0, [r5, #2]
200003a0:	021b      	lsls	r3, r3, #8
200003a2:	4303      	orrs	r3, r0
200003a4:	7928      	ldrb	r0, [r5, #4]
200003a6:	4c4e      	ldr	r4, [pc, #312]	; (200004e0 <DAP_ProcessCommand+0x384>)
200003a8:	0400      	lsls	r0, r0, #16
200003aa:	4303      	orrs	r3, r0
200003ac:	7968      	ldrb	r0, [r5, #5]
200003ae:	0600      	lsls	r0, r0, #24
200003b0:	4318      	orrs	r0, r3
200003b2:	f001 fdbd 	bl	20001f30 <JTAG_WriteAbort>
200003b6:	2300      	movs	r3, #0
200003b8:	464a      	mov	r2, r9
200003ba:	7053      	strb	r3, [r2, #1]
200003bc:	e6ea      	b.n	20000194 <DAP_ProcessCommand+0x38>
200003be:	4b46      	ldr	r3, [pc, #280]	; (200004d8 <DAP_ProcessCommand+0x37c>)
200003c0:	469a      	mov	sl, r3
200003c2:	781b      	ldrb	r3, [r3, #0]
200003c4:	469b      	mov	fp, r3
200003c6:	2b01      	cmp	r3, #1
200003c8:	d101      	bne.n	200003ce <DAP_ProcessCommand+0x272>
200003ca:	f000 fed6 	bl	2000117a <DAP_ProcessCommand+0x101e>
200003ce:	2b02      	cmp	r3, #2
200003d0:	d101      	bne.n	200003d6 <DAP_ProcessCommand+0x27a>
200003d2:	f000 fe50 	bl	20001076 <DAP_ProcessCommand+0xf1a>
200003d6:	2300      	movs	r3, #0
200003d8:	464a      	mov	r2, r9
200003da:	2003      	movs	r0, #3
200003dc:	7053      	strb	r3, [r2, #1]
200003de:	7093      	strb	r3, [r2, #2]
200003e0:	70d3      	strb	r3, [r2, #3]
200003e2:	792b      	ldrb	r3, [r5, #4]
200003e4:	079b      	lsls	r3, r3, #30
200003e6:	d400      	bmi.n	200003ea <DAP_ProcessCommand+0x28e>
200003e8:	e20d      	b.n	20000806 <DAP_ProcessCommand+0x6aa>
200003ea:	2480      	movs	r4, #128	; 0x80
200003ec:	4b39      	ldr	r3, [pc, #228]	; (200004d4 <DAP_ProcessCommand+0x378>)
200003ee:	02e4      	lsls	r4, r4, #11
200003f0:	469c      	mov	ip, r3
200003f2:	4304      	orrs	r4, r0
200003f4:	4464      	add	r4, ip
200003f6:	e6cd      	b.n	20000194 <DAP_ProcessCommand+0x38>
200003f8:	7883      	ldrb	r3, [r0, #2]
200003fa:	7841      	ldrb	r1, [r0, #1]
200003fc:	78c2      	ldrb	r2, [r0, #3]
200003fe:	021b      	lsls	r3, r3, #8
20000400:	430b      	orrs	r3, r1
20000402:	7901      	ldrb	r1, [r0, #4]
20000404:	0412      	lsls	r2, r2, #16
20000406:	4313      	orrs	r3, r2
20000408:	0609      	lsls	r1, r1, #24
2000040a:	4319      	orrs	r1, r3
2000040c:	d100      	bne.n	20000410 <DAP_ProcessCommand+0x2b4>
2000040e:	e220      	b.n	20000852 <DAP_ProcessCommand+0x6f6>
20000410:	4b34      	ldr	r3, [pc, #208]	; (200004e4 <DAP_ProcessCommand+0x388>)
20000412:	4299      	cmp	r1, r3
20000414:	d800      	bhi.n	20000418 <DAP_ProcessCommand+0x2bc>
20000416:	e239      	b.n	2000088c <DAP_ProcessCommand+0x730>
20000418:	2201      	movs	r2, #1
2000041a:	4b2f      	ldr	r3, [pc, #188]	; (200004d8 <DAP_ProcessCommand+0x37c>)
2000041c:	705a      	strb	r2, [r3, #1]
2000041e:	605a      	str	r2, [r3, #4]
20000420:	2300      	movs	r3, #0
20000422:	464a      	mov	r2, r9
20000424:	4c30      	ldr	r4, [pc, #192]	; (200004e8 <DAP_ProcessCommand+0x38c>)
20000426:	7053      	strb	r3, [r2, #1]
20000428:	e6b4      	b.n	20000194 <DAP_ProcessCommand+0x38>
2000042a:	2300      	movs	r3, #0
2000042c:	464a      	mov	r2, r9
2000042e:	4c2f      	ldr	r4, [pc, #188]	; (200004ec <DAP_ProcessCommand+0x390>)
20000430:	7093      	strb	r3, [r2, #2]
20000432:	7053      	strb	r3, [r2, #1]
20000434:	e6ae      	b.n	20000194 <DAP_ProcessCommand+0x38>
20000436:	232a      	movs	r3, #42	; 0x2a
20000438:	7881      	ldrb	r1, [r0, #2]
2000043a:	7842      	ldrb	r2, [r0, #1]
2000043c:	0209      	lsls	r1, r1, #8
2000043e:	430a      	orrs	r2, r1
20000440:	4353      	muls	r3, r2
20000442:	3b01      	subs	r3, #1
20000444:	d1fd      	bne.n	20000442 <DAP_ProcessCommand+0x2e6>
20000446:	2300      	movs	r3, #0
20000448:	464a      	mov	r2, r9
2000044a:	4c29      	ldr	r4, [pc, #164]	; (200004f0 <DAP_ProcessCommand+0x394>)
2000044c:	7053      	strb	r3, [r2, #1]
2000044e:	e6a1      	b.n	20000194 <DAP_ProcessCommand+0x38>
20000450:	2500      	movs	r5, #0
20000452:	4b21      	ldr	r3, [pc, #132]	; (200004d8 <DAP_ProcessCommand+0x37c>)
20000454:	24d0      	movs	r4, #208	; 0xd0
20000456:	701d      	strb	r5, [r3, #0]
20000458:	2301      	movs	r3, #1
2000045a:	0624      	lsls	r4, r4, #24
2000045c:	62a3      	str	r3, [r4, #40]	; 0x28
2000045e:	2200      	movs	r2, #0
20000460:	2100      	movs	r1, #0
20000462:	2000      	movs	r0, #0
20000464:	f004 fb2e 	bl	20004ac4 <gpio_set_pulls>
20000468:	2302      	movs	r3, #2
2000046a:	2200      	movs	r2, #0
2000046c:	62a3      	str	r3, [r4, #40]	; 0x28
2000046e:	2100      	movs	r1, #0
20000470:	2001      	movs	r0, #1
20000472:	f004 fb27 	bl	20004ac4 <gpio_set_pulls>
20000476:	2304      	movs	r3, #4
20000478:	2200      	movs	r2, #0
2000047a:	62a3      	str	r3, [r4, #40]	; 0x28
2000047c:	2100      	movs	r1, #0
2000047e:	2002      	movs	r0, #2
20000480:	f004 fb20 	bl	20004ac4 <gpio_set_pulls>
20000484:	2308      	movs	r3, #8
20000486:	2200      	movs	r2, #0
20000488:	62a3      	str	r3, [r4, #40]	; 0x28
2000048a:	2100      	movs	r1, #0
2000048c:	2003      	movs	r0, #3
2000048e:	f004 fb19 	bl	20004ac4 <gpio_set_pulls>
20000492:	2320      	movs	r3, #32
20000494:	2200      	movs	r2, #0
20000496:	62a3      	str	r3, [r4, #40]	; 0x28
20000498:	2100      	movs	r1, #0
2000049a:	2005      	movs	r0, #5
2000049c:	f004 fb12 	bl	20004ac4 <gpio_set_pulls>
200004a0:	2380      	movs	r3, #128	; 0x80
200004a2:	2200      	movs	r2, #0
200004a4:	62a3      	str	r3, [r4, #40]	; 0x28
200004a6:	2100      	movs	r1, #0
200004a8:	2007      	movs	r0, #7
200004aa:	f004 fb0b 	bl	20004ac4 <gpio_set_pulls>
200004ae:	464b      	mov	r3, r9
200004b0:	4c10      	ldr	r4, [pc, #64]	; (200004f4 <DAP_ProcessCommand+0x398>)
200004b2:	705d      	strb	r5, [r3, #1]
200004b4:	e66e      	b.n	20000194 <DAP_ProcessCommand+0x38>
200004b6:	7844      	ldrb	r4, [r0, #1]
200004b8:	2c01      	cmp	r4, #1
200004ba:	d100      	bne.n	200004be <DAP_ProcessCommand+0x362>
200004bc:	e1ae      	b.n	2000081c <DAP_ProcessCommand+0x6c0>
200004be:	2c02      	cmp	r4, #2
200004c0:	d101      	bne.n	200004c6 <DAP_ProcessCommand+0x36a>
200004c2:	f000 fed9 	bl	20001278 <DAP_ProcessCommand+0x111c>
200004c6:	2400      	movs	r4, #0
200004c8:	464b      	mov	r3, r9
200004ca:	705c      	strb	r4, [r3, #1]
200004cc:	4c0a      	ldr	r4, [pc, #40]	; (200004f8 <DAP_ProcessCommand+0x39c>)
200004ce:	e661      	b.n	20000194 <DAP_ProcessCommand+0x38>
200004d0:	2000aed0 	.word	0x2000aed0
200004d4:	00010001 	.word	0x00010001
200004d8:	2000b95c 	.word	0x2000b95c
200004dc:	00020006 	.word	0x00020006
200004e0:	00060002 	.word	0x00060002
200004e4:	03b9ac9f 	.word	0x03b9ac9f
200004e8:	00050002 	.word	0x00050002
200004ec:	00010003 	.word	0x00010003
200004f0:	00030002 	.word	0x00030002
200004f4:	00010002 	.word	0x00010002
200004f8:	00020002 	.word	0x00020002
200004fc:	7843      	ldrb	r3, [r0, #1]
200004fe:	2b01      	cmp	r3, #1
20000500:	d9a1      	bls.n	20000446 <DAP_ProcessCommand+0x2ea>
20000502:	23ff      	movs	r3, #255	; 0xff
20000504:	464a      	mov	r2, r9
20000506:	4cd5      	ldr	r4, [pc, #852]	; (2000085c <DAP_ProcessCommand+0x700>)
20000508:	7053      	strb	r3, [r2, #1]
2000050a:	e643      	b.n	20000194 <DAP_ProcessCommand+0x38>
2000050c:	7842      	ldrb	r2, [r0, #1]
2000050e:	2af1      	cmp	r2, #241	; 0xf1
20000510:	d101      	bne.n	20000516 <DAP_ProcessCommand+0x3ba>
20000512:	f000 ff34 	bl	2000137e <DAP_ProcessCommand+0x1222>
20000516:	d900      	bls.n	2000051a <DAP_ProcessCommand+0x3be>
20000518:	e151      	b.n	200007be <DAP_ProcessCommand+0x662>
2000051a:	2a04      	cmp	r2, #4
2000051c:	d101      	bne.n	20000522 <DAP_ProcessCommand+0x3c6>
2000051e:	f000 ff3b 	bl	20001398 <DAP_ProcessCommand+0x123c>
20000522:	2af0      	cmp	r2, #240	; 0xf0
20000524:	d001      	beq.n	2000052a <DAP_ProcessCommand+0x3ce>
20000526:	f001 f9f2 	bl	2000190e <DAP_ProcessCommand+0x17b2>
2000052a:	2333      	movs	r3, #51	; 0x33
2000052c:	464a      	mov	r2, r9
2000052e:	4ccc      	ldr	r4, [pc, #816]	; (20000860 <DAP_ProcessCommand+0x704>)
20000530:	7093      	strb	r3, [r2, #2]
20000532:	3b32      	subs	r3, #50	; 0x32
20000534:	464a      	mov	r2, r9
20000536:	7053      	strb	r3, [r2, #1]
20000538:	e62c      	b.n	20000194 <DAP_ProcessCommand+0x38>
2000053a:	2203      	movs	r2, #3
2000053c:	7843      	ldrb	r3, [r0, #1]
2000053e:	49c9      	ldr	r1, [pc, #804]	; (20000864 <DAP_ProcessCommand+0x708>)
20000540:	401a      	ands	r2, r3
20000542:	075b      	lsls	r3, r3, #29
20000544:	3201      	adds	r2, #1
20000546:	0fdb      	lsrs	r3, r3, #31
20000548:	760a      	strb	r2, [r1, #24]
2000054a:	764b      	strb	r3, [r1, #25]
2000054c:	464a      	mov	r2, r9
2000054e:	2300      	movs	r3, #0
20000550:	4cc5      	ldr	r4, [pc, #788]	; (20000868 <DAP_ProcessCommand+0x70c>)
20000552:	7053      	strb	r3, [r2, #1]
20000554:	e61e      	b.n	20000194 <DAP_ProcessCommand+0x38>
20000556:	1c81      	adds	r1, r0, #2
20000558:	7840      	ldrb	r0, [r0, #1]
2000055a:	2800      	cmp	r0, #0
2000055c:	d100      	bne.n	20000560 <DAP_ProcessCommand+0x404>
2000055e:	e149      	b.n	200007f4 <DAP_ProcessCommand+0x698>
20000560:	2301      	movs	r3, #1
20000562:	1dc4      	adds	r4, r0, #7
20000564:	08e4      	lsrs	r4, r4, #3
20000566:	3401      	adds	r4, #1
20000568:	0424      	lsls	r4, r4, #16
2000056a:	431c      	orrs	r4, r3
2000056c:	4bbf      	ldr	r3, [pc, #764]	; (2000086c <DAP_ProcessCommand+0x710>)
2000056e:	469c      	mov	ip, r3
20000570:	4464      	add	r4, ip
20000572:	f002 fbd5 	bl	20002d20 <SWJ_Sequence>
20000576:	2300      	movs	r3, #0
20000578:	e7dc      	b.n	20000534 <DAP_ProcessCommand+0x3d8>
2000057a:	2302      	movs	r3, #2
2000057c:	444b      	add	r3, r9
2000057e:	469b      	mov	fp, r3
20000580:	464a      	mov	r2, r9
20000582:	2300      	movs	r3, #0
20000584:	7053      	strb	r3, [r2, #1]
20000586:	7847      	ldrb	r7, [r0, #1]
20000588:	1c83      	adds	r3, r0, #2
2000058a:	2f00      	cmp	r7, #0
2000058c:	d100      	bne.n	20000590 <DAP_ProcessCommand+0x434>
2000058e:	e129      	b.n	200007e4 <DAP_ProcessCommand+0x688>
20000590:	2201      	movs	r2, #1
20000592:	2401      	movs	r4, #1
20000594:	9201      	str	r2, [sp, #4]
20000596:	323e      	adds	r2, #62	; 0x3e
20000598:	4691      	mov	r9, r2
2000059a:	46a0      	mov	r8, r4
2000059c:	e017      	b.n	200005ce <DAP_ProcessCommand+0x472>
2000059e:	3607      	adds	r6, #7
200005a0:	08f6      	lsrs	r6, r6, #3
200005a2:	1c73      	adds	r3, r6, #1
200005a4:	469a      	mov	sl, r3
200005a6:	0028      	movs	r0, r5
200005a8:	465a      	mov	r2, fp
200005aa:	0021      	movs	r1, r4
200005ac:	b26d      	sxtb	r5, r5
200005ae:	f001 fb31 	bl	20001c14 <JTAG_Sequence>
200005b2:	44d0      	add	r8, sl
200005b4:	19a3      	adds	r3, r4, r6
200005b6:	2d00      	cmp	r5, #0
200005b8:	da05      	bge.n	200005c6 <DAP_ProcessCommand+0x46a>
200005ba:	9a01      	ldr	r2, [sp, #4]
200005bc:	44b3      	add	fp, r6
200005be:	4694      	mov	ip, r2
200005c0:	44b4      	add	ip, r6
200005c2:	4662      	mov	r2, ip
200005c4:	9201      	str	r2, [sp, #4]
200005c6:	3f01      	subs	r7, #1
200005c8:	2f00      	cmp	r7, #0
200005ca:	d100      	bne.n	200005ce <DAP_ProcessCommand+0x472>
200005cc:	e0e9      	b.n	200007a2 <DAP_ProcessCommand+0x646>
200005ce:	781d      	ldrb	r5, [r3, #0]
200005d0:	464e      	mov	r6, r9
200005d2:	1c5c      	adds	r4, r3, #1
200005d4:	464b      	mov	r3, r9
200005d6:	402e      	ands	r6, r5
200005d8:	422b      	tst	r3, r5
200005da:	d1e0      	bne.n	2000059e <DAP_ProcessCommand+0x442>
200005dc:	2309      	movs	r3, #9
200005de:	2608      	movs	r6, #8
200005e0:	469a      	mov	sl, r3
200005e2:	e7e0      	b.n	200005a6 <DAP_ProcessCommand+0x44a>
200005e4:	1c43      	adds	r3, r0, #1
200005e6:	930b      	str	r3, [sp, #44]	; 0x2c
200005e8:	4b9e      	ldr	r3, [pc, #632]	; (20000864 <DAP_ProcessCommand+0x708>)
200005ea:	469a      	mov	sl, r3
200005ec:	781b      	ldrb	r3, [r3, #0]
200005ee:	930a      	str	r3, [sp, #40]	; 0x28
200005f0:	2b01      	cmp	r3, #1
200005f2:	d100      	bne.n	200005f6 <DAP_ProcessCommand+0x49a>
200005f4:	e39a      	b.n	20000d2c <DAP_ProcessCommand+0xbd0>
200005f6:	2b02      	cmp	r3, #2
200005f8:	d100      	bne.n	200005fc <DAP_ProcessCommand+0x4a0>
200005fa:	e166      	b.n	200008ca <DAP_ProcessCommand+0x76e>
200005fc:	7882      	ldrb	r2, [r0, #2]
200005fe:	1cc3      	adds	r3, r0, #3
20000600:	2a00      	cmp	r2, #0
20000602:	d100      	bne.n	20000606 <DAP_ProcessCommand+0x4aa>
20000604:	e154      	b.n	200008b0 <DAP_ProcessCommand+0x754>
20000606:	2002      	movs	r0, #2
20000608:	2410      	movs	r4, #16
2000060a:	e006      	b.n	2000061a <DAP_ProcessCommand+0x4be>
2000060c:	420c      	tst	r4, r1
2000060e:	d107      	bne.n	20000620 <DAP_ProcessCommand+0x4c4>
20000610:	3301      	adds	r3, #1
20000612:	3a01      	subs	r2, #1
20000614:	2a00      	cmp	r2, #0
20000616:	d100      	bne.n	2000061a <DAP_ProcessCommand+0x4be>
20000618:	e14a      	b.n	200008b0 <DAP_ProcessCommand+0x754>
2000061a:	7819      	ldrb	r1, [r3, #0]
2000061c:	4208      	tst	r0, r1
2000061e:	d1f5      	bne.n	2000060c <DAP_ProcessCommand+0x4b0>
20000620:	3305      	adds	r3, #5
20000622:	e7f6      	b.n	20000612 <DAP_ProcessCommand+0x4b6>
20000624:	7843      	ldrb	r3, [r0, #1]
20000626:	4a8f      	ldr	r2, [pc, #572]	; (20000864 <DAP_ProcessCommand+0x708>)
20000628:	4c91      	ldr	r4, [pc, #580]	; (20000870 <DAP_ProcessCommand+0x714>)
2000062a:	7313      	strb	r3, [r2, #12]
2000062c:	78c3      	ldrb	r3, [r0, #3]
2000062e:	7881      	ldrb	r1, [r0, #2]
20000630:	021b      	lsls	r3, r3, #8
20000632:	430b      	orrs	r3, r1
20000634:	8213      	strh	r3, [r2, #16]
20000636:	7943      	ldrb	r3, [r0, #5]
20000638:	7901      	ldrb	r1, [r0, #4]
2000063a:	021b      	lsls	r3, r3, #8
2000063c:	430b      	orrs	r3, r1
2000063e:	8253      	strh	r3, [r2, #18]
20000640:	2300      	movs	r3, #0
20000642:	464a      	mov	r2, r9
20000644:	7053      	strb	r3, [r2, #1]
20000646:	e5a5      	b.n	20000194 <DAP_ProcessCommand+0x38>
20000648:	7881      	ldrb	r1, [r0, #2]
2000064a:	78c4      	ldrb	r4, [r0, #3]
2000064c:	7842      	ldrb	r2, [r0, #1]
2000064e:	7900      	ldrb	r0, [r0, #4]
20000650:	796b      	ldrb	r3, [r5, #5]
20000652:	0200      	lsls	r0, r0, #8
20000654:	4304      	orrs	r4, r0
20000656:	79a8      	ldrb	r0, [r5, #6]
20000658:	041b      	lsls	r3, r3, #16
2000065a:	4323      	orrs	r3, r4
2000065c:	0600      	lsls	r0, r0, #24
2000065e:	4303      	orrs	r3, r0
20000660:	2001      	movs	r0, #1
20000662:	0004      	movs	r4, r0
20000664:	400c      	ands	r4, r1
20000666:	46a3      	mov	fp, r4
20000668:	4208      	tst	r0, r1
2000066a:	d006      	beq.n	2000067a <DAP_ProcessCommand+0x51e>
2000066c:	24d0      	movs	r4, #208	; 0xd0
2000066e:	0624      	lsls	r4, r4, #24
20000670:	4210      	tst	r0, r2
20000672:	d101      	bne.n	20000678 <DAP_ProcessCommand+0x51c>
20000674:	f000 fe3b 	bl	200012ee <DAP_ProcessCommand+0x1192>
20000678:	6160      	str	r0, [r4, #20]
2000067a:	2002      	movs	r0, #2
2000067c:	0006      	movs	r6, r0
2000067e:	400e      	ands	r6, r1
20000680:	9601      	str	r6, [sp, #4]
20000682:	4208      	tst	r0, r1
20000684:	d006      	beq.n	20000694 <DAP_ProcessCommand+0x538>
20000686:	24d0      	movs	r4, #208	; 0xd0
20000688:	0624      	lsls	r4, r4, #24
2000068a:	4210      	tst	r0, r2
2000068c:	d101      	bne.n	20000692 <DAP_ProcessCommand+0x536>
2000068e:	f000 fe31 	bl	200012f4 <DAP_ProcessCommand+0x1198>
20000692:	6160      	str	r0, [r4, #20]
20000694:	2004      	movs	r0, #4
20000696:	0007      	movs	r7, r0
20000698:	400f      	ands	r7, r1
2000069a:	4208      	tst	r0, r1
2000069c:	d00b      	beq.n	200006b6 <DAP_ProcessCommand+0x55a>
2000069e:	25d0      	movs	r5, #208	; 0xd0
200006a0:	062d      	lsls	r5, r5, #24
200006a2:	692c      	ldr	r4, [r5, #16]
200006a4:	0016      	movs	r6, r2
200006a6:	46a4      	mov	ip, r4
200006a8:	2403      	movs	r4, #3
200006aa:	43a6      	bics	r6, r4
200006ac:	0034      	movs	r4, r6
200006ae:	4666      	mov	r6, ip
200006b0:	4074      	eors	r4, r6
200006b2:	4020      	ands	r0, r4
200006b4:	61e8      	str	r0, [r5, #28]
200006b6:	b248      	sxtb	r0, r1
200006b8:	2800      	cmp	r0, #0
200006ba:	da04      	bge.n	200006c6 <DAP_ProcessCommand+0x56a>
200006bc:	24d0      	movs	r4, #208	; 0xd0
200006be:	2580      	movs	r5, #128	; 0x80
200006c0:	0624      	lsls	r4, r4, #24
200006c2:	62a5      	str	r5, [r4, #40]	; 0x28
200006c4:	6265      	str	r5, [r4, #36]	; 0x24
200006c6:	2b00      	cmp	r3, #0
200006c8:	d03a      	beq.n	20000740 <DAP_ProcessCommand+0x5e4>
200006ca:	2520      	movs	r5, #32
200006cc:	400d      	ands	r5, r1
200006ce:	4969      	ldr	r1, [pc, #420]	; (20000874 <DAP_ProcessCommand+0x718>)
200006d0:	9502      	str	r5, [sp, #8]
200006d2:	428b      	cmp	r3, r1
200006d4:	d900      	bls.n	200006d8 <DAP_ProcessCommand+0x57c>
200006d6:	000b      	movs	r3, r1
200006d8:	09d5      	lsrs	r5, r2, #7
200006da:	46a8      	mov	r8, r5
200006dc:	465d      	mov	r5, fp
200006de:	0856      	lsrs	r6, r2, #1
200006e0:	4965      	ldr	r1, [pc, #404]	; (20000878 <DAP_ProcessCommand+0x71c>)
200006e2:	46b2      	mov	sl, r6
200006e4:	0896      	lsrs	r6, r2, #2
200006e6:	46b4      	mov	ip, r6
200006e8:	6a8c      	ldr	r4, [r1, #40]	; 0x28
200006ea:	0956      	lsrs	r6, r2, #5
200006ec:	2d00      	cmp	r5, #0
200006ee:	d001      	beq.n	200006f4 <DAP_ProcessCommand+0x598>
200006f0:	f000 fdd8 	bl	200012a4 <DAP_ProcessCommand+0x1148>
200006f4:	2e00      	cmp	r6, #0
200006f6:	d001      	beq.n	200006fc <DAP_ProcessCommand+0x5a0>
200006f8:	f000 ff67 	bl	200015ca <DAP_ProcessCommand+0x146e>
200006fc:	2800      	cmp	r0, #0
200006fe:	db01      	blt.n	20000704 <DAP_ProcessCommand+0x5a8>
20000700:	f001 f893 	bl	2000182a <DAP_ProcessCommand+0x16ce>
20000704:	25d0      	movs	r5, #208	; 0xd0
20000706:	9a02      	ldr	r2, [sp, #8]
20000708:	2001      	movs	r0, #1
2000070a:	9e01      	ldr	r6, [sp, #4]
2000070c:	062d      	lsls	r5, r5, #24
2000070e:	2a00      	cmp	r2, #0
20000710:	d12f      	bne.n	20000772 <DAP_ProcessCommand+0x616>
20000712:	2e00      	cmp	r6, #0
20000714:	d004      	beq.n	20000720 <DAP_ProcessCommand+0x5c4>
20000716:	686a      	ldr	r2, [r5, #4]
20000718:	0852      	lsrs	r2, r2, #1
2000071a:	4002      	ands	r2, r0
2000071c:	4592      	cmp	sl, r2
2000071e:	d10b      	bne.n	20000738 <DAP_ProcessCommand+0x5dc>
20000720:	2f00      	cmp	r7, #0
20000722:	d004      	beq.n	2000072e <DAP_ProcessCommand+0x5d2>
20000724:	686a      	ldr	r2, [r5, #4]
20000726:	0892      	lsrs	r2, r2, #2
20000728:	4002      	ands	r2, r0
2000072a:	4594      	cmp	ip, r2
2000072c:	d104      	bne.n	20000738 <DAP_ProcessCommand+0x5dc>
2000072e:	686a      	ldr	r2, [r5, #4]
20000730:	09d2      	lsrs	r2, r2, #7
20000732:	4002      	ands	r2, r0
20000734:	4590      	cmp	r8, r2
20000736:	d003      	beq.n	20000740 <DAP_ProcessCommand+0x5e4>
20000738:	6a8a      	ldr	r2, [r1, #40]	; 0x28
2000073a:	1b12      	subs	r2, r2, r4
2000073c:	4293      	cmp	r3, r2
2000073e:	d8e8      	bhi.n	20000712 <DAP_ProcessCommand+0x5b6>
20000740:	22d0      	movs	r2, #208	; 0xd0
20000742:	2002      	movs	r0, #2
20000744:	0612      	lsls	r2, r2, #24
20000746:	6855      	ldr	r5, [r2, #4]
20000748:	6853      	ldr	r3, [r2, #4]
2000074a:	6854      	ldr	r4, [r2, #4]
2000074c:	4003      	ands	r3, r0
2000074e:	3002      	adds	r0, #2
20000750:	4004      	ands	r4, r0
20000752:	3803      	subs	r0, #3
20000754:	4323      	orrs	r3, r4
20000756:	4028      	ands	r0, r5
20000758:	4303      	orrs	r3, r0
2000075a:	2008      	movs	r0, #8
2000075c:	6851      	ldr	r1, [r2, #4]
2000075e:	6852      	ldr	r2, [r2, #4]
20000760:	4001      	ands	r1, r0
20000762:	430b      	orrs	r3, r1
20000764:	2180      	movs	r1, #128	; 0x80
20000766:	400a      	ands	r2, r1
20000768:	4313      	orrs	r3, r2
2000076a:	464a      	mov	r2, r9
2000076c:	4c43      	ldr	r4, [pc, #268]	; (2000087c <DAP_ProcessCommand+0x720>)
2000076e:	7053      	strb	r3, [r2, #1]
20000770:	e510      	b.n	20000194 <DAP_ProcessCommand+0x38>
20000772:	2e00      	cmp	r6, #0
20000774:	d004      	beq.n	20000780 <DAP_ProcessCommand+0x624>
20000776:	686a      	ldr	r2, [r5, #4]
20000778:	0852      	lsrs	r2, r2, #1
2000077a:	4002      	ands	r2, r0
2000077c:	4592      	cmp	sl, r2
2000077e:	d10b      	bne.n	20000798 <DAP_ProcessCommand+0x63c>
20000780:	2f00      	cmp	r7, #0
20000782:	d004      	beq.n	2000078e <DAP_ProcessCommand+0x632>
20000784:	686a      	ldr	r2, [r5, #4]
20000786:	0892      	lsrs	r2, r2, #2
20000788:	4002      	ands	r2, r0
2000078a:	4594      	cmp	ip, r2
2000078c:	d104      	bne.n	20000798 <DAP_ProcessCommand+0x63c>
2000078e:	686a      	ldr	r2, [r5, #4]
20000790:	09d2      	lsrs	r2, r2, #7
20000792:	4002      	ands	r2, r0
20000794:	4590      	cmp	r8, r2
20000796:	d0d3      	beq.n	20000740 <DAP_ProcessCommand+0x5e4>
20000798:	6a8a      	ldr	r2, [r1, #40]	; 0x28
2000079a:	1b12      	subs	r2, r2, r4
2000079c:	4293      	cmp	r3, r2
2000079e:	d8e8      	bhi.n	20000772 <DAP_ProcessCommand+0x616>
200007a0:	e7ce      	b.n	20000740 <DAP_ProcessCommand+0x5e4>
200007a2:	4644      	mov	r4, r8
200007a4:	9b01      	ldr	r3, [sp, #4]
200007a6:	0424      	lsls	r4, r4, #16
200007a8:	431c      	orrs	r4, r3
200007aa:	4b30      	ldr	r3, [pc, #192]	; (2000086c <DAP_ProcessCommand+0x710>)
200007ac:	469c      	mov	ip, r3
200007ae:	4464      	add	r4, ip
200007b0:	e4f0      	b.n	20000194 <DAP_ProcessCommand+0x38>
200007b2:	2200      	movs	r2, #0
200007b4:	2101      	movs	r1, #1
200007b6:	2001      	movs	r0, #1
200007b8:	f004 f984 	bl	20004ac4 <gpio_set_pulls>
200007bc:	e519      	b.n	200001f2 <DAP_ProcessCommand+0x96>
200007be:	2afe      	cmp	r2, #254	; 0xfe
200007c0:	d101      	bne.n	200007c6 <DAP_ProcessCommand+0x66a>
200007c2:	f000 fdf3 	bl	200013ac <DAP_ProcessCommand+0x1250>
200007c6:	2aff      	cmp	r2, #255	; 0xff
200007c8:	d001      	beq.n	200007ce <DAP_ProcessCommand+0x672>
200007ca:	f001 f8a0 	bl	2000190e <DAP_ProcessCommand+0x17b2>
200007ce:	2340      	movs	r3, #64	; 0x40
200007d0:	464a      	mov	r2, r9
200007d2:	7093      	strb	r3, [r2, #2]
200007d4:	2300      	movs	r3, #0
200007d6:	4c2a      	ldr	r4, [pc, #168]	; (20000880 <DAP_ProcessCommand+0x724>)
200007d8:	70d3      	strb	r3, [r2, #3]
200007da:	3302      	adds	r3, #2
200007dc:	e6aa      	b.n	20000534 <DAP_ProcessCommand+0x3d8>
200007de:	23ff      	movs	r3, #255	; 0xff
200007e0:	464a      	mov	r2, r9
200007e2:	7053      	strb	r3, [r2, #1]
200007e4:	4c20      	ldr	r4, [pc, #128]	; (20000868 <DAP_ProcessCommand+0x70c>)
200007e6:	e4d5      	b.n	20000194 <DAP_ProcessCommand+0x38>
200007e8:	2200      	movs	r2, #0
200007ea:	2101      	movs	r1, #1
200007ec:	2001      	movs	r0, #1
200007ee:	f004 f969 	bl	20004ac4 <gpio_set_pulls>
200007f2:	e525      	b.n	20000240 <DAP_ProcessCommand+0xe4>
200007f4:	2080      	movs	r0, #128	; 0x80
200007f6:	4c23      	ldr	r4, [pc, #140]	; (20000884 <DAP_ProcessCommand+0x728>)
200007f8:	0040      	lsls	r0, r0, #1
200007fa:	e6ba      	b.n	20000572 <DAP_ProcessCommand+0x416>
200007fc:	23ff      	movs	r3, #255	; 0xff
200007fe:	464a      	mov	r2, r9
20000800:	4c1b      	ldr	r4, [pc, #108]	; (20000870 <DAP_ProcessCommand+0x714>)
20000802:	7053      	strb	r3, [r2, #1]
20000804:	e4c6      	b.n	20000194 <DAP_ProcessCommand+0x38>
20000806:	78eb      	ldrb	r3, [r5, #3]
20000808:	78ac      	ldrb	r4, [r5, #2]
2000080a:	021b      	lsls	r3, r3, #8
2000080c:	431c      	orrs	r4, r3
2000080e:	4b17      	ldr	r3, [pc, #92]	; (2000086c <DAP_ProcessCommand+0x710>)
20000810:	3401      	adds	r4, #1
20000812:	469c      	mov	ip, r3
20000814:	04a4      	lsls	r4, r4, #18
20000816:	4304      	orrs	r4, r0
20000818:	4464      	add	r4, ip
2000081a:	e4bb      	b.n	20000194 <DAP_ProcessCommand+0x38>
2000081c:	4b11      	ldr	r3, [pc, #68]	; (20000864 <DAP_ProcessCommand+0x708>)
2000081e:	25d0      	movs	r5, #208	; 0xd0
20000820:	701c      	strb	r4, [r3, #0]
20000822:	2302      	movs	r3, #2
20000824:	062d      	lsls	r5, r5, #24
20000826:	626c      	str	r4, [r5, #36]	; 0x24
20000828:	616c      	str	r4, [r5, #20]
2000082a:	626b      	str	r3, [r5, #36]	; 0x24
2000082c:	616b      	str	r3, [r5, #20]
2000082e:	337e      	adds	r3, #126	; 0x7e
20000830:	626b      	str	r3, [r5, #36]	; 0x24
20000832:	616b      	str	r3, [r5, #20]
20000834:	3b7c      	subs	r3, #124	; 0x7c
20000836:	62ab      	str	r3, [r5, #40]	; 0x28
20000838:	2200      	movs	r2, #0
2000083a:	2100      	movs	r1, #0
2000083c:	2002      	movs	r0, #2
2000083e:	f004 f941 	bl	20004ac4 <gpio_set_pulls>
20000842:	2320      	movs	r3, #32
20000844:	2200      	movs	r2, #0
20000846:	2100      	movs	r1, #0
20000848:	2005      	movs	r0, #5
2000084a:	62ab      	str	r3, [r5, #40]	; 0x28
2000084c:	f004 f93a 	bl	20004ac4 <gpio_set_pulls>
20000850:	e63a      	b.n	200004c8 <DAP_ProcessCommand+0x36c>
20000852:	23ff      	movs	r3, #255	; 0xff
20000854:	464a      	mov	r2, r9
20000856:	4c0c      	ldr	r4, [pc, #48]	; (20000888 <DAP_ProcessCommand+0x72c>)
20000858:	7053      	strb	r3, [r2, #1]
2000085a:	e49b      	b.n	20000194 <DAP_ProcessCommand+0x38>
2000085c:	00030002 	.word	0x00030002
20000860:	00020003 	.word	0x00020003
20000864:	2000b95c 	.word	0x2000b95c
20000868:	00020002 	.word	0x00020002
2000086c:	00010001 	.word	0x00010001
20000870:	00060002 	.word	0x00060002
20000874:	002dc6c0 	.word	0x002dc6c0
20000878:	40054000 	.word	0x40054000
2000087c:	00070002 	.word	0x00070002
20000880:	00020004 	.word	0x00020004
20000884:	00220002 	.word	0x00220002
20000888:	00050002 	.word	0x00050002
2000088c:	4bdb      	ldr	r3, [pc, #876]	; (20000bfc <DAP_ProcessCommand+0xaa0>)
2000088e:	469a      	mov	sl, r3
20000890:	2300      	movs	r3, #0
20000892:	4652      	mov	r2, sl
20000894:	7053      	strb	r3, [r2, #1]
20000896:	4bda      	ldr	r3, [pc, #872]	; (20000c00 <DAP_ProcessCommand+0xaa4>)
20000898:	18c8      	adds	r0, r1, r3
2000089a:	f004 fd07 	bl	200052ac <__wrap___aeabi_uidiv>
2000089e:	2801      	cmp	r0, #1
200008a0:	d003      	beq.n	200008aa <DAP_ProcessCommand+0x74e>
200008a2:	2103      	movs	r1, #3
200008a4:	3001      	adds	r0, #1
200008a6:	f004 fd01 	bl	200052ac <__wrap___aeabi_uidiv>
200008aa:	4653      	mov	r3, sl
200008ac:	6058      	str	r0, [r3, #4]
200008ae:	e5b7      	b.n	20000420 <DAP_ProcessCommand+0x2c4>
200008b0:	2200      	movs	r2, #0
200008b2:	4649      	mov	r1, r9
200008b4:	704a      	strb	r2, [r1, #1]
200008b6:	708a      	strb	r2, [r1, #2]
200008b8:	9a0b      	ldr	r2, [sp, #44]	; 0x2c
200008ba:	1a9c      	subs	r4, r3, r2
200008bc:	2302      	movs	r3, #2
200008be:	0424      	lsls	r4, r4, #16
200008c0:	431c      	orrs	r4, r3
200008c2:	4bd0      	ldr	r3, [pc, #832]	; (20000c04 <DAP_ProcessCommand+0xaa8>)
200008c4:	469c      	mov	ip, r3
200008c6:	4464      	add	r4, ip
200008c8:	e464      	b.n	20000194 <DAP_ProcessCommand+0x38>
200008ca:	464b      	mov	r3, r9
200008cc:	3303      	adds	r3, #3
200008ce:	9309      	str	r3, [sp, #36]	; 0x24
200008d0:	2300      	movs	r3, #0
200008d2:	4652      	mov	r2, sl
200008d4:	4ccc      	ldr	r4, [pc, #816]	; (20000c08 <DAP_ProcessCommand+0xaac>)
200008d6:	7023      	strb	r3, [r4, #0]
200008d8:	7843      	ldrb	r3, [r0, #1]
200008da:	76d3      	strb	r3, [r2, #27]
200008dc:	7e92      	ldrb	r2, [r2, #26]
200008de:	429a      	cmp	r2, r3
200008e0:	d801      	bhi.n	200008e6 <DAP_ProcessCommand+0x78a>
200008e2:	f000 fdc1 	bl	20001468 <DAP_ProcessCommand+0x130c>
200008e6:	1cc3      	adds	r3, r0, #3
200008e8:	469b      	mov	fp, r3
200008ea:	7883      	ldrb	r3, [r0, #2]
200008ec:	9306      	str	r3, [sp, #24]
200008ee:	2b00      	cmp	r3, #0
200008f0:	d101      	bne.n	200008f6 <DAP_ProcessCommand+0x79a>
200008f2:	f001 f807 	bl	20001904 <DAP_ProcessCommand+0x17a8>
200008f6:	2300      	movs	r3, #0
200008f8:	4698      	mov	r8, r3
200008fa:	9304      	str	r3, [sp, #16]
200008fc:	9307      	str	r3, [sp, #28]
200008fe:	465b      	mov	r3, fp
20000900:	9303      	str	r3, [sp, #12]
20000902:	4643      	mov	r3, r8
20000904:	9302      	str	r3, [sp, #8]
20000906:	9b03      	ldr	r3, [sp, #12]
20000908:	1c5a      	adds	r2, r3, #1
2000090a:	781d      	ldrb	r5, [r3, #0]
2000090c:	2301      	movs	r3, #1
2000090e:	402b      	ands	r3, r5
20000910:	330a      	adds	r3, #10
20000912:	9305      	str	r3, [sp, #20]
20000914:	2302      	movs	r3, #2
20000916:	4693      	mov	fp, r2
20000918:	9208      	str	r2, [sp, #32]
2000091a:	422b      	tst	r3, r5
2000091c:	d100      	bne.n	20000920 <DAP_ProcessCommand+0x7c4>
2000091e:	e0bd      	b.n	20000a9c <DAP_ProcessCommand+0x940>
20000920:	9b02      	ldr	r3, [sp, #8]
20000922:	2b00      	cmp	r3, #0
20000924:	d031      	beq.n	2000098a <DAP_ProcessCommand+0x82e>
20000926:	4653      	mov	r3, sl
20000928:	8a1b      	ldrh	r3, [r3, #16]
2000092a:	9a07      	ldr	r2, [sp, #28]
2000092c:	4698      	mov	r8, r3
2000092e:	9b05      	ldr	r3, [sp, #20]
20000930:	4293      	cmp	r3, r2
20000932:	d000      	beq.n	20000936 <DAP_ProcessCommand+0x7da>
20000934:	e0d0      	b.n	20000ad8 <DAP_ProcessCommand+0x97c>
20000936:	06eb      	lsls	r3, r5, #27
20000938:	d500      	bpl.n	2000093c <DAP_ProcessCommand+0x7e0>
2000093a:	e0cd      	b.n	20000ad8 <DAP_ProcessCommand+0x97c>
2000093c:	4647      	mov	r7, r8
2000093e:	ae0d      	add	r6, sp, #52	; 0x34
20000940:	e009      	b.n	20000956 <DAP_ProcessCommand+0x7fa>
20000942:	2f00      	cmp	r7, #0
20000944:	d101      	bne.n	2000094a <DAP_ProcessCommand+0x7ee>
20000946:	f000 fd05 	bl	20001354 <DAP_ProcessCommand+0x11f8>
2000094a:	7823      	ldrb	r3, [r4, #0]
2000094c:	3f01      	subs	r7, #1
2000094e:	2b00      	cmp	r3, #0
20000950:	d001      	beq.n	20000956 <DAP_ProcessCommand+0x7fa>
20000952:	f000 fcff 	bl	20001354 <DAP_ProcessCommand+0x11f8>
20000956:	0031      	movs	r1, r6
20000958:	0028      	movs	r0, r5
2000095a:	f001 fcf5 	bl	20002348 <JTAG_Transfer>
2000095e:	2802      	cmp	r0, #2
20000960:	d0ef      	beq.n	20000942 <DAP_ProcessCommand+0x7e6>
20000962:	0003      	movs	r3, r0
20000964:	2b01      	cmp	r3, #1
20000966:	d001      	beq.n	2000096c <DAP_ProcessCommand+0x810>
20000968:	f000 ffb7 	bl	200018da <DAP_ProcessCommand+0x177e>
2000096c:	9b0d      	ldr	r3, [sp, #52]	; 0x34
2000096e:	9909      	ldr	r1, [sp, #36]	; 0x24
20000970:	0a1a      	lsrs	r2, r3, #8
20000972:	700b      	strb	r3, [r1, #0]
20000974:	704a      	strb	r2, [r1, #1]
20000976:	0c1a      	lsrs	r2, r3, #16
20000978:	0e1b      	lsrs	r3, r3, #24
2000097a:	70cb      	strb	r3, [r1, #3]
2000097c:	9b02      	ldr	r3, [sp, #8]
2000097e:	708a      	strb	r2, [r1, #2]
20000980:	1d0a      	adds	r2, r1, #4
20000982:	2b00      	cmp	r3, #0
20000984:	d000      	beq.n	20000988 <DAP_ProcessCommand+0x82c>
20000986:	e1ab      	b.n	20000ce0 <DAP_ProcessCommand+0xb84>
20000988:	9209      	str	r2, [sp, #36]	; 0x24
2000098a:	06eb      	lsls	r3, r5, #27
2000098c:	d500      	bpl.n	20000990 <DAP_ProcessCommand+0x834>
2000098e:	e0d1      	b.n	20000b34 <DAP_ProcessCommand+0x9d8>
20000990:	9b05      	ldr	r3, [sp, #20]
20000992:	9a07      	ldr	r2, [sp, #28]
20000994:	4293      	cmp	r3, r2
20000996:	d002      	beq.n	2000099e <DAP_ProcessCommand+0x842>
20000998:	0018      	movs	r0, r3
2000099a:	f001 fb97 	bl	200020cc <JTAG_IR>
2000099e:	4653      	mov	r3, sl
200009a0:	8a1e      	ldrh	r6, [r3, #16]
200009a2:	e009      	b.n	200009b8 <DAP_ProcessCommand+0x85c>
200009a4:	2e00      	cmp	r6, #0
200009a6:	d101      	bne.n	200009ac <DAP_ProcessCommand+0x850>
200009a8:	f000 fcac 	bl	20001304 <DAP_ProcessCommand+0x11a8>
200009ac:	7823      	ldrb	r3, [r4, #0]
200009ae:	3e01      	subs	r6, #1
200009b0:	2b00      	cmp	r3, #0
200009b2:	d001      	beq.n	200009b8 <DAP_ProcessCommand+0x85c>
200009b4:	f000 fca6 	bl	20001304 <DAP_ProcessCommand+0x11a8>
200009b8:	2100      	movs	r1, #0
200009ba:	0028      	movs	r0, r5
200009bc:	f001 fcc4 	bl	20002348 <JTAG_Transfer>
200009c0:	2802      	cmp	r0, #2
200009c2:	d0ef      	beq.n	200009a4 <DAP_ProcessCommand+0x848>
200009c4:	9002      	str	r0, [sp, #8]
200009c6:	2801      	cmp	r0, #1
200009c8:	d001      	beq.n	200009ce <DAP_ProcessCommand+0x872>
200009ca:	f000 ff81 	bl	200018d0 <DAP_ProcessCommand+0x1774>
200009ce:	9b05      	ldr	r3, [sp, #20]
200009d0:	b26d      	sxtb	r5, r5
200009d2:	9307      	str	r3, [sp, #28]
200009d4:	465b      	mov	r3, fp
200009d6:	9303      	str	r3, [sp, #12]
200009d8:	2d00      	cmp	r5, #0
200009da:	da0b      	bge.n	200009f4 <DAP_ProcessCommand+0x898>
200009dc:	4653      	mov	r3, sl
200009de:	689b      	ldr	r3, [r3, #8]
200009e0:	9909      	ldr	r1, [sp, #36]	; 0x24
200009e2:	0a1a      	lsrs	r2, r3, #8
200009e4:	700b      	strb	r3, [r1, #0]
200009e6:	704a      	strb	r2, [r1, #1]
200009e8:	0c1a      	lsrs	r2, r3, #16
200009ea:	0e1b      	lsrs	r3, r3, #24
200009ec:	70cb      	strb	r3, [r1, #3]
200009ee:	1d0b      	adds	r3, r1, #4
200009f0:	708a      	strb	r2, [r1, #2]
200009f2:	9309      	str	r3, [sp, #36]	; 0x24
200009f4:	9b04      	ldr	r3, [sp, #16]
200009f6:	3301      	adds	r3, #1
200009f8:	9304      	str	r3, [sp, #16]
200009fa:	7823      	ldrb	r3, [r4, #0]
200009fc:	2b00      	cmp	r3, #0
200009fe:	d001      	beq.n	20000a04 <DAP_ProcessCommand+0x8a8>
20000a00:	f000 fe04 	bl	2000160c <DAP_ProcessCommand+0x14b0>
20000a04:	9b06      	ldr	r3, [sp, #24]
20000a06:	3b01      	subs	r3, #1
20000a08:	9306      	str	r3, [sp, #24]
20000a0a:	2b00      	cmp	r3, #0
20000a0c:	d000      	beq.n	20000a10 <DAP_ProcessCommand+0x8b4>
20000a0e:	e77a      	b.n	20000906 <DAP_ProcessCommand+0x7aa>
20000a10:	9b03      	ldr	r3, [sp, #12]
20000a12:	469b      	mov	fp, r3
20000a14:	9b02      	ldr	r3, [sp, #8]
20000a16:	4698      	mov	r8, r3
20000a18:	9b07      	ldr	r3, [sp, #28]
20000a1a:	2b0a      	cmp	r3, #10
20000a1c:	d002      	beq.n	20000a24 <DAP_ProcessCommand+0x8c8>
20000a1e:	200a      	movs	r0, #10
20000a20:	f001 fb54 	bl	200020cc <JTAG_IR>
20000a24:	4643      	mov	r3, r8
20000a26:	2b00      	cmp	r3, #0
20000a28:	d101      	bne.n	20000a2e <DAP_ProcessCommand+0x8d2>
20000a2a:	f000 fdf6 	bl	2000161a <DAP_ProcessCommand+0x14be>
20000a2e:	4653      	mov	r3, sl
20000a30:	af0d      	add	r7, sp, #52	; 0x34
20000a32:	8a1d      	ldrh	r5, [r3, #16]
20000a34:	e009      	b.n	20000a4a <DAP_ProcessCommand+0x8ee>
20000a36:	2d00      	cmp	r5, #0
20000a38:	d101      	bne.n	20000a3e <DAP_ProcessCommand+0x8e2>
20000a3a:	f000 fdfe 	bl	2000163a <DAP_ProcessCommand+0x14de>
20000a3e:	7823      	ldrb	r3, [r4, #0]
20000a40:	3d01      	subs	r5, #1
20000a42:	2b00      	cmp	r3, #0
20000a44:	d001      	beq.n	20000a4a <DAP_ProcessCommand+0x8ee>
20000a46:	f000 fdf8 	bl	2000163a <DAP_ProcessCommand+0x14de>
20000a4a:	0039      	movs	r1, r7
20000a4c:	200e      	movs	r0, #14
20000a4e:	f001 fc7b 	bl	20002348 <JTAG_Transfer>
20000a52:	2802      	cmp	r0, #2
20000a54:	d0ef      	beq.n	20000a36 <DAP_ProcessCommand+0x8da>
20000a56:	2801      	cmp	r0, #1
20000a58:	d001      	beq.n	20000a5e <DAP_ProcessCommand+0x902>
20000a5a:	f000 ff4a 	bl	200018f2 <DAP_ProcessCommand+0x1796>
20000a5e:	9b0d      	ldr	r3, [sp, #52]	; 0x34
20000a60:	9909      	ldr	r1, [sp, #36]	; 0x24
20000a62:	0a1a      	lsrs	r2, r3, #8
20000a64:	700b      	strb	r3, [r1, #0]
20000a66:	704a      	strb	r2, [r1, #1]
20000a68:	0c1a      	lsrs	r2, r3, #16
20000a6a:	0e1b      	lsrs	r3, r3, #24
20000a6c:	70cb      	strb	r3, [r1, #3]
20000a6e:	466b      	mov	r3, sp
20000a70:	708a      	strb	r2, [r1, #2]
20000a72:	7c1a      	ldrb	r2, [r3, #16]
20000a74:	1d0b      	adds	r3, r1, #4
20000a76:	9309      	str	r3, [sp, #36]	; 0x24
20000a78:	900a      	str	r0, [sp, #40]	; 0x28
20000a7a:	464b      	mov	r3, r9
20000a7c:	705a      	strb	r2, [r3, #1]
20000a7e:	9a0a      	ldr	r2, [sp, #40]	; 0x28
20000a80:	709a      	strb	r2, [r3, #2]
20000a82:	465b      	mov	r3, fp
20000a84:	9a0b      	ldr	r2, [sp, #44]	; 0x2c
20000a86:	1a9c      	subs	r4, r3, r2
20000a88:	9b09      	ldr	r3, [sp, #36]	; 0x24
20000a8a:	0424      	lsls	r4, r4, #16
20000a8c:	9a01      	ldr	r2, [sp, #4]
20000a8e:	1a9b      	subs	r3, r3, r2
20000a90:	431c      	orrs	r4, r3
20000a92:	4b5c      	ldr	r3, [pc, #368]	; (20000c04 <DAP_ProcessCommand+0xaa8>)
20000a94:	469c      	mov	ip, r3
20000a96:	4464      	add	r4, ip
20000a98:	f7ff fb7c 	bl	20000194 <DAP_ProcessCommand+0x38>
20000a9c:	9b02      	ldr	r3, [sp, #8]
20000a9e:	2b00      	cmp	r3, #0
20000aa0:	d000      	beq.n	20000aa4 <DAP_ProcessCommand+0x948>
20000aa2:	e0f3      	b.n	20000c8c <DAP_ProcessCommand+0xb30>
20000aa4:	465a      	mov	r2, fp
20000aa6:	465b      	mov	r3, fp
20000aa8:	7851      	ldrb	r1, [r2, #1]
20000aaa:	781b      	ldrb	r3, [r3, #0]
20000aac:	7892      	ldrb	r2, [r2, #2]
20000aae:	0209      	lsls	r1, r1, #8
20000ab0:	4319      	orrs	r1, r3
20000ab2:	0412      	lsls	r2, r2, #16
20000ab4:	465b      	mov	r3, fp
20000ab6:	4311      	orrs	r1, r2
20000ab8:	9a03      	ldr	r2, [sp, #12]
20000aba:	78db      	ldrb	r3, [r3, #3]
20000abc:	3205      	adds	r2, #5
20000abe:	9203      	str	r2, [sp, #12]
20000ac0:	2220      	movs	r2, #32
20000ac2:	061b      	lsls	r3, r3, #24
20000ac4:	430b      	orrs	r3, r1
20000ac6:	930d      	str	r3, [sp, #52]	; 0x34
20000ac8:	422a      	tst	r2, r5
20000aca:	d100      	bne.n	20000ace <DAP_ProcessCommand+0x972>
20000acc:	e0b7      	b.n	20000c3e <DAP_ProcessCommand+0xae2>
20000ace:	4652      	mov	r2, sl
20000ad0:	6153      	str	r3, [r2, #20]
20000ad2:	2300      	movs	r3, #0
20000ad4:	9302      	str	r3, [sp, #8]
20000ad6:	e78d      	b.n	200009f4 <DAP_ProcessCommand+0x898>
20000ad8:	9b07      	ldr	r3, [sp, #28]
20000ada:	2b0a      	cmp	r3, #10
20000adc:	d002      	beq.n	20000ae4 <DAP_ProcessCommand+0x988>
20000ade:	200a      	movs	r0, #10
20000ae0:	f001 faf4 	bl	200020cc <JTAG_IR>
20000ae4:	4647      	mov	r7, r8
20000ae6:	ae0d      	add	r6, sp, #52	; 0x34
20000ae8:	e009      	b.n	20000afe <DAP_ProcessCommand+0x9a2>
20000aea:	2f00      	cmp	r7, #0
20000aec:	d101      	bne.n	20000af2 <DAP_ProcessCommand+0x996>
20000aee:	f000 fc11 	bl	20001314 <DAP_ProcessCommand+0x11b8>
20000af2:	7823      	ldrb	r3, [r4, #0]
20000af4:	3f01      	subs	r7, #1
20000af6:	2b00      	cmp	r3, #0
20000af8:	d001      	beq.n	20000afe <DAP_ProcessCommand+0x9a2>
20000afa:	f000 fc11 	bl	20001320 <DAP_ProcessCommand+0x11c4>
20000afe:	0031      	movs	r1, r6
20000b00:	200e      	movs	r0, #14
20000b02:	f001 fc21 	bl	20002348 <JTAG_Transfer>
20000b06:	2802      	cmp	r0, #2
20000b08:	d0ef      	beq.n	20000aea <DAP_ProcessCommand+0x98e>
20000b0a:	220a      	movs	r2, #10
20000b0c:	9207      	str	r2, [sp, #28]
20000b0e:	2200      	movs	r2, #0
20000b10:	0003      	movs	r3, r0
20000b12:	9202      	str	r2, [sp, #8]
20000b14:	e726      	b.n	20000964 <DAP_ProcessCommand+0x808>
20000b16:	4653      	mov	r3, sl
20000b18:	689b      	ldr	r3, [r3, #8]
20000b1a:	0a1a      	lsrs	r2, r3, #8
20000b1c:	714a      	strb	r2, [r1, #5]
20000b1e:	0c1a      	lsrs	r2, r3, #16
20000b20:	718a      	strb	r2, [r1, #6]
20000b22:	000a      	movs	r2, r1
20000b24:	710b      	strb	r3, [r1, #4]
20000b26:	3208      	adds	r2, #8
20000b28:	0e1b      	lsrs	r3, r3, #24
20000b2a:	71cb      	strb	r3, [r1, #7]
20000b2c:	9209      	str	r2, [sp, #36]	; 0x24
20000b2e:	06eb      	lsls	r3, r5, #27
20000b30:	d400      	bmi.n	20000b34 <DAP_ProcessCommand+0x9d8>
20000b32:	e0dd      	b.n	20000cf0 <DAP_ProcessCommand+0xb94>
20000b34:	465b      	mov	r3, fp
20000b36:	781a      	ldrb	r2, [r3, #0]
20000b38:	785b      	ldrb	r3, [r3, #1]
20000b3a:	021b      	lsls	r3, r3, #8
20000b3c:	431a      	orrs	r2, r3
20000b3e:	465b      	mov	r3, fp
20000b40:	789b      	ldrb	r3, [r3, #2]
20000b42:	041b      	lsls	r3, r3, #16
20000b44:	4313      	orrs	r3, r2
20000b46:	465a      	mov	r2, fp
20000b48:	78d2      	ldrb	r2, [r2, #3]
20000b4a:	0612      	lsls	r2, r2, #24
20000b4c:	431a      	orrs	r2, r3
20000b4e:	9b03      	ldr	r3, [sp, #12]
20000b50:	4693      	mov	fp, r2
20000b52:	3305      	adds	r3, #5
20000b54:	9308      	str	r3, [sp, #32]
20000b56:	4653      	mov	r3, sl
20000b58:	8a5b      	ldrh	r3, [r3, #18]
20000b5a:	9a07      	ldr	r2, [sp, #28]
20000b5c:	4698      	mov	r8, r3
20000b5e:	9b05      	ldr	r3, [sp, #20]
20000b60:	4293      	cmp	r3, r2
20000b62:	d002      	beq.n	20000b6a <DAP_ProcessCommand+0xa0e>
20000b64:	0018      	movs	r0, r3
20000b66:	f001 fab1 	bl	200020cc <JTAG_IR>
20000b6a:	4653      	mov	r3, sl
20000b6c:	8a1e      	ldrh	r6, [r3, #16]
20000b6e:	e007      	b.n	20000b80 <DAP_ProcessCommand+0xa24>
20000b70:	2e00      	cmp	r6, #0
20000b72:	d100      	bne.n	20000b76 <DAP_ProcessCommand+0xa1a>
20000b74:	e36b      	b.n	2000124e <DAP_ProcessCommand+0x10f2>
20000b76:	7823      	ldrb	r3, [r4, #0]
20000b78:	3e01      	subs	r6, #1
20000b7a:	2b00      	cmp	r3, #0
20000b7c:	d000      	beq.n	20000b80 <DAP_ProcessCommand+0xa24>
20000b7e:	e366      	b.n	2000124e <DAP_ProcessCommand+0x10f2>
20000b80:	2100      	movs	r1, #0
20000b82:	0028      	movs	r0, r5
20000b84:	f001 fbe0 	bl	20002348 <JTAG_Transfer>
20000b88:	2802      	cmp	r0, #2
20000b8a:	d0f1      	beq.n	20000b70 <DAP_ProcessCommand+0xa14>
20000b8c:	0003      	movs	r3, r0
20000b8e:	2801      	cmp	r0, #1
20000b90:	d001      	beq.n	20000b96 <DAP_ProcessCommand+0xa3a>
20000b92:	f000 fe79 	bl	20001888 <DAP_ProcessCommand+0x172c>
20000b96:	ae0d      	add	r6, sp, #52	; 0x34
20000b98:	4653      	mov	r3, sl
20000b9a:	8a1f      	ldrh	r7, [r3, #16]
20000b9c:	e005      	b.n	20000baa <DAP_ProcessCommand+0xa4e>
20000b9e:	2f00      	cmp	r7, #0
20000ba0:	d040      	beq.n	20000c24 <DAP_ProcessCommand+0xac8>
20000ba2:	7822      	ldrb	r2, [r4, #0]
20000ba4:	3f01      	subs	r7, #1
20000ba6:	2a00      	cmp	r2, #0
20000ba8:	d13c      	bne.n	20000c24 <DAP_ProcessCommand+0xac8>
20000baa:	0031      	movs	r1, r6
20000bac:	0028      	movs	r0, r5
20000bae:	f001 fbcb 	bl	20002348 <JTAG_Transfer>
20000bb2:	0003      	movs	r3, r0
20000bb4:	2802      	cmp	r0, #2
20000bb6:	d0f2      	beq.n	20000b9e <DAP_ProcessCommand+0xa42>
20000bb8:	2801      	cmp	r0, #1
20000bba:	d133      	bne.n	20000c24 <DAP_ProcessCommand+0xac8>
20000bbc:	4652      	mov	r2, sl
20000bbe:	9b0d      	ldr	r3, [sp, #52]	; 0x34
20000bc0:	6952      	ldr	r2, [r2, #20]
20000bc2:	4013      	ands	r3, r2
20000bc4:	465a      	mov	r2, fp
20000bc6:	429a      	cmp	r2, r3
20000bc8:	d101      	bne.n	20000bce <DAP_ProcessCommand+0xa72>
20000bca:	f000 fc01 	bl	200013d0 <DAP_ProcessCommand+0x1274>
20000bce:	4643      	mov	r3, r8
20000bd0:	2b00      	cmp	r3, #0
20000bd2:	d006      	beq.n	20000be2 <DAP_ProcessCommand+0xa86>
20000bd4:	2201      	movs	r2, #1
20000bd6:	4252      	negs	r2, r2
20000bd8:	4694      	mov	ip, r2
20000bda:	7823      	ldrb	r3, [r4, #0]
20000bdc:	44e0      	add	r8, ip
20000bde:	2b00      	cmp	r3, #0
20000be0:	d0da      	beq.n	20000b98 <DAP_ProcessCommand+0xa3c>
20000be2:	9b02      	ldr	r3, [sp, #8]
20000be4:	4698      	mov	r8, r3
20000be6:	2311      	movs	r3, #17
20000be8:	9a08      	ldr	r2, [sp, #32]
20000bea:	4693      	mov	fp, r2
20000bec:	9a05      	ldr	r2, [sp, #20]
20000bee:	9207      	str	r2, [sp, #28]
20000bf0:	2102      	movs	r1, #2
20000bf2:	2010      	movs	r0, #16
20000bf4:	465d      	mov	r5, fp
20000bf6:	9a06      	ldr	r2, [sp, #24]
20000bf8:	e00f      	b.n	20000c1a <DAP_ProcessCommand+0xabe>
20000bfa:	46c0      	nop			; (mov r8, r8)
20000bfc:	2000b95c 	.word	0x2000b95c
20000c00:	03b9ac9f 	.word	0x03b9ac9f
20000c04:	00010001 	.word	0x00010001
20000c08:	200218c4 	.word	0x200218c4
20000c0c:	4230      	tst	r0, r6
20000c0e:	d107      	bne.n	20000c20 <DAP_ProcessCommand+0xac4>
20000c10:	3501      	adds	r5, #1
20000c12:	3a01      	subs	r2, #1
20000c14:	2a00      	cmp	r2, #0
20000c16:	d100      	bne.n	20000c1a <DAP_ProcessCommand+0xabe>
20000c18:	e3cf      	b.n	200013ba <DAP_ProcessCommand+0x125e>
20000c1a:	782e      	ldrb	r6, [r5, #0]
20000c1c:	4231      	tst	r1, r6
20000c1e:	d1f5      	bne.n	20000c0c <DAP_ProcessCommand+0xab0>
20000c20:	3505      	adds	r5, #5
20000c22:	e7f6      	b.n	20000c12 <DAP_ProcessCommand+0xab6>
20000c24:	4651      	mov	r1, sl
20000c26:	9a02      	ldr	r2, [sp, #8]
20000c28:	6949      	ldr	r1, [r1, #20]
20000c2a:	4690      	mov	r8, r2
20000c2c:	9a0d      	ldr	r2, [sp, #52]	; 0x34
20000c2e:	400a      	ands	r2, r1
20000c30:	4659      	mov	r1, fp
20000c32:	4291      	cmp	r1, r2
20000c34:	d0d8      	beq.n	20000be8 <DAP_ProcessCommand+0xa8c>
20000c36:	2310      	movs	r3, #16
20000c38:	4303      	orrs	r3, r0
20000c3a:	b2db      	uxtb	r3, r3
20000c3c:	e7d4      	b.n	20000be8 <DAP_ProcessCommand+0xa8c>
20000c3e:	9b05      	ldr	r3, [sp, #20]
20000c40:	9a07      	ldr	r2, [sp, #28]
20000c42:	4293      	cmp	r3, r2
20000c44:	d002      	beq.n	20000c4c <DAP_ProcessCommand+0xaf0>
20000c46:	0018      	movs	r0, r3
20000c48:	f001 fa40 	bl	200020cc <JTAG_IR>
20000c4c:	4653      	mov	r3, sl
20000c4e:	ae0d      	add	r6, sp, #52	; 0x34
20000c50:	8a1f      	ldrh	r7, [r3, #16]
20000c52:	e007      	b.n	20000c64 <DAP_ProcessCommand+0xb08>
20000c54:	2f00      	cmp	r7, #0
20000c56:	d100      	bne.n	20000c5a <DAP_ProcessCommand+0xafe>
20000c58:	e38a      	b.n	20001370 <DAP_ProcessCommand+0x1214>
20000c5a:	7823      	ldrb	r3, [r4, #0]
20000c5c:	3f01      	subs	r7, #1
20000c5e:	2b00      	cmp	r3, #0
20000c60:	d000      	beq.n	20000c64 <DAP_ProcessCommand+0xb08>
20000c62:	e37d      	b.n	20001360 <DAP_ProcessCommand+0x1204>
20000c64:	0031      	movs	r1, r6
20000c66:	0028      	movs	r0, r5
20000c68:	f001 fb6e 	bl	20002348 <JTAG_Transfer>
20000c6c:	2802      	cmp	r0, #2
20000c6e:	d0f1      	beq.n	20000c54 <DAP_ProcessCommand+0xaf8>
20000c70:	0003      	movs	r3, r0
20000c72:	2801      	cmp	r0, #1
20000c74:	d001      	beq.n	20000c7a <DAP_ProcessCommand+0xb1e>
20000c76:	f000 fe0b 	bl	20001890 <DAP_ProcessCommand+0x1734>
20000c7a:	b26d      	sxtb	r5, r5
20000c7c:	2d00      	cmp	r5, #0
20000c7e:	da00      	bge.n	20000c82 <DAP_ProcessCommand+0xb26>
20000c80:	e356      	b.n	20001330 <DAP_ProcessCommand+0x11d4>
20000c82:	9b05      	ldr	r3, [sp, #20]
20000c84:	9307      	str	r3, [sp, #28]
20000c86:	2300      	movs	r3, #0
20000c88:	9302      	str	r3, [sp, #8]
20000c8a:	e6b3      	b.n	200009f4 <DAP_ProcessCommand+0x898>
20000c8c:	9b07      	ldr	r3, [sp, #28]
20000c8e:	2b0a      	cmp	r3, #10
20000c90:	d002      	beq.n	20000c98 <DAP_ProcessCommand+0xb3c>
20000c92:	200a      	movs	r0, #10
20000c94:	f001 fa1a 	bl	200020cc <JTAG_IR>
20000c98:	4653      	mov	r3, sl
20000c9a:	8a1b      	ldrh	r3, [r3, #16]
20000c9c:	ae0d      	add	r6, sp, #52	; 0x34
20000c9e:	001f      	movs	r7, r3
20000ca0:	e005      	b.n	20000cae <DAP_ProcessCommand+0xb52>
20000ca2:	2f00      	cmp	r7, #0
20000ca4:	d027      	beq.n	20000cf6 <DAP_ProcessCommand+0xb9a>
20000ca6:	7823      	ldrb	r3, [r4, #0]
20000ca8:	3f01      	subs	r7, #1
20000caa:	2b00      	cmp	r3, #0
20000cac:	d123      	bne.n	20000cf6 <DAP_ProcessCommand+0xb9a>
20000cae:	0031      	movs	r1, r6
20000cb0:	200e      	movs	r0, #14
20000cb2:	f001 fb49 	bl	20002348 <JTAG_Transfer>
20000cb6:	2802      	cmp	r0, #2
20000cb8:	d0f3      	beq.n	20000ca2 <DAP_ProcessCommand+0xb46>
20000cba:	0003      	movs	r3, r0
20000cbc:	2801      	cmp	r0, #1
20000cbe:	d001      	beq.n	20000cc4 <DAP_ProcessCommand+0xb68>
20000cc0:	f000 fe11 	bl	200018e6 <DAP_ProcessCommand+0x178a>
20000cc4:	9b0d      	ldr	r3, [sp, #52]	; 0x34
20000cc6:	9909      	ldr	r1, [sp, #36]	; 0x24
20000cc8:	0a1a      	lsrs	r2, r3, #8
20000cca:	700b      	strb	r3, [r1, #0]
20000ccc:	704a      	strb	r2, [r1, #1]
20000cce:	0c1a      	lsrs	r2, r3, #16
20000cd0:	0e1b      	lsrs	r3, r3, #24
20000cd2:	70cb      	strb	r3, [r1, #3]
20000cd4:	1d0b      	adds	r3, r1, #4
20000cd6:	9309      	str	r3, [sp, #36]	; 0x24
20000cd8:	230a      	movs	r3, #10
20000cda:	708a      	strb	r2, [r1, #2]
20000cdc:	9307      	str	r3, [sp, #28]
20000cde:	e6e1      	b.n	20000aa4 <DAP_ProcessCommand+0x948>
20000ce0:	b26b      	sxtb	r3, r5
20000ce2:	2b00      	cmp	r3, #0
20000ce4:	da00      	bge.n	20000ce8 <DAP_ProcessCommand+0xb8c>
20000ce6:	e716      	b.n	20000b16 <DAP_ProcessCommand+0x9ba>
20000ce8:	9209      	str	r2, [sp, #36]	; 0x24
20000cea:	06eb      	lsls	r3, r5, #27
20000cec:	d500      	bpl.n	20000cf0 <DAP_ProcessCommand+0xb94>
20000cee:	e721      	b.n	20000b34 <DAP_ProcessCommand+0x9d8>
20000cf0:	465b      	mov	r3, fp
20000cf2:	9303      	str	r3, [sp, #12]
20000cf4:	e67e      	b.n	200009f4 <DAP_ProcessCommand+0x898>
20000cf6:	9a02      	ldr	r2, [sp, #8]
20000cf8:	0003      	movs	r3, r0
20000cfa:	4690      	mov	r8, r2
20000cfc:	220a      	movs	r2, #10
20000cfe:	9205      	str	r2, [sp, #20]
20000d00:	e772      	b.n	20000be8 <DAP_ProcessCommand+0xa8c>
20000d02:	78c2      	ldrb	r2, [r0, #3]
20000d04:	7883      	ldrb	r3, [r0, #2]
20000d06:	0212      	lsls	r2, r2, #8
20000d08:	431a      	orrs	r2, r3
20000d0a:	7903      	ldrb	r3, [r0, #4]
20000d0c:	a90d      	add	r1, sp, #52	; 0x34
20000d0e:	041b      	lsls	r3, r3, #16
20000d10:	431a      	orrs	r2, r3
20000d12:	7943      	ldrb	r3, [r0, #5]
20000d14:	2000      	movs	r0, #0
20000d16:	061b      	lsls	r3, r3, #24
20000d18:	4313      	orrs	r3, r2
20000d1a:	930d      	str	r3, [sp, #52]	; 0x34
20000d1c:	f002 f99e 	bl	2000305c <SWD_Transfer>
20000d20:	2300      	movs	r3, #0
20000d22:	464a      	mov	r2, r9
20000d24:	4cc2      	ldr	r4, [pc, #776]	; (20001030 <DAP_ProcessCommand+0xed4>)
20000d26:	7053      	strb	r3, [r2, #1]
20000d28:	f7ff fa34 	bl	20000194 <DAP_ProcessCommand+0x38>
20000d2c:	464b      	mov	r3, r9
20000d2e:	3303      	adds	r3, #3
20000d30:	9305      	str	r3, [sp, #20]
20000d32:	2300      	movs	r3, #0
20000d34:	4cbf      	ldr	r4, [pc, #764]	; (20001034 <DAP_ProcessCommand+0xed8>)
20000d36:	7023      	strb	r3, [r4, #0]
20000d38:	1cc3      	adds	r3, r0, #3
20000d3a:	4698      	mov	r8, r3
20000d3c:	7883      	ldrb	r3, [r0, #2]
20000d3e:	9303      	str	r3, [sp, #12]
20000d40:	2b00      	cmp	r3, #0
20000d42:	d101      	bne.n	20000d48 <DAP_ProcessCommand+0xbec>
20000d44:	f000 fd62 	bl	2000180c <DAP_ProcessCommand+0x16b0>
20000d48:	2300      	movs	r3, #0
20000d4a:	2700      	movs	r7, #0
20000d4c:	9306      	str	r3, [sp, #24]
20000d4e:	9302      	str	r3, [sp, #8]
20000d50:	4643      	mov	r3, r8
20000d52:	2000      	movs	r0, #0
20000d54:	46b8      	mov	r8, r7
20000d56:	001f      	movs	r7, r3
20000d58:	1c7b      	adds	r3, r7, #1
20000d5a:	469b      	mov	fp, r3
20000d5c:	9304      	str	r3, [sp, #16]
20000d5e:	2302      	movs	r3, #2
20000d60:	783e      	ldrb	r6, [r7, #0]
20000d62:	4233      	tst	r3, r6
20000d64:	d100      	bne.n	20000d68 <DAP_ProcessCommand+0xc0c>
20000d66:	e0b1      	b.n	20000ecc <DAP_ProcessCommand+0xd70>
20000d68:	4643      	mov	r3, r8
20000d6a:	2b00      	cmp	r3, #0
20000d6c:	d02b      	beq.n	20000dc6 <DAP_ProcessCommand+0xc6a>
20000d6e:	4653      	mov	r3, sl
20000d70:	8a1d      	ldrh	r5, [r3, #16]
20000d72:	2311      	movs	r3, #17
20000d74:	4033      	ands	r3, r6
20000d76:	2b01      	cmp	r3, #1
20000d78:	d108      	bne.n	20000d8c <DAP_ProcessCommand+0xc30>
20000d7a:	e089      	b.n	20000e90 <DAP_ProcessCommand+0xd34>
20000d7c:	2d00      	cmp	r5, #0
20000d7e:	d100      	bne.n	20000d82 <DAP_ProcessCommand+0xc26>
20000d80:	e132      	b.n	20000fe8 <DAP_ProcessCommand+0xe8c>
20000d82:	7823      	ldrb	r3, [r4, #0]
20000d84:	3d01      	subs	r5, #1
20000d86:	2b00      	cmp	r3, #0
20000d88:	d000      	beq.n	20000d8c <DAP_ProcessCommand+0xc30>
20000d8a:	e12d      	b.n	20000fe8 <DAP_ProcessCommand+0xe8c>
20000d8c:	200e      	movs	r0, #14
20000d8e:	a90d      	add	r1, sp, #52	; 0x34
20000d90:	f002 f964 	bl	2000305c <SWD_Transfer>
20000d94:	2802      	cmp	r0, #2
20000d96:	d0f1      	beq.n	20000d7c <DAP_ProcessCommand+0xc20>
20000d98:	2300      	movs	r3, #0
20000d9a:	4698      	mov	r8, r3
20000d9c:	2801      	cmp	r0, #1
20000d9e:	d000      	beq.n	20000da2 <DAP_ProcessCommand+0xc46>
20000da0:	e0d0      	b.n	20000f44 <DAP_ProcessCommand+0xde8>
20000da2:	9b0d      	ldr	r3, [sp, #52]	; 0x34
20000da4:	9905      	ldr	r1, [sp, #20]
20000da6:	0a1a      	lsrs	r2, r3, #8
20000da8:	700b      	strb	r3, [r1, #0]
20000daa:	704a      	strb	r2, [r1, #1]
20000dac:	0c1a      	lsrs	r2, r3, #16
20000dae:	0e1b      	lsrs	r3, r3, #24
20000db0:	70cb      	strb	r3, [r1, #3]
20000db2:	4643      	mov	r3, r8
20000db4:	708a      	strb	r2, [r1, #2]
20000db6:	1d0a      	adds	r2, r1, #4
20000db8:	2b00      	cmp	r3, #0
20000dba:	d003      	beq.n	20000dc4 <DAP_ProcessCommand+0xc68>
20000dbc:	b273      	sxtb	r3, r6
20000dbe:	4640      	mov	r0, r8
20000dc0:	2b00      	cmp	r3, #0
20000dc2:	db6c      	blt.n	20000e9e <DAP_ProcessCommand+0xd42>
20000dc4:	9205      	str	r2, [sp, #20]
20000dc6:	06f3      	lsls	r3, r6, #27
20000dc8:	d400      	bmi.n	20000dcc <DAP_ProcessCommand+0xc70>
20000dca:	e0bd      	b.n	20000f48 <DAP_ProcessCommand+0xdec>
20000dcc:	465b      	mov	r3, fp
20000dce:	785a      	ldrb	r2, [r3, #1]
20000dd0:	7819      	ldrb	r1, [r3, #0]
20000dd2:	0212      	lsls	r2, r2, #8
20000dd4:	4311      	orrs	r1, r2
20000dd6:	465a      	mov	r2, fp
20000dd8:	789b      	ldrb	r3, [r3, #2]
20000dda:	78d2      	ldrb	r2, [r2, #3]
20000ddc:	041b      	lsls	r3, r3, #16
20000dde:	430b      	orrs	r3, r1
20000de0:	0612      	lsls	r2, r2, #24
20000de2:	431a      	orrs	r2, r3
20000de4:	1d7b      	adds	r3, r7, #5
20000de6:	9304      	str	r3, [sp, #16]
20000de8:	4653      	mov	r3, sl
20000dea:	4693      	mov	fp, r2
20000dec:	8a5f      	ldrh	r7, [r3, #18]
20000dee:	07f3      	lsls	r3, r6, #31
20000df0:	d513      	bpl.n	20000e1a <DAP_ProcessCommand+0xcbe>
20000df2:	4653      	mov	r3, sl
20000df4:	8a1d      	ldrh	r5, [r3, #16]
20000df6:	e007      	b.n	20000e08 <DAP_ProcessCommand+0xcac>
20000df8:	2d00      	cmp	r5, #0
20000dfa:	d100      	bne.n	20000dfe <DAP_ProcessCommand+0xca2>
20000dfc:	e0a2      	b.n	20000f44 <DAP_ProcessCommand+0xde8>
20000dfe:	7823      	ldrb	r3, [r4, #0]
20000e00:	3d01      	subs	r5, #1
20000e02:	2b00      	cmp	r3, #0
20000e04:	d000      	beq.n	20000e08 <DAP_ProcessCommand+0xcac>
20000e06:	e09d      	b.n	20000f44 <DAP_ProcessCommand+0xde8>
20000e08:	2100      	movs	r1, #0
20000e0a:	0030      	movs	r0, r6
20000e0c:	f002 f926 	bl	2000305c <SWD_Transfer>
20000e10:	2802      	cmp	r0, #2
20000e12:	d0f1      	beq.n	20000df8 <DAP_ProcessCommand+0xc9c>
20000e14:	2801      	cmp	r0, #1
20000e16:	d000      	beq.n	20000e1a <DAP_ProcessCommand+0xcbe>
20000e18:	e094      	b.n	20000f44 <DAP_ProcessCommand+0xde8>
20000e1a:	4653      	mov	r3, sl
20000e1c:	8a1d      	ldrh	r5, [r3, #16]
20000e1e:	e005      	b.n	20000e2c <DAP_ProcessCommand+0xcd0>
20000e20:	2d00      	cmp	r5, #0
20000e22:	d048      	beq.n	20000eb6 <DAP_ProcessCommand+0xd5a>
20000e24:	7823      	ldrb	r3, [r4, #0]
20000e26:	3d01      	subs	r5, #1
20000e28:	2b00      	cmp	r3, #0
20000e2a:	d144      	bne.n	20000eb6 <DAP_ProcessCommand+0xd5a>
20000e2c:	0030      	movs	r0, r6
20000e2e:	a90d      	add	r1, sp, #52	; 0x34
20000e30:	f002 f914 	bl	2000305c <SWD_Transfer>
20000e34:	0002      	movs	r2, r0
20000e36:	2802      	cmp	r0, #2
20000e38:	d0f2      	beq.n	20000e20 <DAP_ProcessCommand+0xcc4>
20000e3a:	2801      	cmp	r0, #1
20000e3c:	d13b      	bne.n	20000eb6 <DAP_ProcessCommand+0xd5a>
20000e3e:	4652      	mov	r2, sl
20000e40:	9b0d      	ldr	r3, [sp, #52]	; 0x34
20000e42:	6952      	ldr	r2, [r2, #20]
20000e44:	4013      	ands	r3, r2
20000e46:	459b      	cmp	fp, r3
20000e48:	d100      	bne.n	20000e4c <DAP_ProcessCommand+0xcf0>
20000e4a:	e10d      	b.n	20001068 <DAP_ProcessCommand+0xf0c>
20000e4c:	2f00      	cmp	r7, #0
20000e4e:	d100      	bne.n	20000e52 <DAP_ProcessCommand+0xcf6>
20000e50:	e10e      	b.n	20001070 <DAP_ProcessCommand+0xf14>
20000e52:	7823      	ldrb	r3, [r4, #0]
20000e54:	3f01      	subs	r7, #1
20000e56:	2b00      	cmp	r3, #0
20000e58:	d0df      	beq.n	20000e1a <DAP_ProcessCommand+0xcbe>
20000e5a:	4647      	mov	r7, r8
20000e5c:	3010      	adds	r0, #16
20000e5e:	9b04      	ldr	r3, [sp, #16]
20000e60:	2202      	movs	r2, #2
20000e62:	4698      	mov	r8, r3
20000e64:	2110      	movs	r1, #16
20000e66:	4645      	mov	r5, r8
20000e68:	9b03      	ldr	r3, [sp, #12]
20000e6a:	e006      	b.n	20000e7a <DAP_ProcessCommand+0xd1e>
20000e6c:	4231      	tst	r1, r6
20000e6e:	d107      	bne.n	20000e80 <DAP_ProcessCommand+0xd24>
20000e70:	3501      	adds	r5, #1
20000e72:	3b01      	subs	r3, #1
20000e74:	2b00      	cmp	r3, #0
20000e76:	d100      	bne.n	20000e7a <DAP_ProcessCommand+0xd1e>
20000e78:	e258      	b.n	2000132c <DAP_ProcessCommand+0x11d0>
20000e7a:	782e      	ldrb	r6, [r5, #0]
20000e7c:	4232      	tst	r2, r6
20000e7e:	d1f5      	bne.n	20000e6c <DAP_ProcessCommand+0xd10>
20000e80:	3505      	adds	r5, #5
20000e82:	e7f6      	b.n	20000e72 <DAP_ProcessCommand+0xd16>
20000e84:	2d00      	cmp	r5, #0
20000e86:	d05d      	beq.n	20000f44 <DAP_ProcessCommand+0xde8>
20000e88:	7823      	ldrb	r3, [r4, #0]
20000e8a:	3d01      	subs	r5, #1
20000e8c:	2b00      	cmp	r3, #0
20000e8e:	d159      	bne.n	20000f44 <DAP_ProcessCommand+0xde8>
20000e90:	0030      	movs	r0, r6
20000e92:	a90d      	add	r1, sp, #52	; 0x34
20000e94:	f002 f8e2 	bl	2000305c <SWD_Transfer>
20000e98:	2802      	cmp	r0, #2
20000e9a:	d0f3      	beq.n	20000e84 <DAP_ProcessCommand+0xd28>
20000e9c:	e77e      	b.n	20000d9c <DAP_ProcessCommand+0xc40>
20000e9e:	4653      	mov	r3, sl
20000ea0:	689b      	ldr	r3, [r3, #8]
20000ea2:	0a1a      	lsrs	r2, r3, #8
20000ea4:	710b      	strb	r3, [r1, #4]
20000ea6:	714a      	strb	r2, [r1, #5]
20000ea8:	0c1a      	lsrs	r2, r3, #16
20000eaa:	0e1b      	lsrs	r3, r3, #24
20000eac:	718a      	strb	r2, [r1, #6]
20000eae:	71cb      	strb	r3, [r1, #7]
20000eb0:	3108      	adds	r1, #8
20000eb2:	9105      	str	r1, [sp, #20]
20000eb4:	e787      	b.n	20000dc6 <DAP_ProcessCommand+0xc6a>
20000eb6:	4651      	mov	r1, sl
20000eb8:	9b0d      	ldr	r3, [sp, #52]	; 0x34
20000eba:	6949      	ldr	r1, [r1, #20]
20000ebc:	4647      	mov	r7, r8
20000ebe:	400b      	ands	r3, r1
20000ec0:	459b      	cmp	fp, r3
20000ec2:	d0cc      	beq.n	20000e5e <DAP_ProcessCommand+0xd02>
20000ec4:	2010      	movs	r0, #16
20000ec6:	4310      	orrs	r0, r2
20000ec8:	b2c0      	uxtb	r0, r0
20000eca:	e7c8      	b.n	20000e5e <DAP_ProcessCommand+0xd02>
20000ecc:	4643      	mov	r3, r8
20000ece:	2b00      	cmp	r3, #0
20000ed0:	d000      	beq.n	20000ed4 <DAP_ProcessCommand+0xd78>
20000ed2:	e08b      	b.n	20000fec <DAP_ProcessCommand+0xe90>
20000ed4:	465a      	mov	r2, fp
20000ed6:	465b      	mov	r3, fp
20000ed8:	7851      	ldrb	r1, [r2, #1]
20000eda:	781b      	ldrb	r3, [r3, #0]
20000edc:	0209      	lsls	r1, r1, #8
20000ede:	4319      	orrs	r1, r3
20000ee0:	465b      	mov	r3, fp
20000ee2:	7892      	ldrb	r2, [r2, #2]
20000ee4:	78db      	ldrb	r3, [r3, #3]
20000ee6:	0412      	lsls	r2, r2, #16
20000ee8:	4311      	orrs	r1, r2
20000eea:	2220      	movs	r2, #32
20000eec:	061b      	lsls	r3, r3, #24
20000eee:	430b      	orrs	r3, r1
20000ef0:	930d      	str	r3, [sp, #52]	; 0x34
20000ef2:	3705      	adds	r7, #5
20000ef4:	4232      	tst	r2, r6
20000ef6:	d100      	bne.n	20000efa <DAP_ProcessCommand+0xd9e>
20000ef8:	e095      	b.n	20001026 <DAP_ProcessCommand+0xeca>
20000efa:	4652      	mov	r2, sl
20000efc:	6153      	str	r3, [r2, #20]
20000efe:	2300      	movs	r3, #0
20000f00:	2001      	movs	r0, #1
20000f02:	4698      	mov	r8, r3
20000f04:	9b02      	ldr	r3, [sp, #8]
20000f06:	3301      	adds	r3, #1
20000f08:	9302      	str	r3, [sp, #8]
20000f0a:	7823      	ldrb	r3, [r4, #0]
20000f0c:	2b00      	cmp	r3, #0
20000f0e:	d000      	beq.n	20000f12 <DAP_ProcessCommand+0xdb6>
20000f10:	e294      	b.n	2000143c <DAP_ProcessCommand+0x12e0>
20000f12:	9b03      	ldr	r3, [sp, #12]
20000f14:	3b01      	subs	r3, #1
20000f16:	9303      	str	r3, [sp, #12]
20000f18:	2b00      	cmp	r3, #0
20000f1a:	d000      	beq.n	20000f1e <DAP_ProcessCommand+0xdc2>
20000f1c:	e71c      	b.n	20000d58 <DAP_ProcessCommand+0xbfc>
20000f1e:	003b      	movs	r3, r7
20000f20:	4647      	mov	r7, r8
20000f22:	4698      	mov	r8, r3
20000f24:	2801      	cmp	r0, #1
20000f26:	d100      	bne.n	20000f2a <DAP_ProcessCommand+0xdce>
20000f28:	e264      	b.n	200013f4 <DAP_ProcessCommand+0x1298>
20000f2a:	b2c3      	uxtb	r3, r0
20000f2c:	930a      	str	r3, [sp, #40]	; 0x28
20000f2e:	464b      	mov	r3, r9
20000f30:	9a02      	ldr	r2, [sp, #8]
20000f32:	705a      	strb	r2, [r3, #1]
20000f34:	9a0a      	ldr	r2, [sp, #40]	; 0x28
20000f36:	709a      	strb	r2, [r3, #2]
20000f38:	4643      	mov	r3, r8
20000f3a:	9a0b      	ldr	r2, [sp, #44]	; 0x2c
20000f3c:	1a9c      	subs	r4, r3, r2
20000f3e:	0424      	lsls	r4, r4, #16
20000f40:	9b05      	ldr	r3, [sp, #20]
20000f42:	e5a3      	b.n	20000a8c <DAP_ProcessCommand+0x930>
20000f44:	4647      	mov	r7, r8
20000f46:	e78a      	b.n	20000e5e <DAP_ProcessCommand+0xd02>
20000f48:	4653      	mov	r3, sl
20000f4a:	8a1d      	ldrh	r5, [r3, #16]
20000f4c:	07f3      	lsls	r3, r6, #31
20000f4e:	d50c      	bpl.n	20000f6a <DAP_ProcessCommand+0xe0e>
20000f50:	4643      	mov	r3, r8
20000f52:	2b00      	cmp	r3, #0
20000f54:	d035      	beq.n	20000fc2 <DAP_ProcessCommand+0xe66>
20000f56:	2300      	movs	r3, #0
20000f58:	465f      	mov	r7, fp
20000f5a:	9306      	str	r3, [sp, #24]
20000f5c:	e7d2      	b.n	20000f04 <DAP_ProcessCommand+0xda8>
20000f5e:	2d00      	cmp	r5, #0
20000f60:	d0f0      	beq.n	20000f44 <DAP_ProcessCommand+0xde8>
20000f62:	7823      	ldrb	r3, [r4, #0]
20000f64:	3d01      	subs	r5, #1
20000f66:	2b00      	cmp	r3, #0
20000f68:	d1ec      	bne.n	20000f44 <DAP_ProcessCommand+0xde8>
20000f6a:	0030      	movs	r0, r6
20000f6c:	a90d      	add	r1, sp, #52	; 0x34
20000f6e:	f002 f875 	bl	2000305c <SWD_Transfer>
20000f72:	2802      	cmp	r0, #2
20000f74:	d0f3      	beq.n	20000f5e <DAP_ProcessCommand+0xe02>
20000f76:	2801      	cmp	r0, #1
20000f78:	d1e4      	bne.n	20000f44 <DAP_ProcessCommand+0xde8>
20000f7a:	b276      	sxtb	r6, r6
20000f7c:	2e00      	cmp	r6, #0
20000f7e:	da0b      	bge.n	20000f98 <DAP_ProcessCommand+0xe3c>
20000f80:	4653      	mov	r3, sl
20000f82:	689b      	ldr	r3, [r3, #8]
20000f84:	9905      	ldr	r1, [sp, #20]
20000f86:	0a1a      	lsrs	r2, r3, #8
20000f88:	700b      	strb	r3, [r1, #0]
20000f8a:	704a      	strb	r2, [r1, #1]
20000f8c:	0c1a      	lsrs	r2, r3, #16
20000f8e:	0e1b      	lsrs	r3, r3, #24
20000f90:	70cb      	strb	r3, [r1, #3]
20000f92:	1d0b      	adds	r3, r1, #4
20000f94:	708a      	strb	r2, [r1, #2]
20000f96:	9305      	str	r3, [sp, #20]
20000f98:	9b0d      	ldr	r3, [sp, #52]	; 0x34
20000f9a:	9905      	ldr	r1, [sp, #20]
20000f9c:	0a1a      	lsrs	r2, r3, #8
20000f9e:	700b      	strb	r3, [r1, #0]
20000fa0:	704a      	strb	r2, [r1, #1]
20000fa2:	0c1a      	lsrs	r2, r3, #16
20000fa4:	0e1b      	lsrs	r3, r3, #24
20000fa6:	70cb      	strb	r3, [r1, #3]
20000fa8:	1d0b      	adds	r3, r1, #4
20000faa:	9305      	str	r3, [sp, #20]
20000fac:	2300      	movs	r3, #0
20000fae:	465f      	mov	r7, fp
20000fb0:	708a      	strb	r2, [r1, #2]
20000fb2:	9306      	str	r3, [sp, #24]
20000fb4:	e7a6      	b.n	20000f04 <DAP_ProcessCommand+0xda8>
20000fb6:	2d00      	cmp	r5, #0
20000fb8:	d016      	beq.n	20000fe8 <DAP_ProcessCommand+0xe8c>
20000fba:	7823      	ldrb	r3, [r4, #0]
20000fbc:	3d01      	subs	r5, #1
20000fbe:	2b00      	cmp	r3, #0
20000fc0:	d1c0      	bne.n	20000f44 <DAP_ProcessCommand+0xde8>
20000fc2:	2100      	movs	r1, #0
20000fc4:	0030      	movs	r0, r6
20000fc6:	f002 f849 	bl	2000305c <SWD_Transfer>
20000fca:	2802      	cmp	r0, #2
20000fcc:	d0f3      	beq.n	20000fb6 <DAP_ProcessCommand+0xe5a>
20000fce:	2801      	cmp	r0, #1
20000fd0:	d1b8      	bne.n	20000f44 <DAP_ProcessCommand+0xde8>
20000fd2:	b276      	sxtb	r6, r6
20000fd4:	2e00      	cmp	r6, #0
20000fd6:	da00      	bge.n	20000fda <DAP_ProcessCommand+0xe7e>
20000fd8:	e234      	b.n	20001444 <DAP_ProcessCommand+0x12e8>
20000fda:	2300      	movs	r3, #0
20000fdc:	9306      	str	r3, [sp, #24]
20000fde:	3301      	adds	r3, #1
20000fe0:	4698      	mov	r8, r3
20000fe2:	465f      	mov	r7, fp
20000fe4:	e78e      	b.n	20000f04 <DAP_ProcessCommand+0xda8>
20000fe6:	9704      	str	r7, [sp, #16]
20000fe8:	2700      	movs	r7, #0
20000fea:	e738      	b.n	20000e5e <DAP_ProcessCommand+0xd02>
20000fec:	4653      	mov	r3, sl
20000fee:	8a1d      	ldrh	r5, [r3, #16]
20000ff0:	e005      	b.n	20000ffe <DAP_ProcessCommand+0xea2>
20000ff2:	2d00      	cmp	r5, #0
20000ff4:	d0a6      	beq.n	20000f44 <DAP_ProcessCommand+0xde8>
20000ff6:	7823      	ldrb	r3, [r4, #0]
20000ff8:	3d01      	subs	r5, #1
20000ffa:	2b00      	cmp	r3, #0
20000ffc:	d1a2      	bne.n	20000f44 <DAP_ProcessCommand+0xde8>
20000ffe:	200e      	movs	r0, #14
20001000:	a90d      	add	r1, sp, #52	; 0x34
20001002:	f002 f82b 	bl	2000305c <SWD_Transfer>
20001006:	2802      	cmp	r0, #2
20001008:	d0f3      	beq.n	20000ff2 <DAP_ProcessCommand+0xe96>
2000100a:	2801      	cmp	r0, #1
2000100c:	d19a      	bne.n	20000f44 <DAP_ProcessCommand+0xde8>
2000100e:	9b0d      	ldr	r3, [sp, #52]	; 0x34
20001010:	9905      	ldr	r1, [sp, #20]
20001012:	0a1a      	lsrs	r2, r3, #8
20001014:	700b      	strb	r3, [r1, #0]
20001016:	704a      	strb	r2, [r1, #1]
20001018:	0c1a      	lsrs	r2, r3, #16
2000101a:	0e1b      	lsrs	r3, r3, #24
2000101c:	70cb      	strb	r3, [r1, #3]
2000101e:	1d0b      	adds	r3, r1, #4
20001020:	708a      	strb	r2, [r1, #2]
20001022:	9305      	str	r3, [sp, #20]
20001024:	e756      	b.n	20000ed4 <DAP_ProcessCommand+0xd78>
20001026:	4653      	mov	r3, sl
20001028:	8a1b      	ldrh	r3, [r3, #16]
2000102a:	001d      	movs	r5, r3
2000102c:	e00b      	b.n	20001046 <DAP_ProcessCommand+0xeea>
2000102e:	46c0      	nop			; (mov r8, r8)
20001030:	00060002 	.word	0x00060002
20001034:	200218c4 	.word	0x200218c4
20001038:	2d00      	cmp	r5, #0
2000103a:	d100      	bne.n	2000103e <DAP_ProcessCommand+0xee2>
2000103c:	e15d      	b.n	200012fa <DAP_ProcessCommand+0x119e>
2000103e:	7823      	ldrb	r3, [r4, #0]
20001040:	3d01      	subs	r5, #1
20001042:	2b00      	cmp	r3, #0
20001044:	d1cf      	bne.n	20000fe6 <DAP_ProcessCommand+0xe8a>
20001046:	0030      	movs	r0, r6
20001048:	a90d      	add	r1, sp, #52	; 0x34
2000104a:	f002 f807 	bl	2000305c <SWD_Transfer>
2000104e:	2802      	cmp	r0, #2
20001050:	d0f2      	beq.n	20001038 <DAP_ProcessCommand+0xedc>
20001052:	2801      	cmp	r0, #1
20001054:	d1c7      	bne.n	20000fe6 <DAP_ProcessCommand+0xe8a>
20001056:	b276      	sxtb	r6, r6
20001058:	2e00      	cmp	r6, #0
2000105a:	da00      	bge.n	2000105e <DAP_ProcessCommand+0xf02>
2000105c:	e0fb      	b.n	20001256 <DAP_ProcessCommand+0x10fa>
2000105e:	2301      	movs	r3, #1
20001060:	9306      	str	r3, [sp, #24]
20001062:	2300      	movs	r3, #0
20001064:	4698      	mov	r8, r3
20001066:	e74d      	b.n	20000f04 <DAP_ProcessCommand+0xda8>
20001068:	2300      	movs	r3, #0
2000106a:	9f04      	ldr	r7, [sp, #16]
2000106c:	9306      	str	r3, [sp, #24]
2000106e:	e749      	b.n	20000f04 <DAP_ProcessCommand+0xda8>
20001070:	4647      	mov	r7, r8
20001072:	2011      	movs	r0, #17
20001074:	e6f3      	b.n	20000e5e <DAP_ProcessCommand+0xd02>
20001076:	464b      	mov	r3, r9
20001078:	3304      	adds	r3, #4
2000107a:	9303      	str	r3, [sp, #12]
2000107c:	001e      	movs	r6, r3
2000107e:	2300      	movs	r3, #0
20001080:	4652      	mov	r2, sl
20001082:	4cd6      	ldr	r4, [pc, #856]	; (200013dc <DAP_ProcessCommand+0x1280>)
20001084:	7023      	strb	r3, [r4, #0]
20001086:	7843      	ldrb	r3, [r0, #1]
20001088:	76d3      	strb	r3, [r2, #27]
2000108a:	7e92      	ldrb	r2, [r2, #26]
2000108c:	429a      	cmp	r2, r3
2000108e:	d800      	bhi.n	20001092 <DAP_ProcessCommand+0xf36>
20001090:	e13c      	b.n	2000130c <DAP_ProcessCommand+0x11b0>
20001092:	78c3      	ldrb	r3, [r0, #3]
20001094:	7882      	ldrb	r2, [r0, #2]
20001096:	021b      	lsls	r3, r3, #8
20001098:	4313      	orrs	r3, r2
2000109a:	9304      	str	r3, [sp, #16]
2000109c:	d100      	bne.n	200010a0 <DAP_ProcessCommand+0xf44>
2000109e:	e135      	b.n	2000130c <DAP_ProcessCommand+0x11b0>
200010a0:	7903      	ldrb	r3, [r0, #4]
200010a2:	4698      	mov	r8, r3
200010a4:	2301      	movs	r3, #1
200010a6:	4642      	mov	r2, r8
200010a8:	4013      	ands	r3, r2
200010aa:	330a      	adds	r3, #10
200010ac:	0018      	movs	r0, r3
200010ae:	9306      	str	r3, [sp, #24]
200010b0:	f001 f80c 	bl	200020cc <JTAG_IR>
200010b4:	465b      	mov	r3, fp
200010b6:	4642      	mov	r2, r8
200010b8:	4213      	tst	r3, r2
200010ba:	d000      	beq.n	200010be <DAP_ProcessCommand+0xf62>
200010bc:	e2d6      	b.n	2000166c <DAP_ProcessCommand+0x1510>
200010be:	1d6b      	adds	r3, r5, #5
200010c0:	9305      	str	r3, [sp, #20]
200010c2:	2300      	movs	r3, #0
200010c4:	9302      	str	r3, [sp, #8]
200010c6:	0023      	movs	r3, r4
200010c8:	4644      	mov	r4, r8
200010ca:	46a8      	mov	r8, r5
200010cc:	001d      	movs	r5, r3
200010ce:	af0d      	add	r7, sp, #52	; 0x34
200010d0:	9905      	ldr	r1, [sp, #20]
200010d2:	784a      	ldrb	r2, [r1, #1]
200010d4:	780b      	ldrb	r3, [r1, #0]
200010d6:	0212      	lsls	r2, r2, #8
200010d8:	431a      	orrs	r2, r3
200010da:	788b      	ldrb	r3, [r1, #2]
200010dc:	041b      	lsls	r3, r3, #16
200010de:	431a      	orrs	r2, r3
200010e0:	78cb      	ldrb	r3, [r1, #3]
200010e2:	061b      	lsls	r3, r3, #24
200010e4:	4313      	orrs	r3, r2
200010e6:	930d      	str	r3, [sp, #52]	; 0x34
200010e8:	1d0b      	adds	r3, r1, #4
200010ea:	9305      	str	r3, [sp, #20]
200010ec:	4653      	mov	r3, sl
200010ee:	8a1e      	ldrh	r6, [r3, #16]
200010f0:	e005      	b.n	200010fe <DAP_ProcessCommand+0xfa2>
200010f2:	2e00      	cmp	r6, #0
200010f4:	d03b      	beq.n	2000116e <DAP_ProcessCommand+0x1012>
200010f6:	782b      	ldrb	r3, [r5, #0]
200010f8:	3e01      	subs	r6, #1
200010fa:	2b00      	cmp	r3, #0
200010fc:	d137      	bne.n	2000116e <DAP_ProcessCommand+0x1012>
200010fe:	0039      	movs	r1, r7
20001100:	0020      	movs	r0, r4
20001102:	f001 f921 	bl	20002348 <JTAG_Transfer>
20001106:	2802      	cmp	r0, #2
20001108:	d0f3      	beq.n	200010f2 <DAP_ProcessCommand+0xf96>
2000110a:	2801      	cmp	r0, #1
2000110c:	d001      	beq.n	20001112 <DAP_ProcessCommand+0xfb6>
2000110e:	f000 fc2e 	bl	2000196e <DAP_ProcessCommand+0x1812>
20001112:	9b02      	ldr	r3, [sp, #8]
20001114:	3301      	adds	r3, #1
20001116:	9302      	str	r3, [sp, #8]
20001118:	9b04      	ldr	r3, [sp, #16]
2000111a:	3b01      	subs	r3, #1
2000111c:	9304      	str	r3, [sp, #16]
2000111e:	2b00      	cmp	r3, #0
20001120:	d1d6      	bne.n	200010d0 <DAP_ProcessCommand+0xf74>
20001122:	9b06      	ldr	r3, [sp, #24]
20001124:	002c      	movs	r4, r5
20001126:	4645      	mov	r5, r8
20001128:	2b0a      	cmp	r3, #10
2000112a:	d002      	beq.n	20001132 <DAP_ProcessCommand+0xfd6>
2000112c:	200a      	movs	r0, #10
2000112e:	f000 ffcd 	bl	200020cc <JTAG_IR>
20001132:	4653      	mov	r3, sl
20001134:	8a1e      	ldrh	r6, [r3, #16]
20001136:	e005      	b.n	20001144 <DAP_ProcessCommand+0xfe8>
20001138:	2e00      	cmp	r6, #0
2000113a:	d009      	beq.n	20001150 <DAP_ProcessCommand+0xff4>
2000113c:	7823      	ldrb	r3, [r4, #0]
2000113e:	3e01      	subs	r6, #1
20001140:	2b00      	cmp	r3, #0
20001142:	d105      	bne.n	20001150 <DAP_ProcessCommand+0xff4>
20001144:	2100      	movs	r1, #0
20001146:	200e      	movs	r0, #14
20001148:	f001 f8fe 	bl	20002348 <JTAG_Transfer>
2000114c:	2802      	cmp	r0, #2
2000114e:	d0f3      	beq.n	20001138 <DAP_ProcessCommand+0xfdc>
20001150:	4683      	mov	fp, r0
20001152:	9b02      	ldr	r3, [sp, #8]
20001154:	b2da      	uxtb	r2, r3
20001156:	0a1b      	lsrs	r3, r3, #8
20001158:	b2db      	uxtb	r3, r3
2000115a:	4649      	mov	r1, r9
2000115c:	704a      	strb	r2, [r1, #1]
2000115e:	465a      	mov	r2, fp
20001160:	708b      	strb	r3, [r1, #2]
20001162:	70ca      	strb	r2, [r1, #3]
20001164:	9b03      	ldr	r3, [sp, #12]
20001166:	9a01      	ldr	r2, [sp, #4]
20001168:	1a98      	subs	r0, r3, r2
2000116a:	f7ff f93a 	bl	200003e2 <DAP_ProcessCommand+0x286>
2000116e:	9b02      	ldr	r3, [sp, #8]
20001170:	4645      	mov	r5, r8
20001172:	b2da      	uxtb	r2, r3
20001174:	0a1b      	lsrs	r3, r3, #8
20001176:	b2db      	uxtb	r3, r3
20001178:	e7ef      	b.n	2000115a <DAP_ProcessCommand+0xffe>
2000117a:	464b      	mov	r3, r9
2000117c:	3304      	adds	r3, #4
2000117e:	001e      	movs	r6, r3
20001180:	9304      	str	r3, [sp, #16]
20001182:	2300      	movs	r3, #0
20001184:	4c95      	ldr	r4, [pc, #596]	; (200013dc <DAP_ProcessCommand+0x1280>)
20001186:	7882      	ldrb	r2, [r0, #2]
20001188:	7023      	strb	r3, [r4, #0]
2000118a:	78c3      	ldrb	r3, [r0, #3]
2000118c:	021b      	lsls	r3, r3, #8
2000118e:	4313      	orrs	r3, r2
20001190:	9303      	str	r3, [sp, #12]
20001192:	d100      	bne.n	20001196 <DAP_ProcessCommand+0x103a>
20001194:	e1d7      	b.n	20001546 <DAP_ProcessCommand+0x13ea>
20001196:	7903      	ldrb	r3, [r0, #4]
20001198:	4698      	mov	r8, r3
2000119a:	079b      	lsls	r3, r3, #30
2000119c:	d500      	bpl.n	200011a0 <DAP_ProcessCommand+0x1044>
2000119e:	e16a      	b.n	20001476 <DAP_ProcessCommand+0x131a>
200011a0:	2200      	movs	r2, #0
200011a2:	1d43      	adds	r3, r0, #5
200011a4:	46cb      	mov	fp, r9
200011a6:	0025      	movs	r5, r4
200011a8:	4681      	mov	r9, r0
200011aa:	4644      	mov	r4, r8
200011ac:	4698      	mov	r8, r3
200011ae:	9202      	str	r2, [sp, #8]
200011b0:	af0d      	add	r7, sp, #52	; 0x34
200011b2:	4642      	mov	r2, r8
200011b4:	4643      	mov	r3, r8
200011b6:	7852      	ldrb	r2, [r2, #1]
200011b8:	781b      	ldrb	r3, [r3, #0]
200011ba:	0212      	lsls	r2, r2, #8
200011bc:	431a      	orrs	r2, r3
200011be:	4643      	mov	r3, r8
200011c0:	7899      	ldrb	r1, [r3, #2]
200011c2:	78db      	ldrb	r3, [r3, #3]
200011c4:	0409      	lsls	r1, r1, #16
200011c6:	430a      	orrs	r2, r1
200011c8:	061b      	lsls	r3, r3, #24
200011ca:	4313      	orrs	r3, r2
200011cc:	930d      	str	r3, [sp, #52]	; 0x34
200011ce:	2304      	movs	r3, #4
200011d0:	469c      	mov	ip, r3
200011d2:	4653      	mov	r3, sl
200011d4:	44e0      	add	r8, ip
200011d6:	8a1e      	ldrh	r6, [r3, #16]
200011d8:	e005      	b.n	200011e6 <DAP_ProcessCommand+0x108a>
200011da:	2e00      	cmp	r6, #0
200011dc:	d034      	beq.n	20001248 <DAP_ProcessCommand+0x10ec>
200011de:	782b      	ldrb	r3, [r5, #0]
200011e0:	3e01      	subs	r6, #1
200011e2:	2b00      	cmp	r3, #0
200011e4:	d130      	bne.n	20001248 <DAP_ProcessCommand+0x10ec>
200011e6:	0039      	movs	r1, r7
200011e8:	0020      	movs	r0, r4
200011ea:	f001 ff37 	bl	2000305c <SWD_Transfer>
200011ee:	2802      	cmp	r0, #2
200011f0:	d0f3      	beq.n	200011da <DAP_ProcessCommand+0x107e>
200011f2:	2801      	cmp	r0, #1
200011f4:	d128      	bne.n	20001248 <DAP_ProcessCommand+0x10ec>
200011f6:	9b02      	ldr	r3, [sp, #8]
200011f8:	3301      	adds	r3, #1
200011fa:	9302      	str	r3, [sp, #8]
200011fc:	9b03      	ldr	r3, [sp, #12]
200011fe:	3b01      	subs	r3, #1
20001200:	9303      	str	r3, [sp, #12]
20001202:	2b00      	cmp	r3, #0
20001204:	d1d5      	bne.n	200011b2 <DAP_ProcessCommand+0x1056>
20001206:	4653      	mov	r3, sl
20001208:	002c      	movs	r4, r5
2000120a:	8a1e      	ldrh	r6, [r3, #16]
2000120c:	464d      	mov	r5, r9
2000120e:	46d9      	mov	r9, fp
20001210:	e005      	b.n	2000121e <DAP_ProcessCommand+0x10c2>
20001212:	2e00      	cmp	r6, #0
20001214:	d009      	beq.n	2000122a <DAP_ProcessCommand+0x10ce>
20001216:	7823      	ldrb	r3, [r4, #0]
20001218:	3e01      	subs	r6, #1
2000121a:	2b00      	cmp	r3, #0
2000121c:	d105      	bne.n	2000122a <DAP_ProcessCommand+0x10ce>
2000121e:	2100      	movs	r1, #0
20001220:	200e      	movs	r0, #14
20001222:	f001 ff1b 	bl	2000305c <SWD_Transfer>
20001226:	2802      	cmp	r0, #2
20001228:	d0f3      	beq.n	20001212 <DAP_ProcessCommand+0x10b6>
2000122a:	4683      	mov	fp, r0
2000122c:	9b02      	ldr	r3, [sp, #8]
2000122e:	b2da      	uxtb	r2, r3
20001230:	0a1b      	lsrs	r3, r3, #8
20001232:	b2db      	uxtb	r3, r3
20001234:	4649      	mov	r1, r9
20001236:	704a      	strb	r2, [r1, #1]
20001238:	465a      	mov	r2, fp
2000123a:	708b      	strb	r3, [r1, #2]
2000123c:	70ca      	strb	r2, [r1, #3]
2000123e:	9b04      	ldr	r3, [sp, #16]
20001240:	9a01      	ldr	r2, [sp, #4]
20001242:	1a98      	subs	r0, r3, r2
20001244:	f7ff f8cd 	bl	200003e2 <DAP_ProcessCommand+0x286>
20001248:	464d      	mov	r5, r9
2000124a:	46d9      	mov	r9, fp
2000124c:	e7ed      	b.n	2000122a <DAP_ProcessCommand+0x10ce>
2000124e:	9a02      	ldr	r2, [sp, #8]
20001250:	0003      	movs	r3, r0
20001252:	4690      	mov	r8, r2
20001254:	e4c8      	b.n	20000be8 <DAP_ProcessCommand+0xa8c>
20001256:	4653      	mov	r3, sl
20001258:	689b      	ldr	r3, [r3, #8]
2000125a:	9905      	ldr	r1, [sp, #20]
2000125c:	0a1a      	lsrs	r2, r3, #8
2000125e:	700b      	strb	r3, [r1, #0]
20001260:	704a      	strb	r2, [r1, #1]
20001262:	0c1a      	lsrs	r2, r3, #16
20001264:	0e1b      	lsrs	r3, r3, #24
20001266:	70cb      	strb	r3, [r1, #3]
20001268:	2301      	movs	r3, #1
2000126a:	9306      	str	r3, [sp, #24]
2000126c:	1d0b      	adds	r3, r1, #4
2000126e:	9305      	str	r3, [sp, #20]
20001270:	2300      	movs	r3, #0
20001272:	708a      	strb	r2, [r1, #2]
20001274:	4698      	mov	r8, r3
20001276:	e645      	b.n	20000f04 <DAP_ProcessCommand+0xda8>
20001278:	4b59      	ldr	r3, [pc, #356]	; (200013e0 <DAP_ProcessCommand+0x1284>)
2000127a:	2201      	movs	r2, #1
2000127c:	701c      	strb	r4, [r3, #0]
2000127e:	23d0      	movs	r3, #208	; 0xd0
20001280:	061b      	lsls	r3, r3, #24
20001282:	625a      	str	r2, [r3, #36]	; 0x24
20001284:	615a      	str	r2, [r3, #20]
20001286:	3203      	adds	r2, #3
20001288:	625c      	str	r4, [r3, #36]	; 0x24
2000128a:	615c      	str	r4, [r3, #20]
2000128c:	625a      	str	r2, [r3, #36]	; 0x24
2000128e:	615a      	str	r2, [r3, #20]
20001290:	321c      	adds	r2, #28
20001292:	625a      	str	r2, [r3, #36]	; 0x24
20001294:	615a      	str	r2, [r3, #20]
20001296:	3260      	adds	r2, #96	; 0x60
20001298:	625a      	str	r2, [r3, #36]	; 0x24
2000129a:	615a      	str	r2, [r3, #20]
2000129c:	3a78      	subs	r2, #120	; 0x78
2000129e:	629a      	str	r2, [r3, #40]	; 0x28
200012a0:	f7ff f912 	bl	200004c8 <DAP_ProcessCommand+0x36c>
200012a4:	2e00      	cmp	r6, #0
200012a6:	d000      	beq.n	200012aa <DAP_ProcessCommand+0x114e>
200012a8:	e179      	b.n	2000159e <DAP_ProcessCommand+0x1442>
200012aa:	9d01      	ldr	r5, [sp, #4]
200012ac:	2d00      	cmp	r5, #0
200012ae:	d000      	beq.n	200012b2 <DAP_ProcessCommand+0x1156>
200012b0:	e150      	b.n	20001554 <DAP_ProcessCommand+0x13f8>
200012b2:	26d0      	movs	r6, #208	; 0xd0
200012b4:	0636      	lsls	r6, r6, #24
200012b6:	2800      	cmp	r0, #0
200012b8:	db00      	blt.n	200012bc <DAP_ProcessCommand+0x1160>
200012ba:	e2f3      	b.n	200018a4 <DAP_ProcessCommand+0x1748>
200012bc:	3501      	adds	r5, #1
200012be:	6870      	ldr	r0, [r6, #4]
200012c0:	4028      	ands	r0, r5
200012c2:	4282      	cmp	r2, r0
200012c4:	d10d      	bne.n	200012e2 <DAP_ProcessCommand+0x1186>
200012c6:	2f00      	cmp	r7, #0
200012c8:	d004      	beq.n	200012d4 <DAP_ProcessCommand+0x1178>
200012ca:	6870      	ldr	r0, [r6, #4]
200012cc:	0880      	lsrs	r0, r0, #2
200012ce:	4028      	ands	r0, r5
200012d0:	4560      	cmp	r0, ip
200012d2:	d106      	bne.n	200012e2 <DAP_ProcessCommand+0x1186>
200012d4:	6870      	ldr	r0, [r6, #4]
200012d6:	09c0      	lsrs	r0, r0, #7
200012d8:	4028      	ands	r0, r5
200012da:	4580      	cmp	r8, r0
200012dc:	d101      	bne.n	200012e2 <DAP_ProcessCommand+0x1186>
200012de:	f7ff fa2f 	bl	20000740 <DAP_ProcessCommand+0x5e4>
200012e2:	6a88      	ldr	r0, [r1, #40]	; 0x28
200012e4:	1b00      	subs	r0, r0, r4
200012e6:	4283      	cmp	r3, r0
200012e8:	d8e9      	bhi.n	200012be <DAP_ProcessCommand+0x1162>
200012ea:	f7ff fa29 	bl	20000740 <DAP_ProcessCommand+0x5e4>
200012ee:	61a0      	str	r0, [r4, #24]
200012f0:	f7ff f9c3 	bl	2000067a <DAP_ProcessCommand+0x51e>
200012f4:	61a0      	str	r0, [r4, #24]
200012f6:	f7ff f9cd 	bl	20000694 <DAP_ProcessCommand+0x538>
200012fa:	46b8      	mov	r8, r7
200012fc:	4643      	mov	r3, r8
200012fe:	002f      	movs	r7, r5
20001300:	9304      	str	r3, [sp, #16]
20001302:	e5ac      	b.n	20000e5e <DAP_ProcessCommand+0xd02>
20001304:	2200      	movs	r2, #0
20001306:	2302      	movs	r3, #2
20001308:	4690      	mov	r8, r2
2000130a:	e46d      	b.n	20000be8 <DAP_ProcessCommand+0xa8c>
2000130c:	2300      	movs	r3, #0
2000130e:	2200      	movs	r2, #0
20001310:	469b      	mov	fp, r3
20001312:	e722      	b.n	2000115a <DAP_ProcessCommand+0xffe>
20001314:	2200      	movs	r2, #0
20001316:	4690      	mov	r8, r2
20001318:	320a      	adds	r2, #10
2000131a:	0003      	movs	r3, r0
2000131c:	9205      	str	r2, [sp, #20]
2000131e:	e463      	b.n	20000be8 <DAP_ProcessCommand+0xa8c>
20001320:	220a      	movs	r2, #10
20001322:	9205      	str	r2, [sp, #20]
20001324:	2200      	movs	r2, #0
20001326:	0003      	movs	r3, r0
20001328:	4690      	mov	r8, r2
2000132a:	e45d      	b.n	20000be8 <DAP_ProcessCommand+0xa8c>
2000132c:	46a8      	mov	r8, r5
2000132e:	e5f9      	b.n	20000f24 <DAP_ProcessCommand+0xdc8>
20001330:	4653      	mov	r3, sl
20001332:	689b      	ldr	r3, [r3, #8]
20001334:	9909      	ldr	r1, [sp, #36]	; 0x24
20001336:	0a1a      	lsrs	r2, r3, #8
20001338:	700b      	strb	r3, [r1, #0]
2000133a:	704a      	strb	r2, [r1, #1]
2000133c:	0c1a      	lsrs	r2, r3, #16
2000133e:	0e1b      	lsrs	r3, r3, #24
20001340:	70cb      	strb	r3, [r1, #3]
20001342:	9b05      	ldr	r3, [sp, #20]
20001344:	708a      	strb	r2, [r1, #2]
20001346:	9307      	str	r3, [sp, #28]
20001348:	1d0b      	adds	r3, r1, #4
2000134a:	9309      	str	r3, [sp, #36]	; 0x24
2000134c:	2300      	movs	r3, #0
2000134e:	9302      	str	r3, [sp, #8]
20001350:	f7ff fb50 	bl	200009f4 <DAP_ProcessCommand+0x898>
20001354:	9a02      	ldr	r2, [sp, #8]
20001356:	0003      	movs	r3, r0
20001358:	4690      	mov	r8, r2
2000135a:	9a07      	ldr	r2, [sp, #28]
2000135c:	9205      	str	r2, [sp, #20]
2000135e:	e443      	b.n	20000be8 <DAP_ProcessCommand+0xa8c>
20001360:	9b03      	ldr	r3, [sp, #12]
20001362:	469b      	mov	fp, r3
20001364:	465a      	mov	r2, fp
20001366:	9208      	str	r2, [sp, #32]
20001368:	2200      	movs	r2, #0
2000136a:	0003      	movs	r3, r0
2000136c:	4690      	mov	r8, r2
2000136e:	e43b      	b.n	20000be8 <DAP_ProcessCommand+0xa8c>
20001370:	9b03      	ldr	r3, [sp, #12]
20001372:	46b8      	mov	r8, r7
20001374:	469b      	mov	fp, r3
20001376:	465a      	mov	r2, fp
20001378:	0003      	movs	r3, r0
2000137a:	9208      	str	r2, [sp, #32]
2000137c:	e434      	b.n	20000be8 <DAP_ProcessCommand+0xa8c>
2000137e:	464a      	mov	r2, r9
20001380:	2340      	movs	r3, #64	; 0x40
20001382:	7093      	strb	r3, [r2, #2]
20001384:	3302      	adds	r3, #2
20001386:	70d3      	strb	r3, [r2, #3]
20001388:	3b33      	subs	r3, #51	; 0x33
2000138a:	7113      	strb	r3, [r2, #4]
2000138c:	2300      	movs	r3, #0
2000138e:	4c15      	ldr	r4, [pc, #84]	; (200013e4 <DAP_ProcessCommand+0x1288>)
20001390:	7153      	strb	r3, [r2, #5]
20001392:	3304      	adds	r3, #4
20001394:	f7ff f8ce 	bl	20000534 <DAP_ProcessCommand+0x3d8>
20001398:	464b      	mov	r3, r9
2000139a:	2206      	movs	r2, #6
2000139c:	1c98      	adds	r0, r3, #2
2000139e:	4912      	ldr	r1, [pc, #72]	; (200013e8 <DAP_ProcessCommand+0x128c>)
200013a0:	f004 fa8c 	bl	200058bc <__wrap___aeabi_memcpy>
200013a4:	4c11      	ldr	r4, [pc, #68]	; (200013ec <DAP_ProcessCommand+0x1290>)
200013a6:	2306      	movs	r3, #6
200013a8:	f7ff f8c4 	bl	20000534 <DAP_ProcessCommand+0x3d8>
200013ac:	2302      	movs	r3, #2
200013ae:	464a      	mov	r2, r9
200013b0:	4c0f      	ldr	r4, [pc, #60]	; (200013f0 <DAP_ProcessCommand+0x1294>)
200013b2:	7093      	strb	r3, [r2, #2]
200013b4:	3b01      	subs	r3, #1
200013b6:	f7ff f8bd 	bl	20000534 <DAP_ProcessCommand+0x3d8>
200013ba:	46ab      	mov	fp, r5
200013bc:	2b01      	cmp	r3, #1
200013be:	d101      	bne.n	200013c4 <DAP_ProcessCommand+0x1268>
200013c0:	f7ff fb2a 	bl	20000a18 <DAP_ProcessCommand+0x8bc>
200013c4:	466a      	mov	r2, sp
200013c6:	b2db      	uxtb	r3, r3
200013c8:	7c12      	ldrb	r2, [r2, #16]
200013ca:	930a      	str	r3, [sp, #40]	; 0x28
200013cc:	f7ff fb55 	bl	20000a7a <DAP_ProcessCommand+0x91e>
200013d0:	9b05      	ldr	r3, [sp, #20]
200013d2:	9307      	str	r3, [sp, #28]
200013d4:	9b08      	ldr	r3, [sp, #32]
200013d6:	9303      	str	r3, [sp, #12]
200013d8:	f7ff fb0c 	bl	200009f4 <DAP_ProcessCommand+0x898>
200013dc:	200218c4 	.word	0x200218c4
200013e0:	2000b95c 	.word	0x2000b95c
200013e4:	00020006 	.word	0x00020006
200013e8:	2000aec8 	.word	0x2000aec8
200013ec:	00020008 	.word	0x00020008
200013f0:	00020003 	.word	0x00020003
200013f4:	2f00      	cmp	r7, #0
200013f6:	d100      	bne.n	200013fa <DAP_ProcessCommand+0x129e>
200013f8:	e123      	b.n	20001642 <DAP_ProcessCommand+0x14e6>
200013fa:	4653      	mov	r3, sl
200013fc:	af0d      	add	r7, sp, #52	; 0x34
200013fe:	8a1d      	ldrh	r5, [r3, #16]
20001400:	e007      	b.n	20001412 <DAP_ProcessCommand+0x12b6>
20001402:	2d00      	cmp	r5, #0
20001404:	d100      	bne.n	20001408 <DAP_ProcessCommand+0x12ac>
20001406:	e18d      	b.n	20001724 <DAP_ProcessCommand+0x15c8>
20001408:	7823      	ldrb	r3, [r4, #0]
2000140a:	3d01      	subs	r5, #1
2000140c:	2b00      	cmp	r3, #0
2000140e:	d000      	beq.n	20001412 <DAP_ProcessCommand+0x12b6>
20001410:	e188      	b.n	20001724 <DAP_ProcessCommand+0x15c8>
20001412:	0039      	movs	r1, r7
20001414:	200e      	movs	r0, #14
20001416:	f001 fe21 	bl	2000305c <SWD_Transfer>
2000141a:	2802      	cmp	r0, #2
2000141c:	d0f1      	beq.n	20001402 <DAP_ProcessCommand+0x12a6>
2000141e:	2801      	cmp	r0, #1
20001420:	d000      	beq.n	20001424 <DAP_ProcessCommand+0x12c8>
20001422:	e121      	b.n	20001668 <DAP_ProcessCommand+0x150c>
20001424:	9b0d      	ldr	r3, [sp, #52]	; 0x34
20001426:	9905      	ldr	r1, [sp, #20]
20001428:	0a1a      	lsrs	r2, r3, #8
2000142a:	700b      	strb	r3, [r1, #0]
2000142c:	704a      	strb	r2, [r1, #1]
2000142e:	0c1a      	lsrs	r2, r3, #16
20001430:	0e1b      	lsrs	r3, r3, #24
20001432:	70cb      	strb	r3, [r1, #3]
20001434:	1d0b      	adds	r3, r1, #4
20001436:	708a      	strb	r2, [r1, #2]
20001438:	9305      	str	r3, [sp, #20]
2000143a:	e578      	b.n	20000f2e <DAP_ProcessCommand+0xdd2>
2000143c:	003b      	movs	r3, r7
2000143e:	4647      	mov	r7, r8
20001440:	9304      	str	r3, [sp, #16]
20001442:	e50c      	b.n	20000e5e <DAP_ProcessCommand+0xd02>
20001444:	4653      	mov	r3, sl
20001446:	689b      	ldr	r3, [r3, #8]
20001448:	9905      	ldr	r1, [sp, #20]
2000144a:	0a1a      	lsrs	r2, r3, #8
2000144c:	700b      	strb	r3, [r1, #0]
2000144e:	704a      	strb	r2, [r1, #1]
20001450:	0c1a      	lsrs	r2, r3, #16
20001452:	0e1b      	lsrs	r3, r3, #24
20001454:	70cb      	strb	r3, [r1, #3]
20001456:	2300      	movs	r3, #0
20001458:	9306      	str	r3, [sp, #24]
2000145a:	3301      	adds	r3, #1
2000145c:	4698      	mov	r8, r3
2000145e:	1d0b      	adds	r3, r1, #4
20001460:	465f      	mov	r7, fp
20001462:	708a      	strb	r2, [r1, #2]
20001464:	9305      	str	r3, [sp, #20]
20001466:	e54d      	b.n	20000f04 <DAP_ProcessCommand+0xda8>
20001468:	1c83      	adds	r3, r0, #2
2000146a:	469b      	mov	fp, r3
2000146c:	2300      	movs	r3, #0
2000146e:	2200      	movs	r2, #0
20001470:	930a      	str	r3, [sp, #40]	; 0x28
20001472:	f7ff fb02 	bl	20000a7a <DAP_ProcessCommand+0x91e>
20001476:	465b      	mov	r3, fp
20001478:	4642      	mov	r2, r8
2000147a:	4213      	tst	r3, r2
2000147c:	d01b      	beq.n	200014b6 <DAP_ProcessCommand+0x135a>
2000147e:	4653      	mov	r3, sl
20001480:	8a1f      	ldrh	r7, [r3, #16]
20001482:	0023      	movs	r3, r4
20001484:	4644      	mov	r4, r8
20001486:	001d      	movs	r5, r3
20001488:	4680      	mov	r8, r0
2000148a:	e007      	b.n	2000149c <DAP_ProcessCommand+0x1340>
2000148c:	2f00      	cmp	r7, #0
2000148e:	d100      	bne.n	20001492 <DAP_ProcessCommand+0x1336>
20001490:	e190      	b.n	200017b4 <DAP_ProcessCommand+0x1658>
20001492:	782b      	ldrb	r3, [r5, #0]
20001494:	3f01      	subs	r7, #1
20001496:	2b00      	cmp	r3, #0
20001498:	d000      	beq.n	2000149c <DAP_ProcessCommand+0x1340>
2000149a:	e18b      	b.n	200017b4 <DAP_ProcessCommand+0x1658>
2000149c:	2100      	movs	r1, #0
2000149e:	0020      	movs	r0, r4
200014a0:	f001 fddc 	bl	2000305c <SWD_Transfer>
200014a4:	2802      	cmp	r0, #2
200014a6:	d0f1      	beq.n	2000148c <DAP_ProcessCommand+0x1330>
200014a8:	002b      	movs	r3, r5
200014aa:	4645      	mov	r5, r8
200014ac:	46a0      	mov	r8, r4
200014ae:	001c      	movs	r4, r3
200014b0:	2801      	cmp	r0, #1
200014b2:	d000      	beq.n	200014b6 <DAP_ProcessCommand+0x135a>
200014b4:	e222      	b.n	200018fc <DAP_ProcessCommand+0x17a0>
200014b6:	9b03      	ldr	r3, [sp, #12]
200014b8:	af0d      	add	r7, sp, #52	; 0x34
200014ba:	3b01      	subs	r3, #1
200014bc:	9302      	str	r3, [sp, #8]
200014be:	2300      	movs	r3, #0
200014c0:	9303      	str	r3, [sp, #12]
200014c2:	465b      	mov	r3, fp
200014c4:	46ab      	mov	fp, r5
200014c6:	0025      	movs	r5, r4
200014c8:	4644      	mov	r4, r8
200014ca:	46b0      	mov	r8, r6
200014cc:	9305      	str	r3, [sp, #20]
200014ce:	4643      	mov	r3, r8
200014d0:	9304      	str	r3, [sp, #16]
200014d2:	9b02      	ldr	r3, [sp, #8]
200014d4:	2b00      	cmp	r3, #0
200014d6:	d031      	beq.n	2000153c <DAP_ProcessCommand+0x13e0>
200014d8:	4653      	mov	r3, sl
200014da:	8a1e      	ldrh	r6, [r3, #16]
200014dc:	e005      	b.n	200014ea <DAP_ProcessCommand+0x138e>
200014de:	2e00      	cmp	r6, #0
200014e0:	d024      	beq.n	2000152c <DAP_ProcessCommand+0x13d0>
200014e2:	782b      	ldrb	r3, [r5, #0]
200014e4:	3e01      	subs	r6, #1
200014e6:	2b00      	cmp	r3, #0
200014e8:	d120      	bne.n	2000152c <DAP_ProcessCommand+0x13d0>
200014ea:	0039      	movs	r1, r7
200014ec:	0020      	movs	r0, r4
200014ee:	f001 fdb5 	bl	2000305c <SWD_Transfer>
200014f2:	2802      	cmp	r0, #2
200014f4:	d0f3      	beq.n	200014de <DAP_ProcessCommand+0x1382>
200014f6:	2801      	cmp	r0, #1
200014f8:	d000      	beq.n	200014fc <DAP_ProcessCommand+0x13a0>
200014fa:	e20b      	b.n	20001914 <DAP_ProcessCommand+0x17b8>
200014fc:	4642      	mov	r2, r8
200014fe:	4641      	mov	r1, r8
20001500:	9b0d      	ldr	r3, [sp, #52]	; 0x34
20001502:	7013      	strb	r3, [r2, #0]
20001504:	0a1a      	lsrs	r2, r3, #8
20001506:	704a      	strb	r2, [r1, #1]
20001508:	0c1a      	lsrs	r2, r3, #16
2000150a:	708a      	strb	r2, [r1, #2]
2000150c:	2204      	movs	r2, #4
2000150e:	4694      	mov	ip, r2
20001510:	9a04      	ldr	r2, [sp, #16]
20001512:	0e1b      	lsrs	r3, r3, #24
20001514:	70d3      	strb	r3, [r2, #3]
20001516:	9b03      	ldr	r3, [sp, #12]
20001518:	9a02      	ldr	r2, [sp, #8]
2000151a:	3301      	adds	r3, #1
2000151c:	9303      	str	r3, [sp, #12]
2000151e:	44e0      	add	r8, ip
20001520:	1e53      	subs	r3, r2, #1
20001522:	2a00      	cmp	r2, #0
20001524:	d100      	bne.n	20001528 <DAP_ProcessCommand+0x13cc>
20001526:	e14b      	b.n	200017c0 <DAP_ProcessCommand+0x1664>
20001528:	9302      	str	r3, [sp, #8]
2000152a:	e7d0      	b.n	200014ce <DAP_ProcessCommand+0x1372>
2000152c:	2102      	movs	r1, #2
2000152e:	9b03      	ldr	r3, [sp, #12]
20001530:	465d      	mov	r5, fp
20001532:	b2da      	uxtb	r2, r3
20001534:	0a1b      	lsrs	r3, r3, #8
20001536:	468b      	mov	fp, r1
20001538:	b2db      	uxtb	r3, r3
2000153a:	e67b      	b.n	20001234 <DAP_ProcessCommand+0x10d8>
2000153c:	3301      	adds	r3, #1
2000153e:	4223      	tst	r3, r4
20001540:	d0ca      	beq.n	200014d8 <DAP_ProcessCommand+0x137c>
20001542:	240e      	movs	r4, #14
20001544:	e7c8      	b.n	200014d8 <DAP_ProcessCommand+0x137c>
20001546:	2300      	movs	r3, #0
20001548:	2200      	movs	r2, #0
2000154a:	469b      	mov	fp, r3
2000154c:	e672      	b.n	20001234 <DAP_ProcessCommand+0x10d8>
2000154e:	8682      	strh	r2, [r0, #52]	; 0x34
20001550:	f7fe ff07 	bl	20000362 <DAP_ProcessCommand+0x206>
20001554:	2f00      	cmp	r7, #0
20001556:	d100      	bne.n	2000155a <DAP_ProcessCommand+0x13fe>
20001558:	e0e8      	b.n	2000172c <DAP_ProcessCommand+0x15d0>
2000155a:	27d0      	movs	r7, #208	; 0xd0
2000155c:	2601      	movs	r6, #1
2000155e:	063f      	lsls	r7, r7, #24
20001560:	687d      	ldr	r5, [r7, #4]
20001562:	4035      	ands	r5, r6
20001564:	42aa      	cmp	r2, r5
20001566:	d114      	bne.n	20001592 <DAP_ProcessCommand+0x1436>
20001568:	687d      	ldr	r5, [r7, #4]
2000156a:	086d      	lsrs	r5, r5, #1
2000156c:	4035      	ands	r5, r6
2000156e:	45aa      	cmp	sl, r5
20001570:	d10f      	bne.n	20001592 <DAP_ProcessCommand+0x1436>
20001572:	687d      	ldr	r5, [r7, #4]
20001574:	08ad      	lsrs	r5, r5, #2
20001576:	4035      	ands	r5, r6
20001578:	45ac      	cmp	ip, r5
2000157a:	d10a      	bne.n	20001592 <DAP_ProcessCommand+0x1436>
2000157c:	2800      	cmp	r0, #0
2000157e:	db01      	blt.n	20001584 <DAP_ProcessCommand+0x1428>
20001580:	f7ff f8de 	bl	20000740 <DAP_ProcessCommand+0x5e4>
20001584:	687d      	ldr	r5, [r7, #4]
20001586:	09ed      	lsrs	r5, r5, #7
20001588:	4035      	ands	r5, r6
2000158a:	45a8      	cmp	r8, r5
2000158c:	d101      	bne.n	20001592 <DAP_ProcessCommand+0x1436>
2000158e:	f7ff f8d7 	bl	20000740 <DAP_ProcessCommand+0x5e4>
20001592:	6a8d      	ldr	r5, [r1, #40]	; 0x28
20001594:	1b2d      	subs	r5, r5, r4
20001596:	42ab      	cmp	r3, r5
20001598:	d8e2      	bhi.n	20001560 <DAP_ProcessCommand+0x1404>
2000159a:	f7ff f8d1 	bl	20000740 <DAP_ProcessCommand+0x5e4>
2000159e:	2800      	cmp	r0, #0
200015a0:	db00      	blt.n	200015a4 <DAP_ProcessCommand+0x1448>
200015a2:	e1d1      	b.n	20001948 <DAP_ProcessCommand+0x17ec>
200015a4:	20d0      	movs	r0, #208	; 0xd0
200015a6:	9a02      	ldr	r2, [sp, #8]
200015a8:	0600      	lsls	r0, r0, #24
200015aa:	2a00      	cmp	r2, #0
200015ac:	d106      	bne.n	200015bc <DAP_ProcessCommand+0x1460>
200015ae:	6842      	ldr	r2, [r0, #4]
200015b0:	6a8a      	ldr	r2, [r1, #40]	; 0x28
200015b2:	1b12      	subs	r2, r2, r4
200015b4:	4293      	cmp	r3, r2
200015b6:	d8fa      	bhi.n	200015ae <DAP_ProcessCommand+0x1452>
200015b8:	f7ff f8c2 	bl	20000740 <DAP_ProcessCommand+0x5e4>
200015bc:	6842      	ldr	r2, [r0, #4]
200015be:	6a8a      	ldr	r2, [r1, #40]	; 0x28
200015c0:	1b12      	subs	r2, r2, r4
200015c2:	4293      	cmp	r3, r2
200015c4:	d8fa      	bhi.n	200015bc <DAP_ProcessCommand+0x1460>
200015c6:	f7ff f8bb 	bl	20000740 <DAP_ProcessCommand+0x5e4>
200015ca:	9a01      	ldr	r2, [sp, #4]
200015cc:	2a00      	cmp	r2, #0
200015ce:	d000      	beq.n	200015d2 <DAP_ProcessCommand+0x1476>
200015d0:	e0cd      	b.n	2000176e <DAP_ProcessCommand+0x1612>
200015d2:	26d0      	movs	r6, #208	; 0xd0
200015d4:	0636      	lsls	r6, r6, #24
200015d6:	2800      	cmp	r0, #0
200015d8:	db00      	blt.n	200015dc <DAP_ProcessCommand+0x1480>
200015da:	e1a2      	b.n	20001922 <DAP_ProcessCommand+0x17c6>
200015dc:	2001      	movs	r0, #1
200015de:	9d02      	ldr	r5, [sp, #8]
200015e0:	2f00      	cmp	r7, #0
200015e2:	d004      	beq.n	200015ee <DAP_ProcessCommand+0x1492>
200015e4:	6872      	ldr	r2, [r6, #4]
200015e6:	0892      	lsrs	r2, r2, #2
200015e8:	4002      	ands	r2, r0
200015ea:	4594      	cmp	ip, r2
200015ec:	d108      	bne.n	20001600 <DAP_ProcessCommand+0x14a4>
200015ee:	2d00      	cmp	r5, #0
200015f0:	d106      	bne.n	20001600 <DAP_ProcessCommand+0x14a4>
200015f2:	6872      	ldr	r2, [r6, #4]
200015f4:	09d2      	lsrs	r2, r2, #7
200015f6:	4002      	ands	r2, r0
200015f8:	4590      	cmp	r8, r2
200015fa:	d101      	bne.n	20001600 <DAP_ProcessCommand+0x14a4>
200015fc:	f7ff f8a0 	bl	20000740 <DAP_ProcessCommand+0x5e4>
20001600:	6a8a      	ldr	r2, [r1, #40]	; 0x28
20001602:	1b12      	subs	r2, r2, r4
20001604:	4293      	cmp	r3, r2
20001606:	d8eb      	bhi.n	200015e0 <DAP_ProcessCommand+0x1484>
20001608:	f7ff f89a 	bl	20000740 <DAP_ProcessCommand+0x5e4>
2000160c:	9b03      	ldr	r3, [sp, #12]
2000160e:	469b      	mov	fp, r3
20001610:	9b02      	ldr	r3, [sp, #8]
20001612:	4698      	mov	r8, r3
20001614:	2301      	movs	r3, #1
20001616:	f7ff faeb 	bl	20000bf0 <DAP_ProcessCommand+0xa94>
2000161a:	4653      	mov	r3, sl
2000161c:	8a1d      	ldrh	r5, [r3, #16]
2000161e:	e005      	b.n	2000162c <DAP_ProcessCommand+0x14d0>
20001620:	2d00      	cmp	r5, #0
20001622:	d009      	beq.n	20001638 <DAP_ProcessCommand+0x14dc>
20001624:	7823      	ldrb	r3, [r4, #0]
20001626:	3d01      	subs	r5, #1
20001628:	2b00      	cmp	r3, #0
2000162a:	d105      	bne.n	20001638 <DAP_ProcessCommand+0x14dc>
2000162c:	2100      	movs	r1, #0
2000162e:	200e      	movs	r0, #14
20001630:	f000 fe8a 	bl	20002348 <JTAG_Transfer>
20001634:	2802      	cmp	r0, #2
20001636:	d0f3      	beq.n	20001620 <DAP_ProcessCommand+0x14c4>
20001638:	900a      	str	r0, [sp, #40]	; 0x28
2000163a:	466b      	mov	r3, sp
2000163c:	7c1a      	ldrb	r2, [r3, #16]
2000163e:	f7ff fa1c 	bl	20000a7a <DAP_ProcessCommand+0x91e>
20001642:	9b06      	ldr	r3, [sp, #24]
20001644:	2b00      	cmp	r3, #0
20001646:	d100      	bne.n	2000164a <DAP_ProcessCommand+0x14ee>
20001648:	e471      	b.n	20000f2e <DAP_ProcessCommand+0xdd2>
2000164a:	4653      	mov	r3, sl
2000164c:	8a1d      	ldrh	r5, [r3, #16]
2000164e:	e005      	b.n	2000165c <DAP_ProcessCommand+0x1500>
20001650:	2d00      	cmp	r5, #0
20001652:	d009      	beq.n	20001668 <DAP_ProcessCommand+0x150c>
20001654:	7823      	ldrb	r3, [r4, #0]
20001656:	3d01      	subs	r5, #1
20001658:	2b00      	cmp	r3, #0
2000165a:	d105      	bne.n	20001668 <DAP_ProcessCommand+0x150c>
2000165c:	2100      	movs	r1, #0
2000165e:	200e      	movs	r0, #14
20001660:	f001 fcfc 	bl	2000305c <SWD_Transfer>
20001664:	2802      	cmp	r0, #2
20001666:	d0f3      	beq.n	20001650 <DAP_ProcessCommand+0x14f4>
20001668:	900a      	str	r0, [sp, #40]	; 0x28
2000166a:	e460      	b.n	20000f2e <DAP_ProcessCommand+0xdd2>
2000166c:	4653      	mov	r3, sl
2000166e:	8a1f      	ldrh	r7, [r3, #16]
20001670:	0023      	movs	r3, r4
20001672:	4644      	mov	r4, r8
20001674:	46a8      	mov	r8, r5
20001676:	001d      	movs	r5, r3
20001678:	e005      	b.n	20001686 <DAP_ProcessCommand+0x152a>
2000167a:	2f00      	cmp	r7, #0
2000167c:	d073      	beq.n	20001766 <DAP_ProcessCommand+0x160a>
2000167e:	782b      	ldrb	r3, [r5, #0]
20001680:	3f01      	subs	r7, #1
20001682:	2b00      	cmp	r3, #0
20001684:	d16f      	bne.n	20001766 <DAP_ProcessCommand+0x160a>
20001686:	2100      	movs	r1, #0
20001688:	0020      	movs	r0, r4
2000168a:	f000 fe5d 	bl	20002348 <JTAG_Transfer>
2000168e:	2802      	cmp	r0, #2
20001690:	d0f3      	beq.n	2000167a <DAP_ProcessCommand+0x151e>
20001692:	002b      	movs	r3, r5
20001694:	4645      	mov	r5, r8
20001696:	46a0      	mov	r8, r4
20001698:	001c      	movs	r4, r3
2000169a:	2801      	cmp	r0, #1
2000169c:	d000      	beq.n	200016a0 <DAP_ProcessCommand+0x1544>
2000169e:	e0fd      	b.n	2000189c <DAP_ProcessCommand+0x1740>
200016a0:	9b04      	ldr	r3, [sp, #16]
200016a2:	af0d      	add	r7, sp, #52	; 0x34
200016a4:	3b01      	subs	r3, #1
200016a6:	9305      	str	r3, [sp, #20]
200016a8:	2300      	movs	r3, #0
200016aa:	9302      	str	r3, [sp, #8]
200016ac:	0023      	movs	r3, r4
200016ae:	4644      	mov	r4, r8
200016b0:	46a8      	mov	r8, r5
200016b2:	001d      	movs	r5, r3
200016b4:	9604      	str	r6, [sp, #16]
200016b6:	9b04      	ldr	r3, [sp, #16]
200016b8:	9303      	str	r3, [sp, #12]
200016ba:	9b05      	ldr	r3, [sp, #20]
200016bc:	2b00      	cmp	r3, #0
200016be:	d029      	beq.n	20001714 <DAP_ProcessCommand+0x15b8>
200016c0:	4653      	mov	r3, sl
200016c2:	8a1e      	ldrh	r6, [r3, #16]
200016c4:	e007      	b.n	200016d6 <DAP_ProcessCommand+0x157a>
200016c6:	2e00      	cmp	r6, #0
200016c8:	d100      	bne.n	200016cc <DAP_ProcessCommand+0x1570>
200016ca:	e550      	b.n	2000116e <DAP_ProcessCommand+0x1012>
200016cc:	782b      	ldrb	r3, [r5, #0]
200016ce:	3e01      	subs	r6, #1
200016d0:	2b00      	cmp	r3, #0
200016d2:	d000      	beq.n	200016d6 <DAP_ProcessCommand+0x157a>
200016d4:	e54b      	b.n	2000116e <DAP_ProcessCommand+0x1012>
200016d6:	0039      	movs	r1, r7
200016d8:	0020      	movs	r0, r4
200016da:	f000 fe35 	bl	20002348 <JTAG_Transfer>
200016de:	2802      	cmp	r0, #2
200016e0:	d0f1      	beq.n	200016c6 <DAP_ProcessCommand+0x156a>
200016e2:	2801      	cmp	r0, #1
200016e4:	d000      	beq.n	200016e8 <DAP_ProcessCommand+0x158c>
200016e6:	e142      	b.n	2000196e <DAP_ProcessCommand+0x1812>
200016e8:	9b0d      	ldr	r3, [sp, #52]	; 0x34
200016ea:	9904      	ldr	r1, [sp, #16]
200016ec:	0a1a      	lsrs	r2, r3, #8
200016ee:	704a      	strb	r2, [r1, #1]
200016f0:	0c1a      	lsrs	r2, r3, #16
200016f2:	708a      	strb	r2, [r1, #2]
200016f4:	1d0a      	adds	r2, r1, #4
200016f6:	9204      	str	r2, [sp, #16]
200016f8:	9a03      	ldr	r2, [sp, #12]
200016fa:	700b      	strb	r3, [r1, #0]
200016fc:	0e1b      	lsrs	r3, r3, #24
200016fe:	70d3      	strb	r3, [r2, #3]
20001700:	9b02      	ldr	r3, [sp, #8]
20001702:	9a05      	ldr	r2, [sp, #20]
20001704:	3301      	adds	r3, #1
20001706:	9302      	str	r3, [sp, #8]
20001708:	1e53      	subs	r3, r2, #1
2000170a:	2a00      	cmp	r2, #0
2000170c:	d100      	bne.n	20001710 <DAP_ProcessCommand+0x15b4>
2000170e:	e082      	b.n	20001816 <DAP_ProcessCommand+0x16ba>
20001710:	9305      	str	r3, [sp, #20]
20001712:	e7d0      	b.n	200016b6 <DAP_ProcessCommand+0x155a>
20001714:	9b06      	ldr	r3, [sp, #24]
20001716:	240e      	movs	r4, #14
20001718:	2b0a      	cmp	r3, #10
2000171a:	d0d1      	beq.n	200016c0 <DAP_ProcessCommand+0x1564>
2000171c:	200a      	movs	r0, #10
2000171e:	f000 fcd5 	bl	200020cc <JTAG_IR>
20001722:	e7cd      	b.n	200016c0 <DAP_ProcessCommand+0x1564>
20001724:	2302      	movs	r3, #2
20001726:	930a      	str	r3, [sp, #40]	; 0x28
20001728:	f7ff fc01 	bl	20000f2e <DAP_ProcessCommand+0xdd2>
2000172c:	27d0      	movs	r7, #208	; 0xd0
2000172e:	2601      	movs	r6, #1
20001730:	063f      	lsls	r7, r7, #24
20001732:	687d      	ldr	r5, [r7, #4]
20001734:	4035      	ands	r5, r6
20001736:	42aa      	cmp	r2, r5
20001738:	d10f      	bne.n	2000175a <DAP_ProcessCommand+0x15fe>
2000173a:	687d      	ldr	r5, [r7, #4]
2000173c:	086d      	lsrs	r5, r5, #1
2000173e:	4035      	ands	r5, r6
20001740:	45aa      	cmp	sl, r5
20001742:	d10a      	bne.n	2000175a <DAP_ProcessCommand+0x15fe>
20001744:	2800      	cmp	r0, #0
20001746:	db01      	blt.n	2000174c <DAP_ProcessCommand+0x15f0>
20001748:	f7fe fffa 	bl	20000740 <DAP_ProcessCommand+0x5e4>
2000174c:	687d      	ldr	r5, [r7, #4]
2000174e:	09ed      	lsrs	r5, r5, #7
20001750:	4035      	ands	r5, r6
20001752:	45a8      	cmp	r8, r5
20001754:	d101      	bne.n	2000175a <DAP_ProcessCommand+0x15fe>
20001756:	f7fe fff3 	bl	20000740 <DAP_ProcessCommand+0x5e4>
2000175a:	6a8d      	ldr	r5, [r1, #40]	; 0x28
2000175c:	1b2d      	subs	r5, r5, r4
2000175e:	42ab      	cmp	r3, r5
20001760:	d8e7      	bhi.n	20001732 <DAP_ProcessCommand+0x15d6>
20001762:	f7fe ffed 	bl	20000740 <DAP_ProcessCommand+0x5e4>
20001766:	2300      	movs	r3, #0
20001768:	4645      	mov	r5, r8
2000176a:	001a      	movs	r2, r3
2000176c:	e4f5      	b.n	2000115a <DAP_ProcessCommand+0xffe>
2000176e:	2f00      	cmp	r7, #0
20001770:	d030      	beq.n	200017d4 <DAP_ProcessCommand+0x1678>
20001772:	27d0      	movs	r7, #208	; 0xd0
20001774:	2601      	movs	r6, #1
20001776:	9d02      	ldr	r5, [sp, #8]
20001778:	063f      	lsls	r7, r7, #24
2000177a:	687a      	ldr	r2, [r7, #4]
2000177c:	0852      	lsrs	r2, r2, #1
2000177e:	4032      	ands	r2, r6
20001780:	4592      	cmp	sl, r2
20001782:	d111      	bne.n	200017a8 <DAP_ProcessCommand+0x164c>
20001784:	687a      	ldr	r2, [r7, #4]
20001786:	0892      	lsrs	r2, r2, #2
20001788:	4032      	ands	r2, r6
2000178a:	4594      	cmp	ip, r2
2000178c:	d10c      	bne.n	200017a8 <DAP_ProcessCommand+0x164c>
2000178e:	2d00      	cmp	r5, #0
20001790:	d10a      	bne.n	200017a8 <DAP_ProcessCommand+0x164c>
20001792:	2800      	cmp	r0, #0
20001794:	db01      	blt.n	2000179a <DAP_ProcessCommand+0x163e>
20001796:	f7fe ffd3 	bl	20000740 <DAP_ProcessCommand+0x5e4>
2000179a:	687a      	ldr	r2, [r7, #4]
2000179c:	09d2      	lsrs	r2, r2, #7
2000179e:	4032      	ands	r2, r6
200017a0:	4590      	cmp	r8, r2
200017a2:	d101      	bne.n	200017a8 <DAP_ProcessCommand+0x164c>
200017a4:	f7fe ffcc 	bl	20000740 <DAP_ProcessCommand+0x5e4>
200017a8:	6a8a      	ldr	r2, [r1, #40]	; 0x28
200017aa:	1b12      	subs	r2, r2, r4
200017ac:	4293      	cmp	r3, r2
200017ae:	d8e4      	bhi.n	2000177a <DAP_ProcessCommand+0x161e>
200017b0:	f7fe ffc6 	bl	20000740 <DAP_ProcessCommand+0x5e4>
200017b4:	2302      	movs	r3, #2
200017b6:	469b      	mov	fp, r3
200017b8:	2300      	movs	r3, #0
200017ba:	4645      	mov	r5, r8
200017bc:	001a      	movs	r2, r3
200017be:	e539      	b.n	20001234 <DAP_ProcessCommand+0x10d8>
200017c0:	4641      	mov	r1, r8
200017c2:	9b05      	ldr	r3, [sp, #20]
200017c4:	465d      	mov	r5, fp
200017c6:	469b      	mov	fp, r3
200017c8:	9b03      	ldr	r3, [sp, #12]
200017ca:	9104      	str	r1, [sp, #16]
200017cc:	b2da      	uxtb	r2, r3
200017ce:	0a1b      	lsrs	r3, r3, #8
200017d0:	b2db      	uxtb	r3, r3
200017d2:	e52f      	b.n	20001234 <DAP_ProcessCommand+0x10d8>
200017d4:	27d0      	movs	r7, #208	; 0xd0
200017d6:	2601      	movs	r6, #1
200017d8:	9d02      	ldr	r5, [sp, #8]
200017da:	063f      	lsls	r7, r7, #24
200017dc:	687a      	ldr	r2, [r7, #4]
200017de:	0852      	lsrs	r2, r2, #1
200017e0:	4032      	ands	r2, r6
200017e2:	4592      	cmp	sl, r2
200017e4:	d10c      	bne.n	20001800 <DAP_ProcessCommand+0x16a4>
200017e6:	2d00      	cmp	r5, #0
200017e8:	d10a      	bne.n	20001800 <DAP_ProcessCommand+0x16a4>
200017ea:	2800      	cmp	r0, #0
200017ec:	db01      	blt.n	200017f2 <DAP_ProcessCommand+0x1696>
200017ee:	f7fe ffa7 	bl	20000740 <DAP_ProcessCommand+0x5e4>
200017f2:	687a      	ldr	r2, [r7, #4]
200017f4:	09d2      	lsrs	r2, r2, #7
200017f6:	4032      	ands	r2, r6
200017f8:	4590      	cmp	r8, r2
200017fa:	d101      	bne.n	20001800 <DAP_ProcessCommand+0x16a4>
200017fc:	f7fe ffa0 	bl	20000740 <DAP_ProcessCommand+0x5e4>
20001800:	6a8a      	ldr	r2, [r1, #40]	; 0x28
20001802:	1b12      	subs	r2, r2, r4
20001804:	4293      	cmp	r3, r2
20001806:	d8e9      	bhi.n	200017dc <DAP_ProcessCommand+0x1680>
20001808:	f7fe ff9a 	bl	20000740 <DAP_ProcessCommand+0x5e4>
2000180c:	2300      	movs	r3, #0
2000180e:	9302      	str	r3, [sp, #8]
20001810:	930a      	str	r3, [sp, #40]	; 0x28
20001812:	f7ff fb8c 	bl	20000f2e <DAP_ProcessCommand+0xdd2>
20001816:	9904      	ldr	r1, [sp, #16]
20001818:	9b02      	ldr	r3, [sp, #8]
2000181a:	9103      	str	r1, [sp, #12]
2000181c:	2101      	movs	r1, #1
2000181e:	b2da      	uxtb	r2, r3
20001820:	0a1b      	lsrs	r3, r3, #8
20001822:	4645      	mov	r5, r8
20001824:	468b      	mov	fp, r1
20001826:	b2db      	uxtb	r3, r3
20001828:	e497      	b.n	2000115a <DAP_ProcessCommand+0xffe>
2000182a:	25d0      	movs	r5, #208	; 0xd0
2000182c:	9a01      	ldr	r2, [sp, #4]
2000182e:	2001      	movs	r0, #1
20001830:	4656      	mov	r6, sl
20001832:	062d      	lsls	r5, r5, #24
20001834:	2a00      	cmp	r2, #0
20001836:	d111      	bne.n	2000185c <DAP_ProcessCommand+0x1700>
20001838:	4666      	mov	r6, ip
2000183a:	2f00      	cmp	r7, #0
2000183c:	d101      	bne.n	20001842 <DAP_ProcessCommand+0x16e6>
2000183e:	f7fe ff7f 	bl	20000740 <DAP_ProcessCommand+0x5e4>
20001842:	686a      	ldr	r2, [r5, #4]
20001844:	0892      	lsrs	r2, r2, #2
20001846:	4002      	ands	r2, r0
20001848:	4296      	cmp	r6, r2
2000184a:	d101      	bne.n	20001850 <DAP_ProcessCommand+0x16f4>
2000184c:	f7fe ff78 	bl	20000740 <DAP_ProcessCommand+0x5e4>
20001850:	6a8a      	ldr	r2, [r1, #40]	; 0x28
20001852:	1b12      	subs	r2, r2, r4
20001854:	4293      	cmp	r3, r2
20001856:	d8f0      	bhi.n	2000183a <DAP_ProcessCommand+0x16de>
20001858:	f7fe ff72 	bl	20000740 <DAP_ProcessCommand+0x5e4>
2000185c:	686a      	ldr	r2, [r5, #4]
2000185e:	0852      	lsrs	r2, r2, #1
20001860:	4002      	ands	r2, r0
20001862:	4296      	cmp	r6, r2
20001864:	d10a      	bne.n	2000187c <DAP_ProcessCommand+0x1720>
20001866:	2f00      	cmp	r7, #0
20001868:	d101      	bne.n	2000186e <DAP_ProcessCommand+0x1712>
2000186a:	f7fe ff69 	bl	20000740 <DAP_ProcessCommand+0x5e4>
2000186e:	686a      	ldr	r2, [r5, #4]
20001870:	0892      	lsrs	r2, r2, #2
20001872:	4002      	ands	r2, r0
20001874:	4594      	cmp	ip, r2
20001876:	d101      	bne.n	2000187c <DAP_ProcessCommand+0x1720>
20001878:	f7fe ff62 	bl	20000740 <DAP_ProcessCommand+0x5e4>
2000187c:	6a8a      	ldr	r2, [r1, #40]	; 0x28
2000187e:	1b12      	subs	r2, r2, r4
20001880:	4293      	cmp	r3, r2
20001882:	d8eb      	bhi.n	2000185c <DAP_ProcessCommand+0x1700>
20001884:	f7fe ff5c 	bl	20000740 <DAP_ProcessCommand+0x5e4>
20001888:	9a02      	ldr	r2, [sp, #8]
2000188a:	4690      	mov	r8, r2
2000188c:	f7ff f9ac 	bl	20000be8 <DAP_ProcessCommand+0xa8c>
20001890:	9a03      	ldr	r2, [sp, #12]
20001892:	9208      	str	r2, [sp, #32]
20001894:	2200      	movs	r2, #0
20001896:	4690      	mov	r8, r2
20001898:	f7ff f9a6 	bl	20000be8 <DAP_ProcessCommand+0xa8c>
2000189c:	2300      	movs	r3, #0
2000189e:	4683      	mov	fp, r0
200018a0:	001a      	movs	r2, r3
200018a2:	e45a      	b.n	2000115a <DAP_ProcessCommand+0xffe>
200018a4:	2501      	movs	r5, #1
200018a6:	6870      	ldr	r0, [r6, #4]
200018a8:	4028      	ands	r0, r5
200018aa:	4282      	cmp	r2, r0
200018ac:	d10a      	bne.n	200018c4 <DAP_ProcessCommand+0x1768>
200018ae:	2f00      	cmp	r7, #0
200018b0:	d101      	bne.n	200018b6 <DAP_ProcessCommand+0x175a>
200018b2:	f7fe ff45 	bl	20000740 <DAP_ProcessCommand+0x5e4>
200018b6:	6870      	ldr	r0, [r6, #4]
200018b8:	0880      	lsrs	r0, r0, #2
200018ba:	4028      	ands	r0, r5
200018bc:	4584      	cmp	ip, r0
200018be:	d101      	bne.n	200018c4 <DAP_ProcessCommand+0x1768>
200018c0:	f7fe ff3e 	bl	20000740 <DAP_ProcessCommand+0x5e4>
200018c4:	6a88      	ldr	r0, [r1, #40]	; 0x28
200018c6:	1b00      	subs	r0, r0, r4
200018c8:	4283      	cmp	r3, r0
200018ca:	d8ec      	bhi.n	200018a6 <DAP_ProcessCommand+0x174a>
200018cc:	f7fe ff38 	bl	20000740 <DAP_ProcessCommand+0x5e4>
200018d0:	2200      	movs	r2, #0
200018d2:	9b02      	ldr	r3, [sp, #8]
200018d4:	4690      	mov	r8, r2
200018d6:	f7ff f987 	bl	20000be8 <DAP_ProcessCommand+0xa8c>
200018da:	9a02      	ldr	r2, [sp, #8]
200018dc:	4690      	mov	r8, r2
200018de:	9a07      	ldr	r2, [sp, #28]
200018e0:	9205      	str	r2, [sp, #20]
200018e2:	f7ff f981 	bl	20000be8 <DAP_ProcessCommand+0xa8c>
200018e6:	9a02      	ldr	r2, [sp, #8]
200018e8:	4690      	mov	r8, r2
200018ea:	220a      	movs	r2, #10
200018ec:	9205      	str	r2, [sp, #20]
200018ee:	f7ff f97b 	bl	20000be8 <DAP_ProcessCommand+0xa8c>
200018f2:	466b      	mov	r3, sp
200018f4:	900a      	str	r0, [sp, #40]	; 0x28
200018f6:	7c1a      	ldrb	r2, [r3, #16]
200018f8:	f7ff f8bf 	bl	20000a7a <DAP_ProcessCommand+0x91e>
200018fc:	2300      	movs	r3, #0
200018fe:	4683      	mov	fp, r0
20001900:	001a      	movs	r2, r3
20001902:	e497      	b.n	20001234 <DAP_ProcessCommand+0x10d8>
20001904:	2300      	movs	r3, #0
20001906:	001a      	movs	r2, r3
20001908:	930a      	str	r3, [sp, #40]	; 0x28
2000190a:	f7ff f8b6 	bl	20000a7a <DAP_ProcessCommand+0x91e>
2000190e:	4c1c      	ldr	r4, [pc, #112]	; (20001980 <DAP_ProcessCommand+0x1824>)
20001910:	f7fe fe10 	bl	20000534 <DAP_ProcessCommand+0x3d8>
20001914:	9b03      	ldr	r3, [sp, #12]
20001916:	465d      	mov	r5, fp
20001918:	b2da      	uxtb	r2, r3
2000191a:	0a1b      	lsrs	r3, r3, #8
2000191c:	4683      	mov	fp, r0
2000191e:	b2db      	uxtb	r3, r3
20001920:	e488      	b.n	20001234 <DAP_ProcessCommand+0x10d8>
20001922:	2001      	movs	r0, #1
20001924:	9d02      	ldr	r5, [sp, #8]
20001926:	2f00      	cmp	r7, #0
20001928:	d004      	beq.n	20001934 <DAP_ProcessCommand+0x17d8>
2000192a:	6872      	ldr	r2, [r6, #4]
2000192c:	0892      	lsrs	r2, r2, #2
2000192e:	4002      	ands	r2, r0
20001930:	4594      	cmp	ip, r2
20001932:	d103      	bne.n	2000193c <DAP_ProcessCommand+0x17e0>
20001934:	2d00      	cmp	r5, #0
20001936:	d101      	bne.n	2000193c <DAP_ProcessCommand+0x17e0>
20001938:	f7fe ff02 	bl	20000740 <DAP_ProcessCommand+0x5e4>
2000193c:	6a8a      	ldr	r2, [r1, #40]	; 0x28
2000193e:	1b12      	subs	r2, r2, r4
20001940:	4293      	cmp	r3, r2
20001942:	d8f0      	bhi.n	20001926 <DAP_ProcessCommand+0x17ca>
20001944:	f7fe fefc 	bl	20000740 <DAP_ProcessCommand+0x5e4>
20001948:	20d0      	movs	r0, #208	; 0xd0
2000194a:	9a01      	ldr	r2, [sp, #4]
2000194c:	0600      	lsls	r0, r0, #24
2000194e:	2a00      	cmp	r2, #0
20001950:	d106      	bne.n	20001960 <DAP_ProcessCommand+0x1804>
20001952:	6842      	ldr	r2, [r0, #4]
20001954:	6a8a      	ldr	r2, [r1, #40]	; 0x28
20001956:	1b12      	subs	r2, r2, r4
20001958:	4293      	cmp	r3, r2
2000195a:	d8fa      	bhi.n	20001952 <DAP_ProcessCommand+0x17f6>
2000195c:	f7fe fef0 	bl	20000740 <DAP_ProcessCommand+0x5e4>
20001960:	6842      	ldr	r2, [r0, #4]
20001962:	6a8a      	ldr	r2, [r1, #40]	; 0x28
20001964:	1b12      	subs	r2, r2, r4
20001966:	4293      	cmp	r3, r2
20001968:	d8fa      	bhi.n	20001960 <DAP_ProcessCommand+0x1804>
2000196a:	f7fe fee9 	bl	20000740 <DAP_ProcessCommand+0x5e4>
2000196e:	9b02      	ldr	r3, [sp, #8]
20001970:	4645      	mov	r5, r8
20001972:	b2da      	uxtb	r2, r3
20001974:	0a1b      	lsrs	r3, r3, #8
20001976:	4683      	mov	fp, r0
20001978:	b2db      	uxtb	r3, r3
2000197a:	f7ff fbee 	bl	2000115a <DAP_ProcessCommand+0xffe>
2000197e:	46c0      	nop			; (mov r8, r8)
20001980:	00020002 	.word	0x00020002

20001984 <DAP_ExecuteCommand>:
20001984:	b5f8      	push	{r3, r4, r5, r6, r7, lr}
20001986:	7803      	ldrb	r3, [r0, #0]
20001988:	2b7f      	cmp	r3, #127	; 0x7f
2000198a:	d004      	beq.n	20001996 <DAP_ExecuteCommand+0x12>
2000198c:	f7fe fbe6 	bl	2000015c <DAP_ProcessCommand>
20001990:	0005      	movs	r5, r0
20001992:	0028      	movs	r0, r5
20001994:	bdf8      	pop	{r3, r4, r5, r6, r7, pc}
20001996:	700b      	strb	r3, [r1, #0]
20001998:	7844      	ldrb	r4, [r0, #1]
2000199a:	4d0a      	ldr	r5, [pc, #40]	; (200019c4 <DAP_ExecuteCommand+0x40>)
2000199c:	1c86      	adds	r6, r0, #2
2000199e:	1c8f      	adds	r7, r1, #2
200019a0:	704c      	strb	r4, [r1, #1]
200019a2:	2c00      	cmp	r4, #0
200019a4:	d0f5      	beq.n	20001992 <DAP_ExecuteCommand+0xe>
200019a6:	0039      	movs	r1, r7
200019a8:	0030      	movs	r0, r6
200019aa:	f7fe fbd7 	bl	2000015c <DAP_ProcessCommand>
200019ae:	0c03      	lsrs	r3, r0, #16
200019b0:	182d      	adds	r5, r5, r0
200019b2:	0400      	lsls	r0, r0, #16
200019b4:	0c00      	lsrs	r0, r0, #16
200019b6:	3c01      	subs	r4, #1
200019b8:	18f6      	adds	r6, r6, r3
200019ba:	183f      	adds	r7, r7, r0
200019bc:	2c00      	cmp	r4, #0
200019be:	d1f2      	bne.n	200019a6 <DAP_ExecuteCommand+0x22>
200019c0:	e7e7      	b.n	20001992 <DAP_ExecuteCommand+0xe>
200019c2:	46c0      	nop			; (mov r8, r8)
200019c4:	00020002 	.word	0x00020002

200019c8 <DAP_Setup>:
200019c8:	203d      	movs	r0, #61	; 0x3d
200019ca:	b510      	push	{r4, lr}
200019cc:	2100      	movs	r1, #0
200019ce:	2401      	movs	r4, #1
200019d0:	2200      	movs	r2, #0
200019d2:	4b15      	ldr	r3, [pc, #84]	; (20001a28 <DAP_Setup+0x60>)
200019d4:	6058      	str	r0, [r3, #4]
200019d6:	3027      	adds	r0, #39	; 0x27
200019d8:	8019      	strh	r1, [r3, #0]
200019da:	6118      	str	r0, [r3, #16]
200019dc:	831c      	strh	r4, [r3, #24]
200019de:	2000      	movs	r0, #0
200019e0:	731a      	strb	r2, [r3, #12]
200019e2:	6159      	str	r1, [r3, #20]
200019e4:	769a      	strb	r2, [r3, #26]
200019e6:	f003 f8a9 	bl	20004b3c <gpio_init>
200019ea:	2001      	movs	r0, #1
200019ec:	f003 f8a6 	bl	20004b3c <gpio_init>
200019f0:	2002      	movs	r0, #2
200019f2:	f003 f8a3 	bl	20004b3c <gpio_init>
200019f6:	2003      	movs	r0, #3
200019f8:	f003 f8a0 	bl	20004b3c <gpio_init>
200019fc:	2005      	movs	r0, #5
200019fe:	f003 f89d 	bl	20004b3c <gpio_init>
20001a02:	2007      	movs	r0, #7
20001a04:	f003 f89a 	bl	20004b3c <gpio_init>
20001a08:	23d0      	movs	r3, #208	; 0xd0
20001a0a:	2202      	movs	r2, #2
20001a0c:	061b      	lsls	r3, r3, #24
20001a0e:	625c      	str	r4, [r3, #36]	; 0x24
20001a10:	615c      	str	r4, [r3, #20]
20001a12:	625a      	str	r2, [r3, #36]	; 0x24
20001a14:	615a      	str	r2, [r3, #20]
20001a16:	3202      	adds	r2, #2
20001a18:	625a      	str	r2, [r3, #36]	; 0x24
20001a1a:	615a      	str	r2, [r3, #20]
20001a1c:	3204      	adds	r2, #4
20001a1e:	629a      	str	r2, [r3, #40]	; 0x28
20001a20:	3278      	adds	r2, #120	; 0x78
20001a22:	629a      	str	r2, [r3, #40]	; 0x28
20001a24:	615a      	str	r2, [r3, #20]
20001a26:	bd10      	pop	{r4, pc}
20001a28:	2000b95c 	.word	0x2000b95c

20001a2c <usb_serial_init>:
20001a2c:	b570      	push	{r4, r5, r6, lr}
20001a2e:	4c77      	ldr	r4, [pc, #476]	; (20001c0c <usb_serial_init+0x1e0>)
20001a30:	0020      	movs	r0, r4
20001a32:	f004 f9b7 	bl	20005da4 <pico_get_unique_board_id>
20001a36:	7823      	ldrb	r3, [r4, #0]
20001a38:	0918      	lsrs	r0, r3, #4
20001a3a:	0001      	movs	r1, r0
20001a3c:	011a      	lsls	r2, r3, #4
20001a3e:	b2d2      	uxtb	r2, r2
20001a40:	3130      	adds	r1, #48	; 0x30
20001a42:	2b9f      	cmp	r3, #159	; 0x9f
20001a44:	d900      	bls.n	20001a48 <usb_serial_init+0x1c>
20001a46:	3107      	adds	r1, #7
20001a48:	4b71      	ldr	r3, [pc, #452]	; (20001c10 <usb_serial_init+0x1e4>)
20001a4a:	0910      	lsrs	r0, r2, #4
20001a4c:	7019      	strb	r1, [r3, #0]
20001a4e:	2100      	movs	r1, #0
20001a50:	7021      	strb	r1, [r4, #0]
20001a52:	0001      	movs	r1, r0
20001a54:	3130      	adds	r1, #48	; 0x30
20001a56:	2a9f      	cmp	r2, #159	; 0x9f
20001a58:	d900      	bls.n	20001a5c <usb_serial_init+0x30>
20001a5a:	e0d4      	b.n	20001c06 <usb_serial_init+0x1da>
20001a5c:	7059      	strb	r1, [r3, #1]
20001a5e:	7861      	ldrb	r1, [r4, #1]
20001a60:	090d      	lsrs	r5, r1, #4
20001a62:	0028      	movs	r0, r5
20001a64:	010a      	lsls	r2, r1, #4
20001a66:	b2d2      	uxtb	r2, r2
20001a68:	3030      	adds	r0, #48	; 0x30
20001a6a:	299f      	cmp	r1, #159	; 0x9f
20001a6c:	d900      	bls.n	20001a70 <usb_serial_init+0x44>
20001a6e:	e0bf      	b.n	20001bf0 <usb_serial_init+0x1c4>
20001a70:	2100      	movs	r1, #0
20001a72:	7098      	strb	r0, [r3, #2]
20001a74:	0910      	lsrs	r0, r2, #4
20001a76:	7061      	strb	r1, [r4, #1]
20001a78:	0001      	movs	r1, r0
20001a7a:	3130      	adds	r1, #48	; 0x30
20001a7c:	2a9f      	cmp	r2, #159	; 0x9f
20001a7e:	d900      	bls.n	20001a82 <usb_serial_init+0x56>
20001a80:	e0b4      	b.n	20001bec <usb_serial_init+0x1c0>
20001a82:	70d9      	strb	r1, [r3, #3]
20001a84:	78a1      	ldrb	r1, [r4, #2]
20001a86:	090d      	lsrs	r5, r1, #4
20001a88:	0028      	movs	r0, r5
20001a8a:	010a      	lsls	r2, r1, #4
20001a8c:	b2d2      	uxtb	r2, r2
20001a8e:	3030      	adds	r0, #48	; 0x30
20001a90:	299f      	cmp	r1, #159	; 0x9f
20001a92:	d900      	bls.n	20001a96 <usb_serial_init+0x6a>
20001a94:	e09f      	b.n	20001bd6 <usb_serial_init+0x1aa>
20001a96:	2100      	movs	r1, #0
20001a98:	7118      	strb	r0, [r3, #4]
20001a9a:	0910      	lsrs	r0, r2, #4
20001a9c:	70a1      	strb	r1, [r4, #2]
20001a9e:	0001      	movs	r1, r0
20001aa0:	3130      	adds	r1, #48	; 0x30
20001aa2:	2a9f      	cmp	r2, #159	; 0x9f
20001aa4:	d900      	bls.n	20001aa8 <usb_serial_init+0x7c>
20001aa6:	e094      	b.n	20001bd2 <usb_serial_init+0x1a6>
20001aa8:	7159      	strb	r1, [r3, #5]
20001aaa:	78e1      	ldrb	r1, [r4, #3]
20001aac:	090d      	lsrs	r5, r1, #4
20001aae:	0028      	movs	r0, r5
20001ab0:	010a      	lsls	r2, r1, #4
20001ab2:	b2d2      	uxtb	r2, r2
20001ab4:	3030      	adds	r0, #48	; 0x30
20001ab6:	299f      	cmp	r1, #159	; 0x9f
20001ab8:	d900      	bls.n	20001abc <usb_serial_init+0x90>
20001aba:	e07f      	b.n	20001bbc <usb_serial_init+0x190>
20001abc:	2100      	movs	r1, #0
20001abe:	7198      	strb	r0, [r3, #6]
20001ac0:	0910      	lsrs	r0, r2, #4
20001ac2:	70e1      	strb	r1, [r4, #3]
20001ac4:	0001      	movs	r1, r0
20001ac6:	3130      	adds	r1, #48	; 0x30
20001ac8:	2a9f      	cmp	r2, #159	; 0x9f
20001aca:	d900      	bls.n	20001ace <usb_serial_init+0xa2>
20001acc:	e074      	b.n	20001bb8 <usb_serial_init+0x18c>
20001ace:	71d9      	strb	r1, [r3, #7]
20001ad0:	7921      	ldrb	r1, [r4, #4]
20001ad2:	090d      	lsrs	r5, r1, #4
20001ad4:	0028      	movs	r0, r5
20001ad6:	010a      	lsls	r2, r1, #4
20001ad8:	b2d2      	uxtb	r2, r2
20001ada:	3030      	adds	r0, #48	; 0x30
20001adc:	299f      	cmp	r1, #159	; 0x9f
20001ade:	d861      	bhi.n	20001ba4 <usb_serial_init+0x178>
20001ae0:	2100      	movs	r1, #0
20001ae2:	7218      	strb	r0, [r3, #8]
20001ae4:	0910      	lsrs	r0, r2, #4
20001ae6:	7121      	strb	r1, [r4, #4]
20001ae8:	0001      	movs	r1, r0
20001aea:	3130      	adds	r1, #48	; 0x30
20001aec:	2a9f      	cmp	r2, #159	; 0x9f
20001aee:	d857      	bhi.n	20001ba0 <usb_serial_init+0x174>
20001af0:	7259      	strb	r1, [r3, #9]
20001af2:	7961      	ldrb	r1, [r4, #5]
20001af4:	090d      	lsrs	r5, r1, #4
20001af6:	0028      	movs	r0, r5
20001af8:	010a      	lsls	r2, r1, #4
20001afa:	b2d2      	uxtb	r2, r2
20001afc:	3030      	adds	r0, #48	; 0x30
20001afe:	299f      	cmp	r1, #159	; 0x9f
20001b00:	d844      	bhi.n	20001b8c <usb_serial_init+0x160>
20001b02:	2100      	movs	r1, #0
20001b04:	7298      	strb	r0, [r3, #10]
20001b06:	0910      	lsrs	r0, r2, #4
20001b08:	7161      	strb	r1, [r4, #5]
20001b0a:	0001      	movs	r1, r0
20001b0c:	3130      	adds	r1, #48	; 0x30
20001b0e:	2a9f      	cmp	r2, #159	; 0x9f
20001b10:	d83a      	bhi.n	20001b88 <usb_serial_init+0x15c>
20001b12:	72d9      	strb	r1, [r3, #11]
20001b14:	79a1      	ldrb	r1, [r4, #6]
20001b16:	090d      	lsrs	r5, r1, #4
20001b18:	0028      	movs	r0, r5
20001b1a:	010a      	lsls	r2, r1, #4
20001b1c:	b2d2      	uxtb	r2, r2
20001b1e:	3030      	adds	r0, #48	; 0x30
20001b20:	299f      	cmp	r1, #159	; 0x9f
20001b22:	d827      	bhi.n	20001b74 <usb_serial_init+0x148>
20001b24:	2100      	movs	r1, #0
20001b26:	7318      	strb	r0, [r3, #12]
20001b28:	0910      	lsrs	r0, r2, #4
20001b2a:	71a1      	strb	r1, [r4, #6]
20001b2c:	0001      	movs	r1, r0
20001b2e:	3130      	adds	r1, #48	; 0x30
20001b30:	2a9f      	cmp	r2, #159	; 0x9f
20001b32:	d81d      	bhi.n	20001b70 <usb_serial_init+0x144>
20001b34:	7359      	strb	r1, [r3, #13]
20001b36:	79e1      	ldrb	r1, [r4, #7]
20001b38:	090d      	lsrs	r5, r1, #4
20001b3a:	0028      	movs	r0, r5
20001b3c:	010a      	lsls	r2, r1, #4
20001b3e:	b2d2      	uxtb	r2, r2
20001b40:	3030      	adds	r0, #48	; 0x30
20001b42:	299f      	cmp	r1, #159	; 0x9f
20001b44:	d80a      	bhi.n	20001b5c <usb_serial_init+0x130>
20001b46:	2100      	movs	r1, #0
20001b48:	7398      	strb	r0, [r3, #14]
20001b4a:	0910      	lsrs	r0, r2, #4
20001b4c:	71e1      	strb	r1, [r4, #7]
20001b4e:	0001      	movs	r1, r0
20001b50:	3137      	adds	r1, #55	; 0x37
20001b52:	2a9f      	cmp	r2, #159	; 0x9f
20001b54:	d800      	bhi.n	20001b58 <usb_serial_init+0x12c>
20001b56:	3907      	subs	r1, #7
20001b58:	73d9      	strb	r1, [r3, #15]
20001b5a:	bd70      	pop	{r4, r5, r6, pc}
20001b5c:	2100      	movs	r1, #0
20001b5e:	3007      	adds	r0, #7
20001b60:	7398      	strb	r0, [r3, #14]
20001b62:	0910      	lsrs	r0, r2, #4
20001b64:	71e1      	strb	r1, [r4, #7]
20001b66:	0001      	movs	r1, r0
20001b68:	3137      	adds	r1, #55	; 0x37
20001b6a:	2a9f      	cmp	r2, #159	; 0x9f
20001b6c:	d8f4      	bhi.n	20001b58 <usb_serial_init+0x12c>
20001b6e:	e7f2      	b.n	20001b56 <usb_serial_init+0x12a>
20001b70:	3107      	adds	r1, #7
20001b72:	e7df      	b.n	20001b34 <usb_serial_init+0x108>
20001b74:	2100      	movs	r1, #0
20001b76:	3007      	adds	r0, #7
20001b78:	7318      	strb	r0, [r3, #12]
20001b7a:	0910      	lsrs	r0, r2, #4
20001b7c:	71a1      	strb	r1, [r4, #6]
20001b7e:	0001      	movs	r1, r0
20001b80:	3130      	adds	r1, #48	; 0x30
20001b82:	2a9f      	cmp	r2, #159	; 0x9f
20001b84:	d9d6      	bls.n	20001b34 <usb_serial_init+0x108>
20001b86:	e7f3      	b.n	20001b70 <usb_serial_init+0x144>
20001b88:	3107      	adds	r1, #7
20001b8a:	e7c2      	b.n	20001b12 <usb_serial_init+0xe6>
20001b8c:	2100      	movs	r1, #0
20001b8e:	3007      	adds	r0, #7
20001b90:	7298      	strb	r0, [r3, #10]
20001b92:	0910      	lsrs	r0, r2, #4
20001b94:	7161      	strb	r1, [r4, #5]
20001b96:	0001      	movs	r1, r0
20001b98:	3130      	adds	r1, #48	; 0x30
20001b9a:	2a9f      	cmp	r2, #159	; 0x9f
20001b9c:	d9b9      	bls.n	20001b12 <usb_serial_init+0xe6>
20001b9e:	e7f3      	b.n	20001b88 <usb_serial_init+0x15c>
20001ba0:	3107      	adds	r1, #7
20001ba2:	e7a5      	b.n	20001af0 <usb_serial_init+0xc4>
20001ba4:	2100      	movs	r1, #0
20001ba6:	3007      	adds	r0, #7
20001ba8:	7218      	strb	r0, [r3, #8]
20001baa:	0910      	lsrs	r0, r2, #4
20001bac:	7121      	strb	r1, [r4, #4]
20001bae:	0001      	movs	r1, r0
20001bb0:	3130      	adds	r1, #48	; 0x30
20001bb2:	2a9f      	cmp	r2, #159	; 0x9f
20001bb4:	d99c      	bls.n	20001af0 <usb_serial_init+0xc4>
20001bb6:	e7f3      	b.n	20001ba0 <usb_serial_init+0x174>
20001bb8:	3107      	adds	r1, #7
20001bba:	e788      	b.n	20001ace <usb_serial_init+0xa2>
20001bbc:	2100      	movs	r1, #0
20001bbe:	3007      	adds	r0, #7
20001bc0:	7198      	strb	r0, [r3, #6]
20001bc2:	0910      	lsrs	r0, r2, #4
20001bc4:	70e1      	strb	r1, [r4, #3]
20001bc6:	0001      	movs	r1, r0
20001bc8:	3130      	adds	r1, #48	; 0x30
20001bca:	2a9f      	cmp	r2, #159	; 0x9f
20001bcc:	d800      	bhi.n	20001bd0 <usb_serial_init+0x1a4>
20001bce:	e77e      	b.n	20001ace <usb_serial_init+0xa2>
20001bd0:	e7f2      	b.n	20001bb8 <usb_serial_init+0x18c>
20001bd2:	3107      	adds	r1, #7
20001bd4:	e768      	b.n	20001aa8 <usb_serial_init+0x7c>
20001bd6:	2100      	movs	r1, #0
20001bd8:	3007      	adds	r0, #7
20001bda:	7118      	strb	r0, [r3, #4]
20001bdc:	0910      	lsrs	r0, r2, #4
20001bde:	70a1      	strb	r1, [r4, #2]
20001be0:	0001      	movs	r1, r0
20001be2:	3130      	adds	r1, #48	; 0x30
20001be4:	2a9f      	cmp	r2, #159	; 0x9f
20001be6:	d800      	bhi.n	20001bea <usb_serial_init+0x1be>
20001be8:	e75e      	b.n	20001aa8 <usb_serial_init+0x7c>
20001bea:	e7f2      	b.n	20001bd2 <usb_serial_init+0x1a6>
20001bec:	3107      	adds	r1, #7
20001bee:	e748      	b.n	20001a82 <usb_serial_init+0x56>
20001bf0:	2100      	movs	r1, #0
20001bf2:	3007      	adds	r0, #7
20001bf4:	7098      	strb	r0, [r3, #2]
20001bf6:	0910      	lsrs	r0, r2, #4
20001bf8:	7061      	strb	r1, [r4, #1]
20001bfa:	0001      	movs	r1, r0
20001bfc:	3130      	adds	r1, #48	; 0x30
20001bfe:	2a9f      	cmp	r2, #159	; 0x9f
20001c00:	d800      	bhi.n	20001c04 <usb_serial_init+0x1d8>
20001c02:	e73e      	b.n	20001a82 <usb_serial_init+0x56>
20001c04:	e7f2      	b.n	20001bec <usb_serial_init+0x1c0>
20001c06:	3107      	adds	r1, #7
20001c08:	e728      	b.n	20001a5c <usb_serial_init+0x30>
20001c0a:	46c0      	nop			; (mov r8, r8)
20001c0c:	200117c0 	.word	0x200117c0
20001c10:	200217d8 	.word	0x200217d8

20001c14 <JTAG_Sequence>:
20001c14:	b5f0      	push	{r4, r5, r6, r7, lr}
20001c16:	233f      	movs	r3, #63	; 0x3f
20001c18:	4645      	mov	r5, r8
20001c1a:	46de      	mov	lr, fp
20001c1c:	4657      	mov	r7, sl
20001c1e:	464e      	mov	r6, r9
20001c20:	b5e0      	push	{r5, r6, r7, lr}
20001c22:	001d      	movs	r5, r3
20001c24:	b083      	sub	sp, #12
20001c26:	9201      	str	r2, [sp, #4]
20001c28:	4005      	ands	r5, r0
20001c2a:	4203      	tst	r3, r0
20001c2c:	d100      	bne.n	20001c30 <JTAG_Sequence+0x1c>
20001c2e:	2540      	movs	r5, #64	; 0x40
20001c30:	0643      	lsls	r3, r0, #25
20001c32:	d400      	bmi.n	20001c36 <JTAG_Sequence+0x22>
20001c34:	e0fd      	b.n	20001e32 <JTAG_Sequence+0x21e>
20001c36:	23d0      	movs	r3, #208	; 0xd0
20001c38:	2202      	movs	r2, #2
20001c3a:	061b      	lsls	r3, r3, #24
20001c3c:	615a      	str	r2, [r3, #20]
20001c3e:	2380      	movs	r3, #128	; 0x80
20001c40:	2201      	movs	r2, #1
20001c42:	4003      	ands	r3, r0
20001c44:	9300      	str	r3, [sp, #0]
20001c46:	4b82      	ldr	r3, [pc, #520]	; (20001e50 <JTAG_Sequence+0x23c>)
20001c48:	4691      	mov	r9, r2
20001c4a:	469b      	mov	fp, r3
20001c4c:	32fe      	adds	r2, #254	; 0xfe
20001c4e:	23d0      	movs	r3, #208	; 0xd0
20001c50:	4688      	mov	r8, r1
20001c52:	2401      	movs	r4, #1
20001c54:	4694      	mov	ip, r2
20001c56:	061b      	lsls	r3, r3, #24
20001c58:	4642      	mov	r2, r8
20001c5a:	2704      	movs	r7, #4
20001c5c:	7810      	ldrb	r0, [r2, #0]
20001c5e:	6919      	ldr	r1, [r3, #16]
20001c60:	0082      	lsls	r2, r0, #2
20001c62:	404a      	eors	r2, r1
20001c64:	403a      	ands	r2, r7
20001c66:	61da      	str	r2, [r3, #28]
20001c68:	464a      	mov	r2, r9
20001c6a:	619a      	str	r2, [r3, #24]
20001c6c:	465a      	mov	r2, fp
20001c6e:	6851      	ldr	r1, [r2, #4]
20001c70:	000a      	movs	r2, r1
20001c72:	3a01      	subs	r2, #1
20001c74:	d1fd      	bne.n	20001c72 <JTAG_Sequence+0x5e>
20001c76:	464e      	mov	r6, r9
20001c78:	685a      	ldr	r2, [r3, #4]
20001c7a:	615e      	str	r6, [r3, #20]
20001c7c:	000e      	movs	r6, r1
20001c7e:	3e01      	subs	r6, #1
20001c80:	d1fd      	bne.n	20001c7e <JTAG_Sequence+0x6a>
20001c82:	4667      	mov	r7, ip
20001c84:	08d2      	lsrs	r2, r2, #3
20001c86:	01d2      	lsls	r2, r2, #7
20001c88:	0846      	lsrs	r6, r0, #1
20001c8a:	403a      	ands	r2, r7
20001c8c:	2d01      	cmp	r5, #1
20001c8e:	d100      	bne.n	20001c92 <JTAG_Sequence+0x7e>
20001c90:	e0c1      	b.n	20001e16 <JTAG_Sequence+0x202>
20001c92:	691f      	ldr	r7, [r3, #16]
20001c94:	00b6      	lsls	r6, r6, #2
20001c96:	407e      	eors	r6, r7
20001c98:	2704      	movs	r7, #4
20001c9a:	403e      	ands	r6, r7
20001c9c:	61de      	str	r6, [r3, #28]
20001c9e:	000e      	movs	r6, r1
20001ca0:	619c      	str	r4, [r3, #24]
20001ca2:	3e01      	subs	r6, #1
20001ca4:	d1fd      	bne.n	20001ca2 <JTAG_Sequence+0x8e>
20001ca6:	685e      	ldr	r6, [r3, #4]
20001ca8:	000f      	movs	r7, r1
20001caa:	615c      	str	r4, [r3, #20]
20001cac:	3f01      	subs	r7, #1
20001cae:	d1fd      	bne.n	20001cac <JTAG_Sequence+0x98>
20001cb0:	4667      	mov	r7, ip
20001cb2:	08f6      	lsrs	r6, r6, #3
20001cb4:	01f6      	lsls	r6, r6, #7
20001cb6:	0852      	lsrs	r2, r2, #1
20001cb8:	403e      	ands	r6, r7
20001cba:	4332      	orrs	r2, r6
20001cbc:	2d02      	cmp	r5, #2
20001cbe:	d100      	bne.n	20001cc2 <JTAG_Sequence+0xae>
20001cc0:	e0bc      	b.n	20001e3c <JTAG_Sequence+0x228>
20001cc2:	691e      	ldr	r6, [r3, #16]
20001cc4:	2703      	movs	r7, #3
20001cc6:	46b2      	mov	sl, r6
20001cc8:	0006      	movs	r6, r0
20001cca:	43be      	bics	r6, r7
20001ccc:	4657      	mov	r7, sl
20001cce:	407e      	eors	r6, r7
20001cd0:	2704      	movs	r7, #4
20001cd2:	403e      	ands	r6, r7
20001cd4:	61de      	str	r6, [r3, #28]
20001cd6:	000e      	movs	r6, r1
20001cd8:	619c      	str	r4, [r3, #24]
20001cda:	3e01      	subs	r6, #1
20001cdc:	d1fd      	bne.n	20001cda <JTAG_Sequence+0xc6>
20001cde:	685e      	ldr	r6, [r3, #4]
20001ce0:	000f      	movs	r7, r1
20001ce2:	615c      	str	r4, [r3, #20]
20001ce4:	3f01      	subs	r7, #1
20001ce6:	d1fd      	bne.n	20001ce4 <JTAG_Sequence+0xd0>
20001ce8:	08c7      	lsrs	r7, r0, #3
20001cea:	46ba      	mov	sl, r7
20001cec:	4667      	mov	r7, ip
20001cee:	08f6      	lsrs	r6, r6, #3
20001cf0:	01f6      	lsls	r6, r6, #7
20001cf2:	0852      	lsrs	r2, r2, #1
20001cf4:	403e      	ands	r6, r7
20001cf6:	4332      	orrs	r2, r6
20001cf8:	2d03      	cmp	r5, #3
20001cfa:	d100      	bne.n	20001cfe <JTAG_Sequence+0xea>
20001cfc:	e0a0      	b.n	20001e40 <JTAG_Sequence+0x22c>
20001cfe:	4657      	mov	r7, sl
20001d00:	691e      	ldr	r6, [r3, #16]
20001d02:	00bf      	lsls	r7, r7, #2
20001d04:	407e      	eors	r6, r7
20001d06:	2704      	movs	r7, #4
20001d08:	403e      	ands	r6, r7
20001d0a:	61de      	str	r6, [r3, #28]
20001d0c:	000e      	movs	r6, r1
20001d0e:	619c      	str	r4, [r3, #24]
20001d10:	3e01      	subs	r6, #1
20001d12:	d1fd      	bne.n	20001d10 <JTAG_Sequence+0xfc>
20001d14:	685e      	ldr	r6, [r3, #4]
20001d16:	000f      	movs	r7, r1
20001d18:	615c      	str	r4, [r3, #20]
20001d1a:	3f01      	subs	r7, #1
20001d1c:	d1fd      	bne.n	20001d1a <JTAG_Sequence+0x106>
20001d1e:	0907      	lsrs	r7, r0, #4
20001d20:	46ba      	mov	sl, r7
20001d22:	4667      	mov	r7, ip
20001d24:	08f6      	lsrs	r6, r6, #3
20001d26:	01f6      	lsls	r6, r6, #7
20001d28:	0852      	lsrs	r2, r2, #1
20001d2a:	403e      	ands	r6, r7
20001d2c:	4332      	orrs	r2, r6
20001d2e:	2d04      	cmp	r5, #4
20001d30:	d100      	bne.n	20001d34 <JTAG_Sequence+0x120>
20001d32:	e071      	b.n	20001e18 <JTAG_Sequence+0x204>
20001d34:	4657      	mov	r7, sl
20001d36:	691e      	ldr	r6, [r3, #16]
20001d38:	00bf      	lsls	r7, r7, #2
20001d3a:	407e      	eors	r6, r7
20001d3c:	2704      	movs	r7, #4
20001d3e:	403e      	ands	r6, r7
20001d40:	61de      	str	r6, [r3, #28]
20001d42:	000e      	movs	r6, r1
20001d44:	619c      	str	r4, [r3, #24]
20001d46:	3e01      	subs	r6, #1
20001d48:	d1fd      	bne.n	20001d46 <JTAG_Sequence+0x132>
20001d4a:	685e      	ldr	r6, [r3, #4]
20001d4c:	000f      	movs	r7, r1
20001d4e:	615c      	str	r4, [r3, #20]
20001d50:	3f01      	subs	r7, #1
20001d52:	d1fd      	bne.n	20001d50 <JTAG_Sequence+0x13c>
20001d54:	0947      	lsrs	r7, r0, #5
20001d56:	46ba      	mov	sl, r7
20001d58:	4667      	mov	r7, ip
20001d5a:	08f6      	lsrs	r6, r6, #3
20001d5c:	01f6      	lsls	r6, r6, #7
20001d5e:	0852      	lsrs	r2, r2, #1
20001d60:	403e      	ands	r6, r7
20001d62:	4332      	orrs	r2, r6
20001d64:	2d05      	cmp	r5, #5
20001d66:	d100      	bne.n	20001d6a <JTAG_Sequence+0x156>
20001d68:	e06c      	b.n	20001e44 <JTAG_Sequence+0x230>
20001d6a:	4657      	mov	r7, sl
20001d6c:	691e      	ldr	r6, [r3, #16]
20001d6e:	00bf      	lsls	r7, r7, #2
20001d70:	407e      	eors	r6, r7
20001d72:	2704      	movs	r7, #4
20001d74:	403e      	ands	r6, r7
20001d76:	61de      	str	r6, [r3, #28]
20001d78:	000e      	movs	r6, r1
20001d7a:	619c      	str	r4, [r3, #24]
20001d7c:	3e01      	subs	r6, #1
20001d7e:	d1fd      	bne.n	20001d7c <JTAG_Sequence+0x168>
20001d80:	685e      	ldr	r6, [r3, #4]
20001d82:	000f      	movs	r7, r1
20001d84:	615c      	str	r4, [r3, #20]
20001d86:	3f01      	subs	r7, #1
20001d88:	d1fd      	bne.n	20001d86 <JTAG_Sequence+0x172>
20001d8a:	0987      	lsrs	r7, r0, #6
20001d8c:	46ba      	mov	sl, r7
20001d8e:	4667      	mov	r7, ip
20001d90:	08f6      	lsrs	r6, r6, #3
20001d92:	01f6      	lsls	r6, r6, #7
20001d94:	0852      	lsrs	r2, r2, #1
20001d96:	403e      	ands	r6, r7
20001d98:	4332      	orrs	r2, r6
20001d9a:	2d06      	cmp	r5, #6
20001d9c:	d100      	bne.n	20001da0 <JTAG_Sequence+0x18c>
20001d9e:	e053      	b.n	20001e48 <JTAG_Sequence+0x234>
20001da0:	4657      	mov	r7, sl
20001da2:	691e      	ldr	r6, [r3, #16]
20001da4:	00bf      	lsls	r7, r7, #2
20001da6:	407e      	eors	r6, r7
20001da8:	2704      	movs	r7, #4
20001daa:	403e      	ands	r6, r7
20001dac:	61de      	str	r6, [r3, #28]
20001dae:	000e      	movs	r6, r1
20001db0:	619c      	str	r4, [r3, #24]
20001db2:	3e01      	subs	r6, #1
20001db4:	d1fd      	bne.n	20001db2 <JTAG_Sequence+0x19e>
20001db6:	685e      	ldr	r6, [r3, #4]
20001db8:	000f      	movs	r7, r1
20001dba:	615c      	str	r4, [r3, #20]
20001dbc:	3f01      	subs	r7, #1
20001dbe:	d1fd      	bne.n	20001dbc <JTAG_Sequence+0x1a8>
20001dc0:	4667      	mov	r7, ip
20001dc2:	08f6      	lsrs	r6, r6, #3
20001dc4:	01f6      	lsls	r6, r6, #7
20001dc6:	0852      	lsrs	r2, r2, #1
20001dc8:	403e      	ands	r6, r7
20001dca:	09c0      	lsrs	r0, r0, #7
20001dcc:	4332      	orrs	r2, r6
20001dce:	2d07      	cmp	r5, #7
20001dd0:	d03c      	beq.n	20001e4c <JTAG_Sequence+0x238>
20001dd2:	691e      	ldr	r6, [r3, #16]
20001dd4:	0080      	lsls	r0, r0, #2
20001dd6:	4070      	eors	r0, r6
20001dd8:	2604      	movs	r6, #4
20001dda:	4030      	ands	r0, r6
20001ddc:	61d8      	str	r0, [r3, #28]
20001dde:	0008      	movs	r0, r1
20001de0:	619c      	str	r4, [r3, #24]
20001de2:	3801      	subs	r0, #1
20001de4:	d1fd      	bne.n	20001de2 <JTAG_Sequence+0x1ce>
20001de6:	6858      	ldr	r0, [r3, #4]
20001de8:	615c      	str	r4, [r3, #20]
20001dea:	3901      	subs	r1, #1
20001dec:	d1fd      	bne.n	20001dea <JTAG_Sequence+0x1d6>
20001dee:	9900      	ldr	r1, [sp, #0]
20001df0:	3d08      	subs	r5, #8
20001df2:	2900      	cmp	r1, #0
20001df4:	d008      	beq.n	20001e08 <JTAG_Sequence+0x1f4>
20001df6:	0851      	lsrs	r1, r2, #1
20001df8:	08c2      	lsrs	r2, r0, #3
20001dfa:	01d2      	lsls	r2, r2, #7
20001dfc:	403a      	ands	r2, r7
20001dfe:	430a      	orrs	r2, r1
20001e00:	9901      	ldr	r1, [sp, #4]
20001e02:	700a      	strb	r2, [r1, #0]
20001e04:	1c4a      	adds	r2, r1, #1
20001e06:	9201      	str	r2, [sp, #4]
20001e08:	2201      	movs	r2, #1
20001e0a:	4692      	mov	sl, r2
20001e0c:	44d0      	add	r8, sl
20001e0e:	2d00      	cmp	r5, #0
20001e10:	d000      	beq.n	20001e14 <JTAG_Sequence+0x200>
20001e12:	e721      	b.n	20001c58 <JTAG_Sequence+0x44>
20001e14:	e006      	b.n	20001e24 <JTAG_Sequence+0x210>
20001e16:	2507      	movs	r5, #7
20001e18:	9b00      	ldr	r3, [sp, #0]
20001e1a:	2b00      	cmp	r3, #0
20001e1c:	d002      	beq.n	20001e24 <JTAG_Sequence+0x210>
20001e1e:	40ea      	lsrs	r2, r5
20001e20:	9b01      	ldr	r3, [sp, #4]
20001e22:	701a      	strb	r2, [r3, #0]
20001e24:	b003      	add	sp, #12
20001e26:	bcf0      	pop	{r4, r5, r6, r7}
20001e28:	46bb      	mov	fp, r7
20001e2a:	46b2      	mov	sl, r6
20001e2c:	46a9      	mov	r9, r5
20001e2e:	46a0      	mov	r8, r4
20001e30:	bdf0      	pop	{r4, r5, r6, r7, pc}
20001e32:	23d0      	movs	r3, #208	; 0xd0
20001e34:	2202      	movs	r2, #2
20001e36:	061b      	lsls	r3, r3, #24
20001e38:	619a      	str	r2, [r3, #24]
20001e3a:	e700      	b.n	20001c3e <JTAG_Sequence+0x2a>
20001e3c:	2506      	movs	r5, #6
20001e3e:	e7eb      	b.n	20001e18 <JTAG_Sequence+0x204>
20001e40:	2505      	movs	r5, #5
20001e42:	e7e9      	b.n	20001e18 <JTAG_Sequence+0x204>
20001e44:	2503      	movs	r5, #3
20001e46:	e7e7      	b.n	20001e18 <JTAG_Sequence+0x204>
20001e48:	2502      	movs	r5, #2
20001e4a:	e7e5      	b.n	20001e18 <JTAG_Sequence+0x204>
20001e4c:	2501      	movs	r5, #1
20001e4e:	e7e3      	b.n	20001e18 <JTAG_Sequence+0x204>
20001e50:	2000b95c 	.word	0x2000b95c

20001e54 <JTAG_ReadIDCode>:
20001e54:	22d0      	movs	r2, #208	; 0xd0
20001e56:	b5f0      	push	{r4, r5, r6, r7, lr}
20001e58:	2301      	movs	r3, #1
20001e5a:	2402      	movs	r4, #2
20001e5c:	0612      	lsls	r2, r2, #24
20001e5e:	4833      	ldr	r0, [pc, #204]	; (20001f2c <JTAG_ReadIDCode+0xd8>)
20001e60:	6154      	str	r4, [r2, #20]
20001e62:	6193      	str	r3, [r2, #24]
20001e64:	6841      	ldr	r1, [r0, #4]
20001e66:	000d      	movs	r5, r1
20001e68:	3d01      	subs	r5, #1
20001e6a:	d1fd      	bne.n	20001e68 <JTAG_ReadIDCode+0x14>
20001e6c:	000d      	movs	r5, r1
20001e6e:	6153      	str	r3, [r2, #20]
20001e70:	3d01      	subs	r5, #1
20001e72:	d1fd      	bne.n	20001e70 <JTAG_ReadIDCode+0x1c>
20001e74:	6194      	str	r4, [r2, #24]
20001e76:	000c      	movs	r4, r1
20001e78:	6193      	str	r3, [r2, #24]
20001e7a:	3c01      	subs	r4, #1
20001e7c:	d1fd      	bne.n	20001e7a <JTAG_ReadIDCode+0x26>
20001e7e:	000c      	movs	r4, r1
20001e80:	6153      	str	r3, [r2, #20]
20001e82:	3c01      	subs	r4, #1
20001e84:	d1fd      	bne.n	20001e82 <JTAG_ReadIDCode+0x2e>
20001e86:	000c      	movs	r4, r1
20001e88:	6193      	str	r3, [r2, #24]
20001e8a:	3c01      	subs	r4, #1
20001e8c:	d1fd      	bne.n	20001e8a <JTAG_ReadIDCode+0x36>
20001e8e:	6153      	str	r3, [r2, #20]
20001e90:	000b      	movs	r3, r1
20001e92:	3b01      	subs	r3, #1
20001e94:	d1fd      	bne.n	20001e92 <JTAG_ReadIDCode+0x3e>
20001e96:	7ec3      	ldrb	r3, [r0, #27]
20001e98:	2b00      	cmp	r3, #0
20001e9a:	d00b      	beq.n	20001eb4 <JTAG_ReadIDCode+0x60>
20001e9c:	2401      	movs	r4, #1
20001e9e:	0008      	movs	r0, r1
20001ea0:	6194      	str	r4, [r2, #24]
20001ea2:	3801      	subs	r0, #1
20001ea4:	d1fd      	bne.n	20001ea2 <JTAG_ReadIDCode+0x4e>
20001ea6:	0008      	movs	r0, r1
20001ea8:	6154      	str	r4, [r2, #20]
20001eaa:	3801      	subs	r0, #1
20001eac:	d1fd      	bne.n	20001eaa <JTAG_ReadIDCode+0x56>
20001eae:	3b01      	subs	r3, #1
20001eb0:	2b00      	cmp	r3, #0
20001eb2:	d1f4      	bne.n	20001e9e <JTAG_ReadIDCode+0x4a>
20001eb4:	2301      	movs	r3, #1
20001eb6:	22d0      	movs	r2, #208	; 0xd0
20001eb8:	241f      	movs	r4, #31
20001eba:	2600      	movs	r6, #0
20001ebc:	469c      	mov	ip, r3
20001ebe:	2701      	movs	r7, #1
20001ec0:	0612      	lsls	r2, r2, #24
20001ec2:	000b      	movs	r3, r1
20001ec4:	6197      	str	r7, [r2, #24]
20001ec6:	3b01      	subs	r3, #1
20001ec8:	d1fd      	bne.n	20001ec6 <JTAG_ReadIDCode+0x72>
20001eca:	6853      	ldr	r3, [r2, #4]
20001ecc:	000d      	movs	r5, r1
20001ece:	6157      	str	r7, [r2, #20]
20001ed0:	3d01      	subs	r5, #1
20001ed2:	d1fd      	bne.n	20001ed0 <JTAG_ReadIDCode+0x7c>
20001ed4:	08db      	lsrs	r3, r3, #3
20001ed6:	07db      	lsls	r3, r3, #31
20001ed8:	431e      	orrs	r6, r3
20001eda:	3c01      	subs	r4, #1
20001edc:	0876      	lsrs	r6, r6, #1
20001ede:	2c00      	cmp	r4, #0
20001ee0:	d1ef      	bne.n	20001ec2 <JTAG_ReadIDCode+0x6e>
20001ee2:	4660      	mov	r0, ip
20001ee4:	2302      	movs	r3, #2
20001ee6:	6153      	str	r3, [r2, #20]
20001ee8:	6190      	str	r0, [r2, #24]
20001eea:	0008      	movs	r0, r1
20001eec:	3801      	subs	r0, #1
20001eee:	d1fd      	bne.n	20001eec <JTAG_ReadIDCode+0x98>
20001ef0:	4664      	mov	r4, ip
20001ef2:	6850      	ldr	r0, [r2, #4]
20001ef4:	6154      	str	r4, [r2, #20]
20001ef6:	000c      	movs	r4, r1
20001ef8:	3c01      	subs	r4, #1
20001efa:	d1fd      	bne.n	20001ef8 <JTAG_ReadIDCode+0xa4>
20001efc:	4664      	mov	r4, ip
20001efe:	6194      	str	r4, [r2, #24]
20001f00:	000c      	movs	r4, r1
20001f02:	3c01      	subs	r4, #1
20001f04:	d1fd      	bne.n	20001f02 <JTAG_ReadIDCode+0xae>
20001f06:	4664      	mov	r4, ip
20001f08:	6154      	str	r4, [r2, #20]
20001f0a:	000c      	movs	r4, r1
20001f0c:	3c01      	subs	r4, #1
20001f0e:	d1fd      	bne.n	20001f0c <JTAG_ReadIDCode+0xb8>
20001f10:	6193      	str	r3, [r2, #24]
20001f12:	4663      	mov	r3, ip
20001f14:	6193      	str	r3, [r2, #24]
20001f16:	000b      	movs	r3, r1
20001f18:	3b01      	subs	r3, #1
20001f1a:	d1fd      	bne.n	20001f18 <JTAG_ReadIDCode+0xc4>
20001f1c:	4663      	mov	r3, ip
20001f1e:	6153      	str	r3, [r2, #20]
20001f20:	3901      	subs	r1, #1
20001f22:	d1fd      	bne.n	20001f20 <JTAG_ReadIDCode+0xcc>
20001f24:	08c0      	lsrs	r0, r0, #3
20001f26:	07c0      	lsls	r0, r0, #31
20001f28:	4330      	orrs	r0, r6
20001f2a:	bdf0      	pop	{r4, r5, r6, r7, pc}
20001f2c:	2000b95c 	.word	0x2000b95c

20001f30 <JTAG_WriteAbort>:
20001f30:	22d0      	movs	r2, #208	; 0xd0
20001f32:	b5f0      	push	{r4, r5, r6, r7, lr}
20001f34:	2301      	movs	r3, #1
20001f36:	46ce      	mov	lr, r9
20001f38:	4647      	mov	r7, r8
20001f3a:	2402      	movs	r4, #2
20001f3c:	4962      	ldr	r1, [pc, #392]	; (200020c8 <JTAG_WriteAbort+0x198>)
20001f3e:	0612      	lsls	r2, r2, #24
20001f40:	b580      	push	{r7, lr}
20001f42:	6154      	str	r4, [r2, #20]
20001f44:	6193      	str	r3, [r2, #24]
20001f46:	468c      	mov	ip, r1
20001f48:	6849      	ldr	r1, [r1, #4]
20001f4a:	000d      	movs	r5, r1
20001f4c:	3d01      	subs	r5, #1
20001f4e:	d1fd      	bne.n	20001f4c <JTAG_WriteAbort+0x1c>
20001f50:	000d      	movs	r5, r1
20001f52:	6153      	str	r3, [r2, #20]
20001f54:	3d01      	subs	r5, #1
20001f56:	d1fd      	bne.n	20001f54 <JTAG_WriteAbort+0x24>
20001f58:	6194      	str	r4, [r2, #24]
20001f5a:	000c      	movs	r4, r1
20001f5c:	6193      	str	r3, [r2, #24]
20001f5e:	3c01      	subs	r4, #1
20001f60:	d1fd      	bne.n	20001f5e <JTAG_WriteAbort+0x2e>
20001f62:	000c      	movs	r4, r1
20001f64:	6153      	str	r3, [r2, #20]
20001f66:	3c01      	subs	r4, #1
20001f68:	d1fd      	bne.n	20001f66 <JTAG_WriteAbort+0x36>
20001f6a:	000c      	movs	r4, r1
20001f6c:	6193      	str	r3, [r2, #24]
20001f6e:	3c01      	subs	r4, #1
20001f70:	d1fd      	bne.n	20001f6e <JTAG_WriteAbort+0x3e>
20001f72:	6153      	str	r3, [r2, #20]
20001f74:	000b      	movs	r3, r1
20001f76:	3b01      	subs	r3, #1
20001f78:	d1fd      	bne.n	20001f76 <JTAG_WriteAbort+0x46>
20001f7a:	4663      	mov	r3, ip
20001f7c:	7edb      	ldrb	r3, [r3, #27]
20001f7e:	4699      	mov	r9, r3
20001f80:	2b00      	cmp	r3, #0
20001f82:	d00b      	beq.n	20001f9c <JTAG_WriteAbort+0x6c>
20001f84:	2501      	movs	r5, #1
20001f86:	000c      	movs	r4, r1
20001f88:	6195      	str	r5, [r2, #24]
20001f8a:	3c01      	subs	r4, #1
20001f8c:	d1fd      	bne.n	20001f8a <JTAG_WriteAbort+0x5a>
20001f8e:	000c      	movs	r4, r1
20001f90:	6155      	str	r5, [r2, #20]
20001f92:	3c01      	subs	r4, #1
20001f94:	d1fd      	bne.n	20001f92 <JTAG_WriteAbort+0x62>
20001f96:	3b01      	subs	r3, #1
20001f98:	2b00      	cmp	r3, #0
20001f9a:	d1f4      	bne.n	20001f86 <JTAG_WriteAbort+0x56>
20001f9c:	22d0      	movs	r2, #208	; 0xd0
20001f9e:	2304      	movs	r3, #4
20001fa0:	0612      	lsls	r2, r2, #24
20001fa2:	6914      	ldr	r4, [r2, #16]
20001fa4:	4023      	ands	r3, r4
20001fa6:	61d3      	str	r3, [r2, #28]
20001fa8:	2301      	movs	r3, #1
20001faa:	000c      	movs	r4, r1
20001fac:	6193      	str	r3, [r2, #24]
20001fae:	3c01      	subs	r4, #1
20001fb0:	d1fd      	bne.n	20001fae <JTAG_WriteAbort+0x7e>
20001fb2:	6153      	str	r3, [r2, #20]
20001fb4:	000c      	movs	r4, r1
20001fb6:	3c01      	subs	r4, #1
20001fb8:	d1fd      	bne.n	20001fb6 <JTAG_WriteAbort+0x86>
20001fba:	6193      	str	r3, [r2, #24]
20001fbc:	000c      	movs	r4, r1
20001fbe:	3c01      	subs	r4, #1
20001fc0:	d1fd      	bne.n	20001fbe <JTAG_WriteAbort+0x8e>
20001fc2:	6153      	str	r3, [r2, #20]
20001fc4:	000c      	movs	r4, r1
20001fc6:	3c01      	subs	r4, #1
20001fc8:	d1fd      	bne.n	20001fc6 <JTAG_WriteAbort+0x96>
20001fca:	6193      	str	r3, [r2, #24]
20001fcc:	000c      	movs	r4, r1
20001fce:	3c01      	subs	r4, #1
20001fd0:	d1fd      	bne.n	20001fce <JTAG_WriteAbort+0x9e>
20001fd2:	6153      	str	r3, [r2, #20]
20001fd4:	000b      	movs	r3, r1
20001fd6:	3b01      	subs	r3, #1
20001fd8:	d1fd      	bne.n	20001fd6 <JTAG_WriteAbort+0xa6>
20001fda:	2301      	movs	r3, #1
20001fdc:	241f      	movs	r4, #31
20001fde:	2604      	movs	r6, #4
20001fe0:	4698      	mov	r8, r3
20001fe2:	2501      	movs	r5, #1
20001fe4:	6917      	ldr	r7, [r2, #16]
20001fe6:	0083      	lsls	r3, r0, #2
20001fe8:	407b      	eors	r3, r7
20001fea:	4033      	ands	r3, r6
20001fec:	61d3      	str	r3, [r2, #28]
20001fee:	000b      	movs	r3, r1
20001ff0:	6195      	str	r5, [r2, #24]
20001ff2:	3b01      	subs	r3, #1
20001ff4:	d1fd      	bne.n	20001ff2 <JTAG_WriteAbort+0xc2>
20001ff6:	000b      	movs	r3, r1
20001ff8:	6155      	str	r5, [r2, #20]
20001ffa:	3b01      	subs	r3, #1
20001ffc:	d1fd      	bne.n	20001ffa <JTAG_WriteAbort+0xca>
20001ffe:	3c01      	subs	r4, #1
20002000:	0840      	lsrs	r0, r0, #1
20002002:	2c00      	cmp	r4, #0
20002004:	d1ee      	bne.n	20001fe4 <JTAG_WriteAbort+0xb4>
20002006:	4663      	mov	r3, ip
20002008:	464c      	mov	r4, r9
2000200a:	7e9b      	ldrb	r3, [r3, #26]
2000200c:	1b1f      	subs	r7, r3, r4
2000200e:	2f01      	cmp	r7, #1
20002010:	d100      	bne.n	20002014 <JTAG_WriteAbort+0xe4>
20002012:	e048      	b.n	200020a6 <JTAG_WriteAbort+0x176>
20002014:	6913      	ldr	r3, [r2, #16]
20002016:	0080      	lsls	r0, r0, #2
20002018:	4058      	eors	r0, r3
2000201a:	4643      	mov	r3, r8
2000201c:	4006      	ands	r6, r0
2000201e:	61d6      	str	r6, [r2, #28]
20002020:	6193      	str	r3, [r2, #24]
20002022:	000b      	movs	r3, r1
20002024:	3b01      	subs	r3, #1
20002026:	d1fd      	bne.n	20002024 <JTAG_WriteAbort+0xf4>
20002028:	4643      	mov	r3, r8
2000202a:	6153      	str	r3, [r2, #20]
2000202c:	000b      	movs	r3, r1
2000202e:	3b01      	subs	r3, #1
20002030:	d1fd      	bne.n	2000202e <JTAG_WriteAbort+0xfe>
20002032:	1ebb      	subs	r3, r7, #2
20002034:	2f02      	cmp	r7, #2
20002036:	d00d      	beq.n	20002054 <JTAG_WriteAbort+0x124>
20002038:	24d0      	movs	r4, #208	; 0xd0
2000203a:	2001      	movs	r0, #1
2000203c:	0624      	lsls	r4, r4, #24
2000203e:	000a      	movs	r2, r1
20002040:	61a0      	str	r0, [r4, #24]
20002042:	3a01      	subs	r2, #1
20002044:	d1fd      	bne.n	20002042 <JTAG_WriteAbort+0x112>
20002046:	000a      	movs	r2, r1
20002048:	6160      	str	r0, [r4, #20]
2000204a:	3a01      	subs	r2, #1
2000204c:	d1fd      	bne.n	2000204a <JTAG_WriteAbort+0x11a>
2000204e:	3b01      	subs	r3, #1
20002050:	2b00      	cmp	r3, #0
20002052:	d1f4      	bne.n	2000203e <JTAG_WriteAbort+0x10e>
20002054:	23d0      	movs	r3, #208	; 0xd0
20002056:	2202      	movs	r2, #2
20002058:	061b      	lsls	r3, r3, #24
2000205a:	615a      	str	r2, [r3, #20]
2000205c:	3a01      	subs	r2, #1
2000205e:	619a      	str	r2, [r3, #24]
20002060:	0008      	movs	r0, r1
20002062:	3801      	subs	r0, #1
20002064:	d1fd      	bne.n	20002062 <JTAG_WriteAbort+0x132>
20002066:	615a      	str	r2, [r3, #20]
20002068:	000b      	movs	r3, r1
2000206a:	3b01      	subs	r3, #1
2000206c:	d1fd      	bne.n	2000206a <JTAG_WriteAbort+0x13a>
2000206e:	23d0      	movs	r3, #208	; 0xd0
20002070:	2201      	movs	r2, #1
20002072:	061b      	lsls	r3, r3, #24
20002074:	619a      	str	r2, [r3, #24]
20002076:	0008      	movs	r0, r1
20002078:	3801      	subs	r0, #1
2000207a:	d1fd      	bne.n	20002078 <JTAG_WriteAbort+0x148>
2000207c:	615a      	str	r2, [r3, #20]
2000207e:	0008      	movs	r0, r1
20002080:	3801      	subs	r0, #1
20002082:	d1fd      	bne.n	20002080 <JTAG_WriteAbort+0x150>
20002084:	2002      	movs	r0, #2
20002086:	6198      	str	r0, [r3, #24]
20002088:	619a      	str	r2, [r3, #24]
2000208a:	0008      	movs	r0, r1
2000208c:	3801      	subs	r0, #1
2000208e:	d1fd      	bne.n	2000208c <JTAG_WriteAbort+0x15c>
20002090:	615a      	str	r2, [r3, #20]
20002092:	3901      	subs	r1, #1
20002094:	d1fd      	bne.n	20002092 <JTAG_WriteAbort+0x162>
20002096:	6919      	ldr	r1, [r3, #16]
20002098:	3203      	adds	r2, #3
2000209a:	438a      	bics	r2, r1
2000209c:	61da      	str	r2, [r3, #28]
2000209e:	bcc0      	pop	{r6, r7}
200020a0:	46b9      	mov	r9, r7
200020a2:	46b0      	mov	r8, r6
200020a4:	bdf0      	pop	{r4, r5, r6, r7, pc}
200020a6:	2302      	movs	r3, #2
200020a8:	6153      	str	r3, [r2, #20]
200020aa:	6913      	ldr	r3, [r2, #16]
200020ac:	0080      	lsls	r0, r0, #2
200020ae:	4058      	eors	r0, r3
200020b0:	4030      	ands	r0, r6
200020b2:	61d0      	str	r0, [r2, #28]
200020b4:	000b      	movs	r3, r1
200020b6:	6197      	str	r7, [r2, #24]
200020b8:	3b01      	subs	r3, #1
200020ba:	d1fd      	bne.n	200020b8 <JTAG_WriteAbort+0x188>
200020bc:	000b      	movs	r3, r1
200020be:	6157      	str	r7, [r2, #20]
200020c0:	3b01      	subs	r3, #1
200020c2:	d1fd      	bne.n	200020c0 <JTAG_WriteAbort+0x190>
200020c4:	e7d3      	b.n	2000206e <JTAG_WriteAbort+0x13e>
200020c6:	46c0      	nop			; (mov r8, r8)
200020c8:	2000b95c 	.word	0x2000b95c

200020cc <JTAG_IR>:
200020cc:	b5f0      	push	{r4, r5, r6, r7, lr}
200020ce:	46ce      	mov	lr, r9
200020d0:	4647      	mov	r7, r8
200020d2:	b580      	push	{r7, lr}
200020d4:	4c85      	ldr	r4, [pc, #532]	; (200022ec <JTAG_IR+0x220>)
200020d6:	7863      	ldrb	r3, [r4, #1]
200020d8:	2b00      	cmp	r3, #0
200020da:	d05b      	beq.n	20002194 <JTAG_IR+0xc8>
200020dc:	23d0      	movs	r3, #208	; 0xd0
200020de:	2201      	movs	r2, #1
200020e0:	2102      	movs	r1, #2
200020e2:	061b      	lsls	r3, r3, #24
200020e4:	6159      	str	r1, [r3, #20]
200020e6:	619a      	str	r2, [r3, #24]
200020e8:	615a      	str	r2, [r3, #20]
200020ea:	619a      	str	r2, [r3, #24]
200020ec:	615a      	str	r2, [r3, #20]
200020ee:	6199      	str	r1, [r3, #24]
200020f0:	619a      	str	r2, [r3, #24]
200020f2:	615a      	str	r2, [r3, #20]
200020f4:	619a      	str	r2, [r3, #24]
200020f6:	615a      	str	r2, [r3, #20]
200020f8:	6919      	ldr	r1, [r3, #16]
200020fa:	3203      	adds	r2, #3
200020fc:	438a      	bics	r2, r1
200020fe:	61da      	str	r2, [r3, #28]
20002100:	7ee2      	ldrb	r2, [r4, #27]
20002102:	4694      	mov	ip, r2
20002104:	3210      	adds	r2, #16
20002106:	0052      	lsls	r2, r2, #1
20002108:	18a2      	adds	r2, r4, r2
2000210a:	8892      	ldrh	r2, [r2, #4]
2000210c:	2a00      	cmp	r2, #0
2000210e:	d005      	beq.n	2000211c <JTAG_IR+0x50>
20002110:	2101      	movs	r1, #1
20002112:	3a01      	subs	r2, #1
20002114:	6199      	str	r1, [r3, #24]
20002116:	6159      	str	r1, [r3, #20]
20002118:	2a00      	cmp	r2, #0
2000211a:	d1fa      	bne.n	20002112 <JTAG_IR+0x46>
2000211c:	4663      	mov	r3, ip
2000211e:	18e3      	adds	r3, r4, r3
20002120:	7f1b      	ldrb	r3, [r3, #28]
20002122:	1e59      	subs	r1, r3, #1
20002124:	2b01      	cmp	r3, #1
20002126:	d00e      	beq.n	20002146 <JTAG_IR+0x7a>
20002128:	22d0      	movs	r2, #208	; 0xd0
2000212a:	2704      	movs	r7, #4
2000212c:	2501      	movs	r5, #1
2000212e:	0612      	lsls	r2, r2, #24
20002130:	6916      	ldr	r6, [r2, #16]
20002132:	0083      	lsls	r3, r0, #2
20002134:	4073      	eors	r3, r6
20002136:	403b      	ands	r3, r7
20002138:	3901      	subs	r1, #1
2000213a:	61d3      	str	r3, [r2, #28]
2000213c:	0840      	lsrs	r0, r0, #1
2000213e:	6195      	str	r5, [r2, #24]
20002140:	6155      	str	r5, [r2, #20]
20002142:	2900      	cmp	r1, #0
20002144:	d1f4      	bne.n	20002130 <JTAG_IR+0x64>
20002146:	4667      	mov	r7, ip
20002148:	3718      	adds	r7, #24
2000214a:	007f      	lsls	r7, r7, #1
2000214c:	19e4      	adds	r4, r4, r7
2000214e:	88a1      	ldrh	r1, [r4, #4]
20002150:	2900      	cmp	r1, #0
20002152:	d100      	bne.n	20002156 <JTAG_IR+0x8a>
20002154:	e0ac      	b.n	200022b0 <JTAG_IR+0x1e4>
20002156:	22d0      	movs	r2, #208	; 0xd0
20002158:	0612      	lsls	r2, r2, #24
2000215a:	6913      	ldr	r3, [r2, #16]
2000215c:	0080      	lsls	r0, r0, #2
2000215e:	4058      	eors	r0, r3
20002160:	2304      	movs	r3, #4
20002162:	4018      	ands	r0, r3
20002164:	61d0      	str	r0, [r2, #28]
20002166:	2001      	movs	r0, #1
20002168:	6190      	str	r0, [r2, #24]
2000216a:	6150      	str	r0, [r2, #20]
2000216c:	6910      	ldr	r0, [r2, #16]
2000216e:	4383      	bics	r3, r0
20002170:	61d3      	str	r3, [r2, #28]
20002172:	1e4b      	subs	r3, r1, #1
20002174:	2901      	cmp	r1, #1
20002176:	d005      	beq.n	20002184 <JTAG_IR+0xb8>
20002178:	2101      	movs	r1, #1
2000217a:	3b01      	subs	r3, #1
2000217c:	6191      	str	r1, [r2, #24]
2000217e:	6151      	str	r1, [r2, #20]
20002180:	2b00      	cmp	r3, #0
20002182:	d1fa      	bne.n	2000217a <JTAG_IR+0xae>
20002184:	23d0      	movs	r3, #208	; 0xd0
20002186:	2202      	movs	r2, #2
20002188:	061b      	lsls	r3, r3, #24
2000218a:	615a      	str	r2, [r3, #20]
2000218c:	3a01      	subs	r2, #1
2000218e:	619a      	str	r2, [r3, #24]
20002190:	615a      	str	r2, [r3, #20]
20002192:	e09a      	b.n	200022ca <JTAG_IR+0x1fe>
20002194:	22d0      	movs	r2, #208	; 0xd0
20002196:	2502      	movs	r5, #2
20002198:	2101      	movs	r1, #1
2000219a:	0612      	lsls	r2, r2, #24
2000219c:	6155      	str	r5, [r2, #20]
2000219e:	6191      	str	r1, [r2, #24]
200021a0:	6863      	ldr	r3, [r4, #4]
200021a2:	001e      	movs	r6, r3
200021a4:	3e01      	subs	r6, #1
200021a6:	d1fd      	bne.n	200021a4 <JTAG_IR+0xd8>
200021a8:	001e      	movs	r6, r3
200021aa:	6151      	str	r1, [r2, #20]
200021ac:	3e01      	subs	r6, #1
200021ae:	d1fd      	bne.n	200021ac <JTAG_IR+0xe0>
200021b0:	001e      	movs	r6, r3
200021b2:	6191      	str	r1, [r2, #24]
200021b4:	3e01      	subs	r6, #1
200021b6:	d1fd      	bne.n	200021b4 <JTAG_IR+0xe8>
200021b8:	001e      	movs	r6, r3
200021ba:	6151      	str	r1, [r2, #20]
200021bc:	3e01      	subs	r6, #1
200021be:	d1fd      	bne.n	200021bc <JTAG_IR+0xf0>
200021c0:	6195      	str	r5, [r2, #24]
200021c2:	001d      	movs	r5, r3
200021c4:	6191      	str	r1, [r2, #24]
200021c6:	3d01      	subs	r5, #1
200021c8:	d1fd      	bne.n	200021c6 <JTAG_IR+0xfa>
200021ca:	001d      	movs	r5, r3
200021cc:	6151      	str	r1, [r2, #20]
200021ce:	3d01      	subs	r5, #1
200021d0:	d1fd      	bne.n	200021ce <JTAG_IR+0x102>
200021d2:	001d      	movs	r5, r3
200021d4:	6191      	str	r1, [r2, #24]
200021d6:	3d01      	subs	r5, #1
200021d8:	d1fd      	bne.n	200021d6 <JTAG_IR+0x10a>
200021da:	6151      	str	r1, [r2, #20]
200021dc:	0019      	movs	r1, r3
200021de:	3901      	subs	r1, #1
200021e0:	d1fd      	bne.n	200021de <JTAG_IR+0x112>
200021e2:	2104      	movs	r1, #4
200021e4:	6915      	ldr	r5, [r2, #16]
200021e6:	43a9      	bics	r1, r5
200021e8:	61d1      	str	r1, [r2, #28]
200021ea:	7ee1      	ldrb	r1, [r4, #27]
200021ec:	468c      	mov	ip, r1
200021ee:	3110      	adds	r1, #16
200021f0:	0049      	lsls	r1, r1, #1
200021f2:	1861      	adds	r1, r4, r1
200021f4:	8889      	ldrh	r1, [r1, #4]
200021f6:	2900      	cmp	r1, #0
200021f8:	d00b      	beq.n	20002212 <JTAG_IR+0x146>
200021fa:	2701      	movs	r7, #1
200021fc:	001d      	movs	r5, r3
200021fe:	6197      	str	r7, [r2, #24]
20002200:	3d01      	subs	r5, #1
20002202:	d1fd      	bne.n	20002200 <JTAG_IR+0x134>
20002204:	001d      	movs	r5, r3
20002206:	6157      	str	r7, [r2, #20]
20002208:	3d01      	subs	r5, #1
2000220a:	d1fd      	bne.n	20002208 <JTAG_IR+0x13c>
2000220c:	3901      	subs	r1, #1
2000220e:	2900      	cmp	r1, #0
20002210:	d1f4      	bne.n	200021fc <JTAG_IR+0x130>
20002212:	4662      	mov	r2, ip
20002214:	18a2      	adds	r2, r4, r2
20002216:	7f12      	ldrb	r2, [r2, #28]
20002218:	1e55      	subs	r5, r2, #1
2000221a:	2a01      	cmp	r2, #1
2000221c:	d018      	beq.n	20002250 <JTAG_IR+0x184>
2000221e:	2204      	movs	r2, #4
20002220:	21d0      	movs	r1, #208	; 0xd0
20002222:	4691      	mov	r9, r2
20002224:	2701      	movs	r7, #1
20002226:	0609      	lsls	r1, r1, #24
20002228:	690a      	ldr	r2, [r1, #16]
2000222a:	4690      	mov	r8, r2
2000222c:	4646      	mov	r6, r8
2000222e:	0082      	lsls	r2, r0, #2
20002230:	4072      	eors	r2, r6
20002232:	464e      	mov	r6, r9
20002234:	4032      	ands	r2, r6
20002236:	61ca      	str	r2, [r1, #28]
20002238:	001a      	movs	r2, r3
2000223a:	618f      	str	r7, [r1, #24]
2000223c:	3a01      	subs	r2, #1
2000223e:	d1fd      	bne.n	2000223c <JTAG_IR+0x170>
20002240:	001a      	movs	r2, r3
20002242:	614f      	str	r7, [r1, #20]
20002244:	3a01      	subs	r2, #1
20002246:	d1fd      	bne.n	20002244 <JTAG_IR+0x178>
20002248:	3d01      	subs	r5, #1
2000224a:	0840      	lsrs	r0, r0, #1
2000224c:	2d00      	cmp	r5, #0
2000224e:	d1eb      	bne.n	20002228 <JTAG_IR+0x15c>
20002250:	4666      	mov	r6, ip
20002252:	3618      	adds	r6, #24
20002254:	0076      	lsls	r6, r6, #1
20002256:	19a4      	adds	r4, r4, r6
20002258:	88a1      	ldrh	r1, [r4, #4]
2000225a:	2900      	cmp	r1, #0
2000225c:	d048      	beq.n	200022f0 <JTAG_IR+0x224>
2000225e:	24d0      	movs	r4, #208	; 0xd0
20002260:	0624      	lsls	r4, r4, #24
20002262:	6922      	ldr	r2, [r4, #16]
20002264:	0080      	lsls	r0, r0, #2
20002266:	4050      	eors	r0, r2
20002268:	2204      	movs	r2, #4
2000226a:	4010      	ands	r0, r2
2000226c:	61e0      	str	r0, [r4, #28]
2000226e:	2001      	movs	r0, #1
20002270:	001d      	movs	r5, r3
20002272:	61a0      	str	r0, [r4, #24]
20002274:	3d01      	subs	r5, #1
20002276:	d1fd      	bne.n	20002274 <JTAG_IR+0x1a8>
20002278:	6160      	str	r0, [r4, #20]
2000227a:	0018      	movs	r0, r3
2000227c:	3801      	subs	r0, #1
2000227e:	d1fd      	bne.n	2000227c <JTAG_IR+0x1b0>
20002280:	6920      	ldr	r0, [r4, #16]
20002282:	4382      	bics	r2, r0
20002284:	61e2      	str	r2, [r4, #28]
20002286:	1e4a      	subs	r2, r1, #1
20002288:	2901      	cmp	r1, #1
2000228a:	d00b      	beq.n	200022a4 <JTAG_IR+0x1d8>
2000228c:	2001      	movs	r0, #1
2000228e:	0019      	movs	r1, r3
20002290:	61a0      	str	r0, [r4, #24]
20002292:	3901      	subs	r1, #1
20002294:	d1fd      	bne.n	20002292 <JTAG_IR+0x1c6>
20002296:	0019      	movs	r1, r3
20002298:	6160      	str	r0, [r4, #20]
2000229a:	3901      	subs	r1, #1
2000229c:	d1fd      	bne.n	2000229a <JTAG_IR+0x1ce>
2000229e:	3a01      	subs	r2, #1
200022a0:	2a00      	cmp	r2, #0
200022a2:	d1f4      	bne.n	2000228e <JTAG_IR+0x1c2>
200022a4:	22d0      	movs	r2, #208	; 0xd0
200022a6:	2102      	movs	r1, #2
200022a8:	0612      	lsls	r2, r2, #24
200022aa:	6151      	str	r1, [r2, #20]
200022ac:	3901      	subs	r1, #1
200022ae:	e02a      	b.n	20002306 <JTAG_IR+0x23a>
200022b0:	23d0      	movs	r3, #208	; 0xd0
200022b2:	2202      	movs	r2, #2
200022b4:	061b      	lsls	r3, r3, #24
200022b6:	615a      	str	r2, [r3, #20]
200022b8:	691a      	ldr	r2, [r3, #16]
200022ba:	0080      	lsls	r0, r0, #2
200022bc:	4042      	eors	r2, r0
200022be:	2004      	movs	r0, #4
200022c0:	4010      	ands	r0, r2
200022c2:	2201      	movs	r2, #1
200022c4:	61d8      	str	r0, [r3, #28]
200022c6:	619a      	str	r2, [r3, #24]
200022c8:	615a      	str	r2, [r3, #20]
200022ca:	23d0      	movs	r3, #208	; 0xd0
200022cc:	2201      	movs	r2, #1
200022ce:	2102      	movs	r1, #2
200022d0:	061b      	lsls	r3, r3, #24
200022d2:	619a      	str	r2, [r3, #24]
200022d4:	615a      	str	r2, [r3, #20]
200022d6:	6199      	str	r1, [r3, #24]
200022d8:	619a      	str	r2, [r3, #24]
200022da:	615a      	str	r2, [r3, #20]
200022dc:	6919      	ldr	r1, [r3, #16]
200022de:	3203      	adds	r2, #3
200022e0:	438a      	bics	r2, r1
200022e2:	61da      	str	r2, [r3, #28]
200022e4:	bcc0      	pop	{r6, r7}
200022e6:	46b9      	mov	r9, r7
200022e8:	46b0      	mov	r8, r6
200022ea:	bdf0      	pop	{r4, r5, r6, r7, pc}
200022ec:	2000b95c 	.word	0x2000b95c
200022f0:	22d0      	movs	r2, #208	; 0xd0
200022f2:	2102      	movs	r1, #2
200022f4:	0612      	lsls	r2, r2, #24
200022f6:	6151      	str	r1, [r2, #20]
200022f8:	6911      	ldr	r1, [r2, #16]
200022fa:	0080      	lsls	r0, r0, #2
200022fc:	4048      	eors	r0, r1
200022fe:	2104      	movs	r1, #4
20002300:	4008      	ands	r0, r1
20002302:	61d0      	str	r0, [r2, #28]
20002304:	3903      	subs	r1, #3
20002306:	0018      	movs	r0, r3
20002308:	6191      	str	r1, [r2, #24]
2000230a:	3801      	subs	r0, #1
2000230c:	d1fd      	bne.n	2000230a <JTAG_IR+0x23e>
2000230e:	6151      	str	r1, [r2, #20]
20002310:	001a      	movs	r2, r3
20002312:	3a01      	subs	r2, #1
20002314:	d1fd      	bne.n	20002312 <JTAG_IR+0x246>
20002316:	22d0      	movs	r2, #208	; 0xd0
20002318:	2101      	movs	r1, #1
2000231a:	0612      	lsls	r2, r2, #24
2000231c:	0018      	movs	r0, r3
2000231e:	6191      	str	r1, [r2, #24]
20002320:	3801      	subs	r0, #1
20002322:	d1fd      	bne.n	20002320 <JTAG_IR+0x254>
20002324:	0018      	movs	r0, r3
20002326:	6151      	str	r1, [r2, #20]
20002328:	3801      	subs	r0, #1
2000232a:	d1fd      	bne.n	20002328 <JTAG_IR+0x25c>
2000232c:	2002      	movs	r0, #2
2000232e:	6190      	str	r0, [r2, #24]
20002330:	0018      	movs	r0, r3
20002332:	6191      	str	r1, [r2, #24]
20002334:	3801      	subs	r0, #1
20002336:	d1fd      	bne.n	20002334 <JTAG_IR+0x268>
20002338:	6151      	str	r1, [r2, #20]
2000233a:	3b01      	subs	r3, #1
2000233c:	d1fd      	bne.n	2000233a <JTAG_IR+0x26e>
2000233e:	2304      	movs	r3, #4
20002340:	6911      	ldr	r1, [r2, #16]
20002342:	438b      	bics	r3, r1
20002344:	61d3      	str	r3, [r2, #28]
20002346:	e7cd      	b.n	200022e4 <JTAG_IR+0x218>

20002348 <JTAG_Transfer>:
20002348:	b5f0      	push	{r4, r5, r6, r7, lr}
2000234a:	46de      	mov	lr, fp
2000234c:	4657      	mov	r7, sl
2000234e:	464e      	mov	r6, r9
20002350:	4645      	mov	r5, r8
20002352:	b5e0      	push	{r5, r6, r7, lr}
20002354:	468c      	mov	ip, r1
20002356:	b083      	sub	sp, #12
20002358:	4938      	ldr	r1, [pc, #224]	; (2000243c <JTAG_Transfer+0xf4>)
2000235a:	9000      	str	r0, [sp, #0]
2000235c:	784b      	ldrb	r3, [r1, #1]
2000235e:	2b00      	cmp	r3, #0
20002360:	d070      	beq.n	20002444 <JTAG_Transfer+0xfc>
20002362:	22d0      	movs	r2, #208	; 0xd0
20002364:	2301      	movs	r3, #1
20002366:	2402      	movs	r4, #2
20002368:	0612      	lsls	r2, r2, #24
2000236a:	6154      	str	r4, [r2, #20]
2000236c:	6193      	str	r3, [r2, #24]
2000236e:	6153      	str	r3, [r2, #20]
20002370:	6194      	str	r4, [r2, #24]
20002372:	6193      	str	r3, [r2, #24]
20002374:	6153      	str	r3, [r2, #20]
20002376:	6193      	str	r3, [r2, #24]
20002378:	6153      	str	r3, [r2, #20]
2000237a:	7ecb      	ldrb	r3, [r1, #27]
2000237c:	2501      	movs	r5, #1
2000237e:	469b      	mov	fp, r3
20002380:	2b00      	cmp	r3, #0
20002382:	d004      	beq.n	2000238e <JTAG_Transfer+0x46>
20002384:	3b01      	subs	r3, #1
20002386:	6195      	str	r5, [r2, #24]
20002388:	6155      	str	r5, [r2, #20]
2000238a:	2b00      	cmp	r3, #0
2000238c:	d1fa      	bne.n	20002384 <JTAG_Transfer+0x3c>
2000238e:	23d0      	movs	r3, #208	; 0xd0
20002390:	2504      	movs	r5, #4
20002392:	9800      	ldr	r0, [sp, #0]
20002394:	061b      	lsls	r3, r3, #24
20002396:	691e      	ldr	r6, [r3, #16]
20002398:	0842      	lsrs	r2, r0, #1
2000239a:	0092      	lsls	r2, r2, #2
2000239c:	4072      	eors	r2, r6
2000239e:	402a      	ands	r2, r5
200023a0:	61da      	str	r2, [r3, #28]
200023a2:	2201      	movs	r2, #1
200023a4:	619a      	str	r2, [r3, #24]
200023a6:	685e      	ldr	r6, [r3, #4]
200023a8:	615a      	str	r2, [r3, #20]
200023aa:	691c      	ldr	r4, [r3, #16]
200023ac:	2703      	movs	r7, #3
200023ae:	46a0      	mov	r8, r4
200023b0:	0004      	movs	r4, r0
200023b2:	43bc      	bics	r4, r7
200023b4:	0027      	movs	r7, r4
200023b6:	4644      	mov	r4, r8
200023b8:	4067      	eors	r7, r4
200023ba:	402f      	ands	r7, r5
200023bc:	61df      	str	r7, [r3, #28]
200023be:	619a      	str	r2, [r3, #24]
200023c0:	685c      	ldr	r4, [r3, #4]
200023c2:	615a      	str	r2, [r3, #20]
200023c4:	691f      	ldr	r7, [r3, #16]
200023c6:	08b6      	lsrs	r6, r6, #2
200023c8:	46b9      	mov	r9, r7
200023ca:	08c7      	lsrs	r7, r0, #3
200023cc:	4648      	mov	r0, r9
200023ce:	00bf      	lsls	r7, r7, #2
200023d0:	4047      	eors	r7, r0
200023d2:	402f      	ands	r7, r5
200023d4:	61df      	str	r7, [r3, #28]
200023d6:	2702      	movs	r7, #2
200023d8:	619a      	str	r2, [r3, #24]
200023da:	6858      	ldr	r0, [r3, #4]
200023dc:	403e      	ands	r6, r7
200023de:	0840      	lsrs	r0, r0, #1
200023e0:	4005      	ands	r5, r0
200023e2:	4335      	orrs	r5, r6
200023e4:	08e6      	lsrs	r6, r4, #3
200023e6:	4016      	ands	r6, r2
200023e8:	432e      	orrs	r6, r5
200023ea:	46b2      	mov	sl, r6
200023ec:	615a      	str	r2, [r3, #20]
200023ee:	2e01      	cmp	r6, #1
200023f0:	d100      	bne.n	200023f4 <JTAG_Transfer+0xac>
200023f2:	e136      	b.n	20002662 <JTAG_Transfer+0x31a>
200023f4:	615f      	str	r7, [r3, #20]
200023f6:	619a      	str	r2, [r3, #24]
200023f8:	615a      	str	r2, [r3, #20]
200023fa:	23d0      	movs	r3, #208	; 0xd0
200023fc:	2201      	movs	r2, #1
200023fe:	2402      	movs	r4, #2
20002400:	061b      	lsls	r3, r3, #24
20002402:	619a      	str	r2, [r3, #24]
20002404:	615a      	str	r2, [r3, #20]
20002406:	619c      	str	r4, [r3, #24]
20002408:	619a      	str	r2, [r3, #24]
2000240a:	615a      	str	r2, [r3, #20]
2000240c:	691c      	ldr	r4, [r3, #16]
2000240e:	3203      	adds	r2, #3
20002410:	43a2      	bics	r2, r4
20002412:	61da      	str	r2, [r3, #28]
20002414:	9b00      	ldr	r3, [sp, #0]
20002416:	061b      	lsls	r3, r3, #24
20002418:	d502      	bpl.n	20002420 <JTAG_Transfer+0xd8>
2000241a:	4b09      	ldr	r3, [pc, #36]	; (20002440 <JTAG_Transfer+0xf8>)
2000241c:	6a9b      	ldr	r3, [r3, #40]	; 0x28
2000241e:	608b      	str	r3, [r1, #8]
20002420:	7b0a      	ldrb	r2, [r1, #12]
20002422:	1e53      	subs	r3, r2, #1
20002424:	2a00      	cmp	r2, #0
20002426:	d006      	beq.n	20002436 <JTAG_Transfer+0xee>
20002428:	21d0      	movs	r1, #208	; 0xd0
2000242a:	2201      	movs	r2, #1
2000242c:	0609      	lsls	r1, r1, #24
2000242e:	618a      	str	r2, [r1, #24]
20002430:	614a      	str	r2, [r1, #20]
20002432:	3b01      	subs	r3, #1
20002434:	d2fb      	bcs.n	2000242e <JTAG_Transfer+0xe6>
20002436:	4653      	mov	r3, sl
20002438:	b2d8      	uxtb	r0, r3
2000243a:	e0b8      	b.n	200025ae <JTAG_Transfer+0x266>
2000243c:	2000b95c 	.word	0x2000b95c
20002440:	40054000 	.word	0x40054000
20002444:	24d0      	movs	r4, #208	; 0xd0
20002446:	2502      	movs	r5, #2
20002448:	2201      	movs	r2, #1
2000244a:	0624      	lsls	r4, r4, #24
2000244c:	6165      	str	r5, [r4, #20]
2000244e:	61a2      	str	r2, [r4, #24]
20002450:	684b      	ldr	r3, [r1, #4]
20002452:	001e      	movs	r6, r3
20002454:	3e01      	subs	r6, #1
20002456:	d1fd      	bne.n	20002454 <JTAG_Transfer+0x10c>
20002458:	001e      	movs	r6, r3
2000245a:	6162      	str	r2, [r4, #20]
2000245c:	3e01      	subs	r6, #1
2000245e:	d1fd      	bne.n	2000245c <JTAG_Transfer+0x114>
20002460:	61a5      	str	r5, [r4, #24]
20002462:	001d      	movs	r5, r3
20002464:	61a2      	str	r2, [r4, #24]
20002466:	3d01      	subs	r5, #1
20002468:	d1fd      	bne.n	20002466 <JTAG_Transfer+0x11e>
2000246a:	001d      	movs	r5, r3
2000246c:	6162      	str	r2, [r4, #20]
2000246e:	3d01      	subs	r5, #1
20002470:	d1fd      	bne.n	2000246e <JTAG_Transfer+0x126>
20002472:	001d      	movs	r5, r3
20002474:	61a2      	str	r2, [r4, #24]
20002476:	3d01      	subs	r5, #1
20002478:	d1fd      	bne.n	20002476 <JTAG_Transfer+0x12e>
2000247a:	6162      	str	r2, [r4, #20]
2000247c:	001a      	movs	r2, r3
2000247e:	3a01      	subs	r2, #1
20002480:	d1fd      	bne.n	2000247e <JTAG_Transfer+0x136>
20002482:	7eca      	ldrb	r2, [r1, #27]
20002484:	2601      	movs	r6, #1
20002486:	4690      	mov	r8, r2
20002488:	2a00      	cmp	r2, #0
2000248a:	d00a      	beq.n	200024a2 <JTAG_Transfer+0x15a>
2000248c:	001d      	movs	r5, r3
2000248e:	61a6      	str	r6, [r4, #24]
20002490:	3d01      	subs	r5, #1
20002492:	d1fd      	bne.n	20002490 <JTAG_Transfer+0x148>
20002494:	001d      	movs	r5, r3
20002496:	6166      	str	r6, [r4, #20]
20002498:	3d01      	subs	r5, #1
2000249a:	d1fd      	bne.n	20002498 <JTAG_Transfer+0x150>
2000249c:	3a01      	subs	r2, #1
2000249e:	2a00      	cmp	r2, #0
200024a0:	d1f4      	bne.n	2000248c <JTAG_Transfer+0x144>
200024a2:	22d0      	movs	r2, #208	; 0xd0
200024a4:	2504      	movs	r5, #4
200024a6:	9800      	ldr	r0, [sp, #0]
200024a8:	0612      	lsls	r2, r2, #24
200024aa:	6916      	ldr	r6, [r2, #16]
200024ac:	0844      	lsrs	r4, r0, #1
200024ae:	00a4      	lsls	r4, r4, #2
200024b0:	4074      	eors	r4, r6
200024b2:	402c      	ands	r4, r5
200024b4:	61d4      	str	r4, [r2, #28]
200024b6:	2401      	movs	r4, #1
200024b8:	46aa      	mov	sl, r5
200024ba:	6194      	str	r4, [r2, #24]
200024bc:	001d      	movs	r5, r3
200024be:	3d01      	subs	r5, #1
200024c0:	d1fd      	bne.n	200024be <JTAG_Transfer+0x176>
200024c2:	6855      	ldr	r5, [r2, #4]
200024c4:	001e      	movs	r6, r3
200024c6:	9501      	str	r5, [sp, #4]
200024c8:	6154      	str	r4, [r2, #20]
200024ca:	3e01      	subs	r6, #1
200024cc:	d1fd      	bne.n	200024ca <JTAG_Transfer+0x182>
200024ce:	2603      	movs	r6, #3
200024d0:	0005      	movs	r5, r0
200024d2:	43b5      	bics	r5, r6
200024d4:	002e      	movs	r6, r5
200024d6:	4655      	mov	r5, sl
200024d8:	6917      	ldr	r7, [r2, #16]
200024da:	407e      	eors	r6, r7
200024dc:	402e      	ands	r6, r5
200024de:	61d6      	str	r6, [r2, #28]
200024e0:	001e      	movs	r6, r3
200024e2:	6194      	str	r4, [r2, #24]
200024e4:	3e01      	subs	r6, #1
200024e6:	d1fd      	bne.n	200024e4 <JTAG_Transfer+0x19c>
200024e8:	6855      	ldr	r5, [r2, #4]
200024ea:	001e      	movs	r6, r3
200024ec:	46a9      	mov	r9, r5
200024ee:	6154      	str	r4, [r2, #20]
200024f0:	3e01      	subs	r6, #1
200024f2:	d1fd      	bne.n	200024f0 <JTAG_Transfer+0x1a8>
200024f4:	08c7      	lsrs	r7, r0, #3
200024f6:	4650      	mov	r0, sl
200024f8:	6915      	ldr	r5, [r2, #16]
200024fa:	00bf      	lsls	r7, r7, #2
200024fc:	406f      	eors	r7, r5
200024fe:	4007      	ands	r7, r0
20002500:	61d7      	str	r7, [r2, #28]
20002502:	001e      	movs	r6, r3
20002504:	6194      	str	r4, [r2, #24]
20002506:	3e01      	subs	r6, #1
20002508:	d1fd      	bne.n	20002506 <JTAG_Transfer+0x1be>
2000250a:	6850      	ldr	r0, [r2, #4]
2000250c:	001e      	movs	r6, r3
2000250e:	4683      	mov	fp, r0
20002510:	6154      	str	r4, [r2, #20]
20002512:	3e01      	subs	r6, #1
20002514:	d1fd      	bne.n	20002512 <JTAG_Transfer+0x1ca>
20002516:	9801      	ldr	r0, [sp, #4]
20002518:	2702      	movs	r7, #2
2000251a:	0886      	lsrs	r6, r0, #2
2000251c:	4658      	mov	r0, fp
2000251e:	0845      	lsrs	r5, r0, #1
20002520:	4650      	mov	r0, sl
20002522:	4005      	ands	r5, r0
20002524:	4648      	mov	r0, r9
20002526:	403e      	ands	r6, r7
20002528:	432e      	orrs	r6, r5
2000252a:	08c5      	lsrs	r5, r0, #3
2000252c:	4025      	ands	r5, r4
2000252e:	4335      	orrs	r5, r6
20002530:	9501      	str	r5, [sp, #4]
20002532:	2d01      	cmp	r5, #1
20002534:	d100      	bne.n	20002538 <JTAG_Transfer+0x1f0>
20002536:	e041      	b.n	200025bc <JTAG_Transfer+0x274>
20002538:	6157      	str	r7, [r2, #20]
2000253a:	6194      	str	r4, [r2, #24]
2000253c:	001d      	movs	r5, r3
2000253e:	3d01      	subs	r5, #1
20002540:	d1fd      	bne.n	2000253e <JTAG_Transfer+0x1f6>
20002542:	6154      	str	r4, [r2, #20]
20002544:	001a      	movs	r2, r3
20002546:	3a01      	subs	r2, #1
20002548:	d1fd      	bne.n	20002546 <JTAG_Transfer+0x1fe>
2000254a:	22d0      	movs	r2, #208	; 0xd0
2000254c:	2401      	movs	r4, #1
2000254e:	0612      	lsls	r2, r2, #24
20002550:	001d      	movs	r5, r3
20002552:	6194      	str	r4, [r2, #24]
20002554:	3d01      	subs	r5, #1
20002556:	d1fd      	bne.n	20002554 <JTAG_Transfer+0x20c>
20002558:	001d      	movs	r5, r3
2000255a:	6154      	str	r4, [r2, #20]
2000255c:	3d01      	subs	r5, #1
2000255e:	d1fd      	bne.n	2000255c <JTAG_Transfer+0x214>
20002560:	2502      	movs	r5, #2
20002562:	6195      	str	r5, [r2, #24]
20002564:	001d      	movs	r5, r3
20002566:	6194      	str	r4, [r2, #24]
20002568:	3d01      	subs	r5, #1
2000256a:	d1fd      	bne.n	20002568 <JTAG_Transfer+0x220>
2000256c:	6154      	str	r4, [r2, #20]
2000256e:	001c      	movs	r4, r3
20002570:	3c01      	subs	r4, #1
20002572:	d1fd      	bne.n	20002570 <JTAG_Transfer+0x228>
20002574:	2404      	movs	r4, #4
20002576:	6915      	ldr	r5, [r2, #16]
20002578:	43ac      	bics	r4, r5
2000257a:	61d4      	str	r4, [r2, #28]
2000257c:	9a00      	ldr	r2, [sp, #0]
2000257e:	0612      	lsls	r2, r2, #24
20002580:	d502      	bpl.n	20002588 <JTAG_Transfer+0x240>
20002582:	4a94      	ldr	r2, [pc, #592]	; (200027d4 <JTAG_Transfer+0x48c>)
20002584:	6a92      	ldr	r2, [r2, #40]	; 0x28
20002586:	608a      	str	r2, [r1, #8]
20002588:	7b0a      	ldrb	r2, [r1, #12]
2000258a:	2a00      	cmp	r2, #0
2000258c:	d00d      	beq.n	200025aa <JTAG_Transfer+0x262>
2000258e:	24d0      	movs	r4, #208	; 0xd0
20002590:	2001      	movs	r0, #1
20002592:	0624      	lsls	r4, r4, #24
20002594:	0019      	movs	r1, r3
20002596:	61a0      	str	r0, [r4, #24]
20002598:	3901      	subs	r1, #1
2000259a:	d1fd      	bne.n	20002598 <JTAG_Transfer+0x250>
2000259c:	0019      	movs	r1, r3
2000259e:	6160      	str	r0, [r4, #20]
200025a0:	3901      	subs	r1, #1
200025a2:	d1fd      	bne.n	200025a0 <JTAG_Transfer+0x258>
200025a4:	3a01      	subs	r2, #1
200025a6:	2a00      	cmp	r2, #0
200025a8:	d1f4      	bne.n	20002594 <JTAG_Transfer+0x24c>
200025aa:	466b      	mov	r3, sp
200025ac:	7918      	ldrb	r0, [r3, #4]
200025ae:	b003      	add	sp, #12
200025b0:	bcf0      	pop	{r4, r5, r6, r7}
200025b2:	46bb      	mov	fp, r7
200025b4:	46b2      	mov	sl, r6
200025b6:	46a9      	mov	r9, r5
200025b8:	46a0      	mov	r8, r4
200025ba:	bdf0      	pop	{r4, r5, r6, r7, pc}
200025bc:	9800      	ldr	r0, [sp, #0]
200025be:	4207      	tst	r7, r0
200025c0:	d100      	bne.n	200025c4 <JTAG_Transfer+0x27c>
200025c2:	e0b9      	b.n	20002738 <JTAG_Transfer+0x3f0>
200025c4:	2001      	movs	r0, #1
200025c6:	251f      	movs	r5, #31
200025c8:	2600      	movs	r6, #0
200025ca:	4681      	mov	r9, r0
200025cc:	2701      	movs	r7, #1
200025ce:	001c      	movs	r4, r3
200025d0:	6197      	str	r7, [r2, #24]
200025d2:	3c01      	subs	r4, #1
200025d4:	d1fd      	bne.n	200025d2 <JTAG_Transfer+0x28a>
200025d6:	6854      	ldr	r4, [r2, #4]
200025d8:	0018      	movs	r0, r3
200025da:	6157      	str	r7, [r2, #20]
200025dc:	3801      	subs	r0, #1
200025de:	d1fd      	bne.n	200025dc <JTAG_Transfer+0x294>
200025e0:	08e4      	lsrs	r4, r4, #3
200025e2:	07e4      	lsls	r4, r4, #31
200025e4:	4326      	orrs	r6, r4
200025e6:	3d01      	subs	r5, #1
200025e8:	0876      	lsrs	r6, r6, #1
200025ea:	2d00      	cmp	r5, #0
200025ec:	d1ef      	bne.n	200025ce <JTAG_Transfer+0x286>
200025ee:	4640      	mov	r0, r8
200025f0:	7e8c      	ldrb	r4, [r1, #26]
200025f2:	1a24      	subs	r4, r4, r0
200025f4:	2c01      	cmp	r4, #1
200025f6:	d100      	bne.n	200025fa <JTAG_Transfer+0x2b2>
200025f8:	e0ee      	b.n	200027d8 <JTAG_Transfer+0x490>
200025fa:	4648      	mov	r0, r9
200025fc:	001d      	movs	r5, r3
200025fe:	6190      	str	r0, [r2, #24]
20002600:	3d01      	subs	r5, #1
20002602:	d1fd      	bne.n	20002600 <JTAG_Transfer+0x2b8>
20002604:	464d      	mov	r5, r9
20002606:	6857      	ldr	r7, [r2, #4]
20002608:	6155      	str	r5, [r2, #20]
2000260a:	08ff      	lsrs	r7, r7, #3
2000260c:	001a      	movs	r2, r3
2000260e:	4038      	ands	r0, r7
20002610:	3a01      	subs	r2, #1
20002612:	d1fd      	bne.n	20002610 <JTAG_Transfer+0x2c8>
20002614:	1ea2      	subs	r2, r4, #2
20002616:	2c02      	cmp	r4, #2
20002618:	d00d      	beq.n	20002636 <JTAG_Transfer+0x2ee>
2000261a:	27d0      	movs	r7, #208	; 0xd0
2000261c:	2501      	movs	r5, #1
2000261e:	063f      	lsls	r7, r7, #24
20002620:	001c      	movs	r4, r3
20002622:	61bd      	str	r5, [r7, #24]
20002624:	3c01      	subs	r4, #1
20002626:	d1fd      	bne.n	20002624 <JTAG_Transfer+0x2dc>
20002628:	001c      	movs	r4, r3
2000262a:	617d      	str	r5, [r7, #20]
2000262c:	3c01      	subs	r4, #1
2000262e:	d1fd      	bne.n	2000262c <JTAG_Transfer+0x2e4>
20002630:	3a01      	subs	r2, #1
20002632:	2a00      	cmp	r2, #0
20002634:	d1f4      	bne.n	20002620 <JTAG_Transfer+0x2d8>
20002636:	22d0      	movs	r2, #208	; 0xd0
20002638:	2402      	movs	r4, #2
2000263a:	0612      	lsls	r2, r2, #24
2000263c:	6154      	str	r4, [r2, #20]
2000263e:	3c01      	subs	r4, #1
20002640:	6194      	str	r4, [r2, #24]
20002642:	001d      	movs	r5, r3
20002644:	3d01      	subs	r5, #1
20002646:	d1fd      	bne.n	20002644 <JTAG_Transfer+0x2fc>
20002648:	6154      	str	r4, [r2, #20]
2000264a:	001a      	movs	r2, r3
2000264c:	3a01      	subs	r2, #1
2000264e:	d1fd      	bne.n	2000264c <JTAG_Transfer+0x304>
20002650:	4662      	mov	r2, ip
20002652:	2a00      	cmp	r2, #0
20002654:	d100      	bne.n	20002658 <JTAG_Transfer+0x310>
20002656:	e778      	b.n	2000254a <JTAG_Transfer+0x202>
20002658:	07c4      	lsls	r4, r0, #31
2000265a:	4334      	orrs	r4, r6
2000265c:	6014      	str	r4, [r2, #0]
2000265e:	684b      	ldr	r3, [r1, #4]
20002660:	e773      	b.n	2000254a <JTAG_Transfer+0x202>
20002662:	9a00      	ldr	r2, [sp, #0]
20002664:	4217      	tst	r7, r2
20002666:	d034      	beq.n	200026d2 <JTAG_Transfer+0x38a>
20002668:	2201      	movs	r2, #1
2000266a:	251f      	movs	r5, #31
2000266c:	2600      	movs	r6, #0
2000266e:	4690      	mov	r8, r2
20002670:	2701      	movs	r7, #1
20002672:	619f      	str	r7, [r3, #24]
20002674:	685a      	ldr	r2, [r3, #4]
20002676:	3d01      	subs	r5, #1
20002678:	08d2      	lsrs	r2, r2, #3
2000267a:	07d2      	lsls	r2, r2, #31
2000267c:	4316      	orrs	r6, r2
2000267e:	615f      	str	r7, [r3, #20]
20002680:	0876      	lsrs	r6, r6, #1
20002682:	2d00      	cmp	r5, #0
20002684:	d1f5      	bne.n	20002672 <JTAG_Transfer+0x32a>
20002686:	465a      	mov	r2, fp
20002688:	7e8c      	ldrb	r4, [r1, #26]
2000268a:	1aa4      	subs	r4, r4, r2
2000268c:	2c01      	cmp	r4, #1
2000268e:	d100      	bne.n	20002692 <JTAG_Transfer+0x34a>
20002690:	e0b9      	b.n	20002806 <JTAG_Transfer+0x4be>
20002692:	4642      	mov	r2, r8
20002694:	619a      	str	r2, [r3, #24]
20002696:	685d      	ldr	r5, [r3, #4]
20002698:	615a      	str	r2, [r3, #20]
2000269a:	08ed      	lsrs	r5, r5, #3
2000269c:	4015      	ands	r5, r2
2000269e:	1ea3      	subs	r3, r4, #2
200026a0:	2c02      	cmp	r4, #2
200026a2:	d007      	beq.n	200026b4 <JTAG_Transfer+0x36c>
200026a4:	24d0      	movs	r4, #208	; 0xd0
200026a6:	2201      	movs	r2, #1
200026a8:	0624      	lsls	r4, r4, #24
200026aa:	3b01      	subs	r3, #1
200026ac:	61a2      	str	r2, [r4, #24]
200026ae:	6162      	str	r2, [r4, #20]
200026b0:	2b00      	cmp	r3, #0
200026b2:	d1fa      	bne.n	200026aa <JTAG_Transfer+0x362>
200026b4:	23d0      	movs	r3, #208	; 0xd0
200026b6:	2202      	movs	r2, #2
200026b8:	061b      	lsls	r3, r3, #24
200026ba:	615a      	str	r2, [r3, #20]
200026bc:	3a01      	subs	r2, #1
200026be:	619a      	str	r2, [r3, #24]
200026c0:	615a      	str	r2, [r3, #20]
200026c2:	4663      	mov	r3, ip
200026c4:	2b00      	cmp	r3, #0
200026c6:	d100      	bne.n	200026ca <JTAG_Transfer+0x382>
200026c8:	e697      	b.n	200023fa <JTAG_Transfer+0xb2>
200026ca:	07ea      	lsls	r2, r5, #31
200026cc:	4332      	orrs	r2, r6
200026ce:	601a      	str	r2, [r3, #0]
200026d0:	e693      	b.n	200023fa <JTAG_Transfer+0xb2>
200026d2:	4662      	mov	r2, ip
200026d4:	6815      	ldr	r5, [r2, #0]
200026d6:	2201      	movs	r2, #1
200026d8:	271f      	movs	r7, #31
200026da:	2604      	movs	r6, #4
200026dc:	4691      	mov	r9, r2
200026de:	2401      	movs	r4, #1
200026e0:	6918      	ldr	r0, [r3, #16]
200026e2:	00aa      	lsls	r2, r5, #2
200026e4:	4042      	eors	r2, r0
200026e6:	4032      	ands	r2, r6
200026e8:	3f01      	subs	r7, #1
200026ea:	61da      	str	r2, [r3, #28]
200026ec:	086d      	lsrs	r5, r5, #1
200026ee:	619c      	str	r4, [r3, #24]
200026f0:	615c      	str	r4, [r3, #20]
200026f2:	2f00      	cmp	r7, #0
200026f4:	d1f4      	bne.n	200026e0 <JTAG_Transfer+0x398>
200026f6:	4658      	mov	r0, fp
200026f8:	7e8a      	ldrb	r2, [r1, #26]
200026fa:	1a14      	subs	r4, r2, r0
200026fc:	2c01      	cmp	r4, #1
200026fe:	d100      	bne.n	20002702 <JTAG_Transfer+0x3ba>
20002700:	e05d      	b.n	200027be <JTAG_Transfer+0x476>
20002702:	691a      	ldr	r2, [r3, #16]
20002704:	00ad      	lsls	r5, r5, #2
20002706:	4055      	eors	r5, r2
20002708:	464a      	mov	r2, r9
2000270a:	4035      	ands	r5, r6
2000270c:	61dd      	str	r5, [r3, #28]
2000270e:	619a      	str	r2, [r3, #24]
20002710:	615a      	str	r2, [r3, #20]
20002712:	1ea3      	subs	r3, r4, #2
20002714:	2c02      	cmp	r4, #2
20002716:	d007      	beq.n	20002728 <JTAG_Transfer+0x3e0>
20002718:	24d0      	movs	r4, #208	; 0xd0
2000271a:	2201      	movs	r2, #1
2000271c:	0624      	lsls	r4, r4, #24
2000271e:	3b01      	subs	r3, #1
20002720:	61a2      	str	r2, [r4, #24]
20002722:	6162      	str	r2, [r4, #20]
20002724:	2b00      	cmp	r3, #0
20002726:	d1fa      	bne.n	2000271e <JTAG_Transfer+0x3d6>
20002728:	23d0      	movs	r3, #208	; 0xd0
2000272a:	2202      	movs	r2, #2
2000272c:	061b      	lsls	r3, r3, #24
2000272e:	615a      	str	r2, [r3, #20]
20002730:	3a01      	subs	r2, #1
20002732:	619a      	str	r2, [r3, #24]
20002734:	615a      	str	r2, [r3, #20]
20002736:	e660      	b.n	200023fa <JTAG_Transfer+0xb2>
20002738:	4660      	mov	r0, ip
2000273a:	6805      	ldr	r5, [r0, #0]
2000273c:	2001      	movs	r0, #1
2000273e:	271f      	movs	r7, #31
20002740:	2604      	movs	r6, #4
20002742:	4682      	mov	sl, r0
20002744:	4684      	mov	ip, r0
20002746:	6910      	ldr	r0, [r2, #16]
20002748:	00ac      	lsls	r4, r5, #2
2000274a:	4044      	eors	r4, r0
2000274c:	4660      	mov	r0, ip
2000274e:	4034      	ands	r4, r6
20002750:	61d4      	str	r4, [r2, #28]
20002752:	001c      	movs	r4, r3
20002754:	6190      	str	r0, [r2, #24]
20002756:	3c01      	subs	r4, #1
20002758:	d1fd      	bne.n	20002756 <JTAG_Transfer+0x40e>
2000275a:	001c      	movs	r4, r3
2000275c:	6150      	str	r0, [r2, #20]
2000275e:	3c01      	subs	r4, #1
20002760:	d1fd      	bne.n	2000275e <JTAG_Transfer+0x416>
20002762:	3f01      	subs	r7, #1
20002764:	086d      	lsrs	r5, r5, #1
20002766:	2f00      	cmp	r7, #0
20002768:	d1ed      	bne.n	20002746 <JTAG_Transfer+0x3fe>
2000276a:	4640      	mov	r0, r8
2000276c:	7e8c      	ldrb	r4, [r1, #26]
2000276e:	1a24      	subs	r4, r4, r0
20002770:	2c01      	cmp	r4, #1
20002772:	d040      	beq.n	200027f6 <JTAG_Transfer+0x4ae>
20002774:	4650      	mov	r0, sl
20002776:	6917      	ldr	r7, [r2, #16]
20002778:	00ad      	lsls	r5, r5, #2
2000277a:	407d      	eors	r5, r7
2000277c:	4035      	ands	r5, r6
2000277e:	61d5      	str	r5, [r2, #28]
20002780:	001d      	movs	r5, r3
20002782:	6190      	str	r0, [r2, #24]
20002784:	3d01      	subs	r5, #1
20002786:	d1fd      	bne.n	20002784 <JTAG_Transfer+0x43c>
20002788:	6150      	str	r0, [r2, #20]
2000278a:	001a      	movs	r2, r3
2000278c:	3a01      	subs	r2, #1
2000278e:	d1fd      	bne.n	2000278c <JTAG_Transfer+0x444>
20002790:	1ea2      	subs	r2, r4, #2
20002792:	2c02      	cmp	r4, #2
20002794:	d00d      	beq.n	200027b2 <JTAG_Transfer+0x46a>
20002796:	27d0      	movs	r7, #208	; 0xd0
20002798:	2501      	movs	r5, #1
2000279a:	063f      	lsls	r7, r7, #24
2000279c:	001c      	movs	r4, r3
2000279e:	61bd      	str	r5, [r7, #24]
200027a0:	3c01      	subs	r4, #1
200027a2:	d1fd      	bne.n	200027a0 <JTAG_Transfer+0x458>
200027a4:	001c      	movs	r4, r3
200027a6:	617d      	str	r5, [r7, #20]
200027a8:	3c01      	subs	r4, #1
200027aa:	d1fd      	bne.n	200027a8 <JTAG_Transfer+0x460>
200027ac:	3a01      	subs	r2, #1
200027ae:	2a00      	cmp	r2, #0
200027b0:	d1f4      	bne.n	2000279c <JTAG_Transfer+0x454>
200027b2:	22d0      	movs	r2, #208	; 0xd0
200027b4:	2402      	movs	r4, #2
200027b6:	0612      	lsls	r2, r2, #24
200027b8:	6154      	str	r4, [r2, #20]
200027ba:	3c01      	subs	r4, #1
200027bc:	e6bd      	b.n	2000253a <JTAG_Transfer+0x1f2>
200027be:	2202      	movs	r2, #2
200027c0:	615a      	str	r2, [r3, #20]
200027c2:	691a      	ldr	r2, [r3, #16]
200027c4:	00ad      	lsls	r5, r5, #2
200027c6:	4055      	eors	r5, r2
200027c8:	4035      	ands	r5, r6
200027ca:	61dd      	str	r5, [r3, #28]
200027cc:	619c      	str	r4, [r3, #24]
200027ce:	615c      	str	r4, [r3, #20]
200027d0:	e613      	b.n	200023fa <JTAG_Transfer+0xb2>
200027d2:	46c0      	nop			; (mov r8, r8)
200027d4:	40054000 	.word	0x40054000
200027d8:	2502      	movs	r5, #2
200027da:	6155      	str	r5, [r2, #20]
200027dc:	001d      	movs	r5, r3
200027de:	6194      	str	r4, [r2, #24]
200027e0:	3d01      	subs	r5, #1
200027e2:	d1fd      	bne.n	200027e0 <JTAG_Transfer+0x498>
200027e4:	6857      	ldr	r7, [r2, #4]
200027e6:	6154      	str	r4, [r2, #20]
200027e8:	08ff      	lsrs	r7, r7, #3
200027ea:	0038      	movs	r0, r7
200027ec:	001a      	movs	r2, r3
200027ee:	4020      	ands	r0, r4
200027f0:	3a01      	subs	r2, #1
200027f2:	d1fd      	bne.n	200027f0 <JTAG_Transfer+0x4a8>
200027f4:	e72c      	b.n	20002650 <JTAG_Transfer+0x308>
200027f6:	2702      	movs	r7, #2
200027f8:	6157      	str	r7, [r2, #20]
200027fa:	6917      	ldr	r7, [r2, #16]
200027fc:	00ad      	lsls	r5, r5, #2
200027fe:	407d      	eors	r5, r7
20002800:	4035      	ands	r5, r6
20002802:	61d5      	str	r5, [r2, #28]
20002804:	e699      	b.n	2000253a <JTAG_Transfer+0x1f2>
20002806:	2202      	movs	r2, #2
20002808:	615a      	str	r2, [r3, #20]
2000280a:	619c      	str	r4, [r3, #24]
2000280c:	685d      	ldr	r5, [r3, #4]
2000280e:	615c      	str	r4, [r3, #20]
20002810:	08ed      	lsrs	r5, r5, #3
20002812:	4025      	ands	r5, r4
20002814:	e755      	b.n	200026c2 <JTAG_Transfer+0x37a>
20002816:	46c0      	nop			; (mov r8, r8)

20002818 <usb_thread>:
20002818:	b530      	push	{r4, r5, lr}
2000281a:	b083      	sub	sp, #12
2000281c:	f006 fde8 	bl	200093f0 <xTaskGetTickCount>
20002820:	24d0      	movs	r4, #208	; 0xd0
20002822:	2501      	movs	r5, #1
20002824:	9001      	str	r0, [sp, #4]
20002826:	0624      	lsls	r4, r4, #24
20002828:	2001      	movs	r0, #1
2000282a:	2100      	movs	r1, #0
2000282c:	4240      	negs	r0, r0
2000282e:	f003 fd71 	bl	20006314 <tud_task_ext>
20002832:	6863      	ldr	r3, [r4, #4]
20002834:	0e5b      	lsrs	r3, r3, #25
20002836:	421d      	tst	r5, r3
20002838:	d00b      	beq.n	20002852 <usb_thread+0x3a>
2000283a:	2380      	movs	r3, #128	; 0x80
2000283c:	049b      	lsls	r3, r3, #18
2000283e:	61a3      	str	r3, [r4, #24]
20002840:	f003 fd58 	bl	200062f4 <tud_task_event_ready>
20002844:	2800      	cmp	r0, #0
20002846:	d1ef      	bne.n	20002828 <usb_thread+0x10>
20002848:	2101      	movs	r1, #1
2000284a:	a801      	add	r0, sp, #4
2000284c:	f006 ff7c 	bl	20009748 <xTaskDelayUntil>
20002850:	e7ea      	b.n	20002828 <usb_thread+0x10>
20002852:	f003 fcb3 	bl	200061bc <tud_mounted>
20002856:	2800      	cmp	r0, #0
20002858:	d0ef      	beq.n	2000283a <usb_thread+0x22>
2000285a:	f003 fcb7 	bl	200061cc <tud_suspended>
2000285e:	2800      	cmp	r0, #0
20002860:	d1eb      	bne.n	2000283a <usb_thread+0x22>
20002862:	2380      	movs	r3, #128	; 0x80
20002864:	049b      	lsls	r3, r3, #18
20002866:	6163      	str	r3, [r4, #20]
20002868:	e7ea      	b.n	20002840 <usb_thread+0x28>
2000286a:	46c0      	nop			; (mov r8, r8)

2000286c <main>:
2000286c:	b510      	push	{r4, lr}
2000286e:	b082      	sub	sp, #8
20002870:	f7ff f8aa 	bl	200019c8 <DAP_Setup>
20002874:	f005 fbac 	bl	20007fd0 <board_init>
20002878:	f7ff f8d8 	bl	20001a2c <usb_serial_init>
2000287c:	f004 ffae 	bl	200077dc <tusb_init>
20002880:	f003 fa46 	bl	20005d10 <stdio_uart_init>
20002884:	4b0d      	ldr	r3, [pc, #52]	; (200028bc <main+0x50>)
20002886:	2480      	movs	r4, #128	; 0x80
20002888:	9301      	str	r3, [sp, #4]
2000288a:	2301      	movs	r3, #1
2000288c:	0064      	lsls	r4, r4, #1
2000288e:	0022      	movs	r2, r4
20002890:	9300      	str	r3, [sp, #0]
20002892:	490b      	ldr	r1, [pc, #44]	; (200028c0 <main+0x54>)
20002894:	2300      	movs	r3, #0
20002896:	480b      	ldr	r0, [pc, #44]	; (200028c4 <main+0x58>)
20002898:	f006 fac6 	bl	20008e28 <xTaskCreate>
2000289c:	4b0a      	ldr	r3, [pc, #40]	; (200028c8 <main+0x5c>)
2000289e:	0022      	movs	r2, r4
200028a0:	9301      	str	r3, [sp, #4]
200028a2:	2302      	movs	r3, #2
200028a4:	4909      	ldr	r1, [pc, #36]	; (200028cc <main+0x60>)
200028a6:	9300      	str	r3, [sp, #0]
200028a8:	4809      	ldr	r0, [pc, #36]	; (200028d0 <main+0x64>)
200028aa:	2300      	movs	r3, #0
200028ac:	f006 fabc 	bl	20008e28 <xTaskCreate>
200028b0:	f006 fca6 	bl	20009200 <vTaskStartScheduler>
200028b4:	2000      	movs	r0, #0
200028b6:	b002      	add	sp, #8
200028b8:	bd10      	pop	{r4, pc}
200028ba:	46c0      	nop			; (mov r8, r8)
200028bc:	200117bc 	.word	0x200117bc
200028c0:	2000af48 	.word	0x2000af48
200028c4:	20002819 	.word	0x20002819
200028c8:	2001108c 	.word	0x2001108c
200028cc:	2000af4c 	.word	0x2000af4c
200028d0:	20002b85 	.word	0x20002b85

200028d4 <tud_hid_get_report_cb>:
200028d4:	2000      	movs	r0, #0
200028d6:	4770      	bx	lr

200028d8 <tud_hid_set_report_cb>:
200028d8:	b570      	push	{r4, r5, r6, lr}
200028da:	0018      	movs	r0, r3
200028dc:	4c08      	ldr	r4, [pc, #32]	; (20002900 <tud_hid_set_report_cb+0x28>)
200028de:	ab04      	add	r3, sp, #16
200028e0:	881d      	ldrh	r5, [r3, #0]
200028e2:	0021      	movs	r1, r4
200028e4:	f7fd fc3a 	bl	2000015c <DAP_ProcessCommand>
200028e8:	1c2b      	adds	r3, r5, #0
200028ea:	2d40      	cmp	r5, #64	; 0x40
200028ec:	d900      	bls.n	200028f0 <tud_hid_set_report_cb+0x18>
200028ee:	2340      	movs	r3, #64	; 0x40
200028f0:	0022      	movs	r2, r4
200028f2:	2100      	movs	r1, #0
200028f4:	b29b      	uxth	r3, r3
200028f6:	2000      	movs	r0, #0
200028f8:	f004 fcb4 	bl	20007264 <tud_hid_n_report>
200028fc:	bd70      	pop	{r4, r5, r6, pc}
200028fe:	46c0      	nop			; (mov r8, r8)
20002900:	2000b9a0 	.word	0x2000b9a0

20002904 <tud_vendor_control_xfer_cb>:
20002904:	b5f0      	push	{r4, r5, r6, r7, lr}
20002906:	0005      	movs	r5, r0
20002908:	0014      	movs	r4, r2
2000290a:	2001      	movs	r0, #1
2000290c:	b083      	sub	sp, #12
2000290e:	2901      	cmp	r1, #1
20002910:	d105      	bne.n	2000291e <tud_vendor_control_xfer_cb+0x1a>
20002912:	7813      	ldrb	r3, [r2, #0]
20002914:	2000      	movs	r0, #0
20002916:	065b      	lsls	r3, r3, #25
20002918:	0f9b      	lsrs	r3, r3, #30
2000291a:	2b02      	cmp	r3, #2
2000291c:	d001      	beq.n	20002922 <tud_vendor_control_xfer_cb+0x1e>
2000291e:	b003      	add	sp, #12
20002920:	bdf0      	pop	{r4, r5, r6, r7, pc}
20002922:	7853      	ldrb	r3, [r2, #1]
20002924:	2b01      	cmp	r3, #1
20002926:	d1fa      	bne.n	2000291e <tud_vendor_control_xfer_cb+0x1a>
20002928:	7963      	ldrb	r3, [r4, #5]
2000292a:	7912      	ldrb	r2, [r2, #4]
2000292c:	021b      	lsls	r3, r3, #8
2000292e:	4313      	orrs	r3, r2
20002930:	2b07      	cmp	r3, #7
20002932:	d1f4      	bne.n	2000291e <tud_vendor_control_xfer_cb+0x1a>
20002934:	466b      	mov	r3, sp
20002936:	4e07      	ldr	r6, [pc, #28]	; (20002954 <tud_vendor_control_xfer_cb+0x50>)
20002938:	1d9f      	adds	r7, r3, #6
2000293a:	0031      	movs	r1, r6
2000293c:	2202      	movs	r2, #2
2000293e:	0038      	movs	r0, r7
20002940:	f002 ffbc 	bl	200058bc <__wrap___aeabi_memcpy>
20002944:	0032      	movs	r2, r6
20002946:	0021      	movs	r1, r4
20002948:	0028      	movs	r0, r5
2000294a:	883b      	ldrh	r3, [r7, #0]
2000294c:	3a08      	subs	r2, #8
2000294e:	f004 f971 	bl	20006c34 <tud_control_xfer>
20002952:	e7e4      	b.n	2000291e <tud_vendor_control_xfer_cb+0x1a>
20002954:	2000b070 	.word	0x2000b070

20002958 <vApplicationTickHook>:
20002958:	4770      	bx	lr
2000295a:	46c0      	nop			; (mov r8, r8)

2000295c <vApplicationStackOverflowHook>:
2000295c:	b510      	push	{r4, lr}
2000295e:	4802      	ldr	r0, [pc, #8]	; (20002968 <vApplicationStackOverflowHook+0xc>)
20002960:	7809      	ldrb	r1, [r1, #0]
20002962:	f002 fc25 	bl	200051b0 <panic>
20002966:	46c0      	nop			; (mov r8, r8)
20002968:	2000af50 	.word	0x2000af50

2000296c <vApplicationMallocFailedHook>:
2000296c:	b510      	push	{r4, lr}
2000296e:	4801      	ldr	r0, [pc, #4]	; (20002974 <vApplicationMallocFailedHook+0x8>)
20002970:	f002 fc1e 	bl	200051b0 <panic>
20002974:	2000af80 	.word	0x2000af80

20002978 <tud_descriptor_device_cb>:
20002978:	4800      	ldr	r0, [pc, #0]	; (2000297c <tud_descriptor_device_cb+0x4>)
2000297a:	4770      	bx	lr
2000297c:	2000b030 	.word	0x2000b030

20002980 <tud_hid_descriptor_report_cb>:
20002980:	4800      	ldr	r0, [pc, #0]	; (20002984 <tud_hid_descriptor_report_cb+0x4>)
20002982:	4770      	bx	lr
20002984:	2000b044 	.word	0x2000b044

20002988 <tud_descriptor_configuration_cb>:
20002988:	233e      	movs	r3, #62	; 0x3e
2000298a:	2206      	movs	r2, #6
2000298c:	4801      	ldr	r0, [pc, #4]	; (20002994 <tud_descriptor_configuration_cb+0xc>)
2000298e:	54c2      	strb	r2, [r0, r3]
20002990:	4770      	bx	lr
20002992:	46c0      	nop			; (mov r8, r8)
20002994:	2000b3fc 	.word	0x2000b3fc

20002998 <tud_descriptor_string_cb>:
20002998:	b570      	push	{r4, r5, r6, lr}
2000299a:	2800      	cmp	r0, #0
2000299c:	d026      	beq.n	200029ec <tud_descriptor_string_cb+0x54>
2000299e:	2806      	cmp	r0, #6
200029a0:	d831      	bhi.n	20002a06 <tud_descriptor_string_cb+0x6e>
200029a2:	4b1a      	ldr	r3, [pc, #104]	; (20002a0c <tud_descriptor_string_cb+0x74>)
200029a4:	0080      	lsls	r0, r0, #2
200029a6:	58c6      	ldr	r6, [r0, r3]
200029a8:	0030      	movs	r0, r6
200029aa:	f007 fbf5 	bl	2000a198 <strlen>
200029ae:	b2c0      	uxtb	r0, r0
200029b0:	1c01      	adds	r1, r0, #0
200029b2:	281f      	cmp	r0, #31
200029b4:	d815      	bhi.n	200029e2 <tud_descriptor_string_cb+0x4a>
200029b6:	b2c9      	uxtb	r1, r1
200029b8:	2800      	cmp	r0, #0
200029ba:	d021      	beq.n	20002a00 <tud_descriptor_string_cb+0x68>
200029bc:	2300      	movs	r3, #0
200029be:	4d14      	ldr	r5, [pc, #80]	; (20002a10 <tud_descriptor_string_cb+0x78>)
200029c0:	1caa      	adds	r2, r5, #2
200029c2:	5cf0      	ldrb	r0, [r6, r3]
200029c4:	3301      	adds	r3, #1
200029c6:	b2dc      	uxtb	r4, r3
200029c8:	8010      	strh	r0, [r2, #0]
200029ca:	3202      	adds	r2, #2
200029cc:	42a1      	cmp	r1, r4
200029ce:	d8f8      	bhi.n	200029c2 <tud_descriptor_string_cb+0x2a>
200029d0:	23c0      	movs	r3, #192	; 0xc0
200029d2:	3101      	adds	r1, #1
200029d4:	b2c9      	uxtb	r1, r1
200029d6:	0049      	lsls	r1, r1, #1
200029d8:	009b      	lsls	r3, r3, #2
200029da:	4319      	orrs	r1, r3
200029dc:	0028      	movs	r0, r5
200029de:	8029      	strh	r1, [r5, #0]
200029e0:	bd70      	pop	{r4, r5, r6, pc}
200029e2:	211f      	movs	r1, #31
200029e4:	b2c9      	uxtb	r1, r1
200029e6:	2800      	cmp	r0, #0
200029e8:	d1e8      	bne.n	200029bc <tud_descriptor_string_cb+0x24>
200029ea:	e009      	b.n	20002a00 <tud_descriptor_string_cb+0x68>
200029ec:	4d08      	ldr	r5, [pc, #32]	; (20002a10 <tud_descriptor_string_cb+0x78>)
200029ee:	4b07      	ldr	r3, [pc, #28]	; (20002a0c <tud_descriptor_string_cb+0x74>)
200029f0:	2202      	movs	r2, #2
200029f2:	6819      	ldr	r1, [r3, #0]
200029f4:	1ca8      	adds	r0, r5, #2
200029f6:	f002 ff61 	bl	200058bc <__wrap___aeabi_memcpy>
200029fa:	21c1      	movs	r1, #193	; 0xc1
200029fc:	0089      	lsls	r1, r1, #2
200029fe:	e7ed      	b.n	200029dc <tud_descriptor_string_cb+0x44>
20002a00:	4904      	ldr	r1, [pc, #16]	; (20002a14 <tud_descriptor_string_cb+0x7c>)
20002a02:	4d03      	ldr	r5, [pc, #12]	; (20002a10 <tud_descriptor_string_cb+0x78>)
20002a04:	e7ea      	b.n	200029dc <tud_descriptor_string_cb+0x44>
20002a06:	2000      	movs	r0, #0
20002a08:	e7ea      	b.n	200029e0 <tud_descriptor_string_cb+0x48>
20002a0a:	46c0      	nop			; (mov r8, r8)
20002a0c:	2000b460 	.word	0x2000b460
20002a10:	2000cc58 	.word	0x2000cc58
20002a14:	00000302 	.word	0x00000302

20002a18 <tud_descriptor_bos_cb>:
20002a18:	4800      	ldr	r0, [pc, #0]	; (20002a1c <tud_descriptor_bos_cb+0x4>)
20002a1a:	4770      	bx	lr
20002a1c:	2000b00c 	.word	0x2000b00c

20002a20 <dap_edpt_init>:
20002a20:	4770      	bx	lr
20002a22:	46c0      	nop			; (mov r8, r8)

20002a24 <dap_edpt_reset>:
20002a24:	4770      	bx	lr
20002a26:	46c0      	nop			; (mov r8, r8)

20002a28 <dap_edpt_control_xfer_cb>:
20002a28:	2000      	movs	r0, #0
20002a2a:	4770      	bx	lr

20002a2c <dap_edpt_open>:
20002a2c:	b5f0      	push	{r4, r5, r6, r7, lr}
20002a2e:	4646      	mov	r6, r8
20002a30:	46d6      	mov	lr, sl
20002a32:	464f      	mov	r7, r9
20002a34:	b5c0      	push	{r6, r7, lr}
20002a36:	794b      	ldrb	r3, [r1, #5]
20002a38:	0006      	movs	r6, r0
20002a3a:	000c      	movs	r4, r1
20002a3c:	2bff      	cmp	r3, #255	; 0xff
20002a3e:	d11f      	bne.n	20002a80 <dap_edpt_open+0x54>
20002a40:	798b      	ldrb	r3, [r1, #6]
20002a42:	2b00      	cmp	r3, #0
20002a44:	d11c      	bne.n	20002a80 <dap_edpt_open+0x54>
20002a46:	79cb      	ldrb	r3, [r1, #7]
20002a48:	2b00      	cmp	r3, #0
20002a4a:	d119      	bne.n	20002a80 <dap_edpt_open+0x54>
20002a4c:	2080      	movs	r0, #128	; 0x80
20002a4e:	4681      	mov	r9, r0
20002a50:	464f      	mov	r7, r9
20002a52:	491e      	ldr	r1, [pc, #120]	; (20002acc <dap_edpt_open+0xa0>)
20002a54:	4d1e      	ldr	r5, [pc, #120]	; (20002ad0 <dap_edpt_open+0xa4>)
20002a56:	500b      	str	r3, [r1, r0]
20002a58:	3004      	adds	r0, #4
20002a5a:	500b      	str	r3, [r1, r0]
20002a5c:	46a8      	mov	r8, r5
20002a5e:	51eb      	str	r3, [r5, r7]
20002a60:	502b      	str	r3, [r5, r0]
20002a62:	2589      	movs	r5, #137	; 0x89
20002a64:	3004      	adds	r0, #4
20002a66:	3f7f      	subs	r7, #127	; 0x7f
20002a68:	554b      	strb	r3, [r1, r5]
20002a6a:	540f      	strb	r7, [r1, r0]
20002a6c:	4641      	mov	r1, r8
20002a6e:	554b      	strb	r3, [r1, r5]
20002a70:	540f      	strb	r7, [r1, r0]
20002a72:	7923      	ldrb	r3, [r4, #4]
20002a74:	00dd      	lsls	r5, r3, #3
20002a76:	1aed      	subs	r5, r5, r3
20002a78:	3509      	adds	r5, #9
20002a7a:	b2ad      	uxth	r5, r5
20002a7c:	42aa      	cmp	r2, r5
20002a7e:	d206      	bcs.n	20002a8e <dap_edpt_open+0x62>
20002a80:	2500      	movs	r5, #0
20002a82:	0028      	movs	r0, r5
20002a84:	bce0      	pop	{r5, r6, r7}
20002a86:	46ba      	mov	sl, r7
20002a88:	46b1      	mov	r9, r6
20002a8a:	46a8      	mov	r8, r5
20002a8c:	bdf0      	pop	{r4, r5, r6, r7, pc}
20002a8e:	7ae3      	ldrb	r3, [r4, #11]
20002a90:	0021      	movs	r1, r4
20002a92:	469a      	mov	sl, r3
20002a94:	4652      	mov	r2, sl
20002a96:	4b0f      	ldr	r3, [pc, #60]	; (20002ad4 <dap_edpt_open+0xa8>)
20002a98:	0030      	movs	r0, r6
20002a9a:	3109      	adds	r1, #9
20002a9c:	701a      	strb	r2, [r3, #0]
20002a9e:	f004 f83b 	bl	20006b18 <usbd_edpt_open>
20002aa2:	4643      	mov	r3, r8
20002aa4:	464a      	mov	r2, r9
20002aa6:	589a      	ldr	r2, [r3, r2]
20002aa8:	4651      	mov	r1, sl
20002aaa:	403a      	ands	r2, r7
20002aac:	0192      	lsls	r2, r2, #6
20002aae:	4442      	add	r2, r8
20002ab0:	2340      	movs	r3, #64	; 0x40
20002ab2:	0030      	movs	r0, r6
20002ab4:	f004 f872 	bl	20006b9c <usbd_edpt_xfer>
20002ab8:	0021      	movs	r1, r4
20002aba:	7ca2      	ldrb	r2, [r4, #18]
20002abc:	4b06      	ldr	r3, [pc, #24]	; (20002ad8 <dap_edpt_open+0xac>)
20002abe:	0030      	movs	r0, r6
20002ac0:	3110      	adds	r1, #16
20002ac2:	701a      	strb	r2, [r3, #0]
20002ac4:	f004 f828 	bl	20006b18 <usbd_edpt_open>
20002ac8:	e7db      	b.n	20002a82 <dap_edpt_open+0x56>
20002aca:	46c0      	nop			; (mov r8, r8)
20002acc:	2000ba6c 	.word	0x2000ba6c
20002ad0:	2000b9e0 	.word	0x2000b9e0
20002ad4:	200218c7 	.word	0x200218c7
20002ad8:	200218c6 	.word	0x200218c6

20002adc <dap_edpt_xfer_cb>:
20002adc:	b5f8      	push	{r3, r4, r5, r6, r7, lr}
20002ade:	09ca      	lsrs	r2, r1, #7
20002ae0:	2400      	movs	r4, #0
20002ae2:	2a01      	cmp	r2, #1
20002ae4:	d014      	beq.n	20002b10 <dap_edpt_xfer_cb+0x34>
20002ae6:	2b40      	cmp	r3, #64	; 0x40
20002ae8:	d810      	bhi.n	20002b0c <dap_edpt_xfer_cb+0x30>
20002aea:	2680      	movs	r6, #128	; 0x80
20002aec:	2284      	movs	r2, #132	; 0x84
20002aee:	4d21      	ldr	r5, [pc, #132]	; (20002b74 <dap_edpt_xfer_cb+0x98>)
20002af0:	59ab      	ldr	r3, [r5, r6]
20002af2:	58af      	ldr	r7, [r5, r2]
20002af4:	3301      	adds	r3, #1
20002af6:	3a83      	subs	r2, #131	; 0x83
20002af8:	4013      	ands	r3, r2
20002afa:	42bb      	cmp	r3, r7
20002afc:	d119      	bne.n	20002b32 <dap_edpt_xfer_cb+0x56>
20002afe:	2389      	movs	r3, #137	; 0x89
20002b00:	54ea      	strb	r2, [r5, r3]
20002b02:	4b1d      	ldr	r3, [pc, #116]	; (20002b78 <dap_edpt_xfer_cb+0x9c>)
20002b04:	2401      	movs	r4, #1
20002b06:	6818      	ldr	r0, [r3, #0]
20002b08:	f006 fb34 	bl	20009174 <vTaskResume>
20002b0c:	0020      	movs	r0, r4
20002b0e:	bdf8      	pop	{r3, r4, r5, r6, r7, pc}
20002b10:	2b40      	cmp	r3, #64	; 0x40
20002b12:	d8fb      	bhi.n	20002b0c <dap_edpt_xfer_cb+0x30>
20002b14:	2584      	movs	r5, #132	; 0x84
20002b16:	2688      	movs	r6, #136	; 0x88
20002b18:	4c18      	ldr	r4, [pc, #96]	; (20002b7c <dap_edpt_xfer_cb+0xa0>)
20002b1a:	5963      	ldr	r3, [r4, r5]
20002b1c:	3301      	adds	r3, #1
20002b1e:	5163      	str	r3, [r4, r5]
20002b20:	5da3      	ldrb	r3, [r4, r6]
20002b22:	2b00      	cmp	r3, #0
20002b24:	d012      	beq.n	20002b4c <dap_edpt_xfer_cb+0x70>
20002b26:	4b14      	ldr	r3, [pc, #80]	; (20002b78 <dap_edpt_xfer_cb+0x9c>)
20002b28:	2401      	movs	r4, #1
20002b2a:	6818      	ldr	r0, [r3, #0]
20002b2c:	f006 fb22 	bl	20009174 <vTaskResume>
20002b30:	e7ec      	b.n	20002b0c <dap_edpt_xfer_cb+0x30>
20002b32:	59ab      	ldr	r3, [r5, r6]
20002b34:	3301      	adds	r3, #1
20002b36:	51ab      	str	r3, [r5, r6]
20002b38:	59ab      	ldr	r3, [r5, r6]
20002b3a:	401a      	ands	r2, r3
20002b3c:	0192      	lsls	r2, r2, #6
20002b3e:	2340      	movs	r3, #64	; 0x40
20002b40:	1952      	adds	r2, r2, r5
20002b42:	f004 f82b 	bl	20006b9c <usbd_edpt_xfer>
20002b46:	2389      	movs	r3, #137	; 0x89
20002b48:	54ec      	strb	r4, [r5, r3]
20002b4a:	e7ec      	b.n	20002b26 <dap_edpt_xfer_cb+0x4a>
20002b4c:	5967      	ldr	r7, [r4, r5]
20002b4e:	4b0c      	ldr	r3, [pc, #48]	; (20002b80 <dap_edpt_xfer_cb+0xa4>)
20002b50:	403a      	ands	r2, r7
20002b52:	681b      	ldr	r3, [r3, #0]
20002b54:	0192      	lsls	r2, r2, #6
20002b56:	b29b      	uxth	r3, r3
20002b58:	1912      	adds	r2, r2, r4
20002b5a:	f004 f81f 	bl	20006b9c <usbd_edpt_xfer>
20002b5e:	2280      	movs	r2, #128	; 0x80
20002b60:	5963      	ldr	r3, [r4, r5]
20002b62:	58a2      	ldr	r2, [r4, r2]
20002b64:	3301      	adds	r3, #1
20002b66:	1a9b      	subs	r3, r3, r2
20002b68:	425a      	negs	r2, r3
20002b6a:	4153      	adcs	r3, r2
20002b6c:	b2db      	uxtb	r3, r3
20002b6e:	55a3      	strb	r3, [r4, r6]
20002b70:	e7d9      	b.n	20002b26 <dap_edpt_xfer_cb+0x4a>
20002b72:	46c0      	nop			; (mov r8, r8)
20002b74:	2000b9e0 	.word	0x2000b9e0
20002b78:	2001108c 	.word	0x2001108c
20002b7c:	2000ba6c 	.word	0x2000ba6c
20002b80:	2000cd24 	.word	0x2000cd24

20002b84 <dap_thread>:
20002b84:	b5f8      	push	{r3, r4, r5, r6, r7, lr}
20002b86:	4657      	mov	r7, sl
20002b88:	46de      	mov	lr, fp
20002b8a:	464e      	mov	r6, r9
20002b8c:	4645      	mov	r5, r8
20002b8e:	4b56      	ldr	r3, [pc, #344]	; (20002ce8 <dap_thread+0x164>)
20002b90:	b5e0      	push	{r5, r6, r7, lr}
20002b92:	469b      	mov	fp, r3
20002b94:	4b55      	ldr	r3, [pc, #340]	; (20002cec <dap_thread+0x168>)
20002b96:	2680      	movs	r6, #128	; 0x80
20002b98:	469a      	mov	sl, r3
20002b9a:	4c55      	ldr	r4, [pc, #340]	; (20002cf0 <dap_thread+0x16c>)
20002b9c:	4f55      	ldr	r7, [pc, #340]	; (20002cf4 <dap_thread+0x170>)
20002b9e:	2384      	movs	r3, #132	; 0x84
20002ba0:	58e2      	ldr	r2, [r4, r3]
20002ba2:	59a3      	ldr	r3, [r4, r6]
20002ba4:	429a      	cmp	r2, r3
20002ba6:	d05b      	beq.n	20002c60 <dap_thread+0xdc>
20002ba8:	2384      	movs	r3, #132	; 0x84
20002baa:	58e5      	ldr	r5, [r4, r3]
20002bac:	3b83      	subs	r3, #131	; 0x83
20002bae:	402b      	ands	r3, r5
20002bb0:	019b      	lsls	r3, r3, #6
20002bb2:	5ce2      	ldrb	r2, [r4, r3]
20002bb4:	2a7e      	cmp	r2, #126	; 0x7e
20002bb6:	d115      	bne.n	20002be4 <dap_thread+0x60>
20002bb8:	3201      	adds	r2, #1
20002bba:	4691      	mov	r9, r2
20002bbc:	3a7e      	subs	r2, #126	; 0x7e
20002bbe:	4690      	mov	r8, r2
20002bc0:	464a      	mov	r2, r9
20002bc2:	54e2      	strb	r2, [r4, r3]
20002bc4:	59a3      	ldr	r3, [r4, r6]
20002bc6:	3501      	adds	r5, #1
20002bc8:	429d      	cmp	r5, r3
20002bca:	d105      	bne.n	20002bd8 <dap_thread+0x54>
20002bcc:	6838      	ldr	r0, [r7, #0]
20002bce:	f006 fa6b 	bl	200090a8 <vTaskSuspend>
20002bd2:	59a3      	ldr	r3, [r4, r6]
20002bd4:	42ab      	cmp	r3, r5
20002bd6:	d0f9      	beq.n	20002bcc <dap_thread+0x48>
20002bd8:	4643      	mov	r3, r8
20002bda:	402b      	ands	r3, r5
20002bdc:	019b      	lsls	r3, r3, #6
20002bde:	5ce2      	ldrb	r2, [r4, r3]
20002be0:	2a7e      	cmp	r2, #126	; 0x7e
20002be2:	d0ed      	beq.n	20002bc0 <dap_thread+0x3c>
20002be4:	2284      	movs	r2, #132	; 0x84
20002be6:	2501      	movs	r5, #1
20002be8:	58a1      	ldr	r1, [r4, r2]
20002bea:	4843      	ldr	r0, [pc, #268]	; (20002cf8 <dap_thread+0x174>)
20002bec:	4029      	ands	r1, r5
20002bee:	0189      	lsls	r1, r1, #6
20002bf0:	3a44      	subs	r2, #68	; 0x44
20002bf2:	1861      	adds	r1, r4, r1
20002bf4:	f002 fe62 	bl	200058bc <__wrap___aeabi_memcpy>
20002bf8:	2284      	movs	r2, #132	; 0x84
20002bfa:	58a3      	ldr	r3, [r4, r2]
20002bfc:	3301      	adds	r3, #1
20002bfe:	50a3      	str	r3, [r4, r2]
20002c00:	2389      	movs	r3, #137	; 0x89
20002c02:	4698      	mov	r8, r3
20002c04:	5ce3      	ldrb	r3, [r4, r3]
20002c06:	2b00      	cmp	r3, #0
20002c08:	d159      	bne.n	20002cbe <dap_thread+0x13a>
20002c0a:	493c      	ldr	r1, [pc, #240]	; (20002cfc <dap_thread+0x178>)
20002c0c:	483a      	ldr	r0, [pc, #232]	; (20002cf8 <dap_thread+0x174>)
20002c0e:	f7fe feb9 	bl	20001984 <DAP_ExecuteCommand>
20002c12:	465b      	mov	r3, fp
20002c14:	6018      	str	r0, [r3, #0]
20002c16:	f006 fbe3 	bl	200093e0 <vTaskSuspendAll>
20002c1a:	4653      	mov	r3, sl
20002c1c:	2184      	movs	r1, #132	; 0x84
20002c1e:	599a      	ldr	r2, [r3, r6]
20002c20:	585b      	ldr	r3, [r3, r1]
20002c22:	429a      	cmp	r2, r3
20002c24:	d020      	beq.n	20002c68 <dap_thread+0xe4>
20002c26:	4653      	mov	r3, sl
20002c28:	465a      	mov	r2, fp
20002c2a:	2001      	movs	r0, #1
20002c2c:	599b      	ldr	r3, [r3, r6]
20002c2e:	6812      	ldr	r2, [r2, #0]
20002c30:	4018      	ands	r0, r3
20002c32:	0180      	lsls	r0, r0, #6
20002c34:	0412      	lsls	r2, r2, #16
20002c36:	4931      	ldr	r1, [pc, #196]	; (20002cfc <dap_thread+0x178>)
20002c38:	0c12      	lsrs	r2, r2, #16
20002c3a:	4450      	add	r0, sl
20002c3c:	f002 fe3e 	bl	200058bc <__wrap___aeabi_memcpy>
20002c40:	4653      	mov	r3, sl
20002c42:	4652      	mov	r2, sl
20002c44:	599b      	ldr	r3, [r3, r6]
20002c46:	4651      	mov	r1, sl
20002c48:	3301      	adds	r3, #1
20002c4a:	5193      	str	r3, [r2, r6]
20002c4c:	2388      	movs	r3, #136	; 0x88
20002c4e:	2200      	movs	r2, #0
20002c50:	54ca      	strb	r2, [r1, r3]
20002c52:	f006 fcc1 	bl	200095d8 <xTaskResumeAll>
20002c56:	2384      	movs	r3, #132	; 0x84
20002c58:	58e2      	ldr	r2, [r4, r3]
20002c5a:	59a3      	ldr	r3, [r4, r6]
20002c5c:	429a      	cmp	r2, r3
20002c5e:	d1a3      	bne.n	20002ba8 <dap_thread+0x24>
20002c60:	6838      	ldr	r0, [r7, #0]
20002c62:	f006 fa21 	bl	200090a8 <vTaskSuspend>
20002c66:	e79a      	b.n	20002b9e <dap_thread+0x1a>
20002c68:	4653      	mov	r3, sl
20002c6a:	5998      	ldr	r0, [r3, r6]
20002c6c:	465b      	mov	r3, fp
20002c6e:	2501      	movs	r5, #1
20002c70:	681a      	ldr	r2, [r3, #0]
20002c72:	4028      	ands	r0, r5
20002c74:	0180      	lsls	r0, r0, #6
20002c76:	0412      	lsls	r2, r2, #16
20002c78:	4920      	ldr	r1, [pc, #128]	; (20002cfc <dap_thread+0x178>)
20002c7a:	0c12      	lsrs	r2, r2, #16
20002c7c:	4450      	add	r0, sl
20002c7e:	f002 fe1d 	bl	200058bc <__wrap___aeabi_memcpy>
20002c82:	4653      	mov	r3, sl
20002c84:	4652      	mov	r2, sl
20002c86:	599b      	ldr	r3, [r3, r6]
20002c88:	4659      	mov	r1, fp
20002c8a:	3301      	adds	r3, #1
20002c8c:	5193      	str	r3, [r2, r6]
20002c8e:	2384      	movs	r3, #132	; 0x84
20002c90:	58d2      	ldr	r2, [r2, r3]
20002c92:	680b      	ldr	r3, [r1, #0]
20002c94:	402a      	ands	r2, r5
20002c96:	491a      	ldr	r1, [pc, #104]	; (20002d00 <dap_thread+0x17c>)
20002c98:	0192      	lsls	r2, r2, #6
20002c9a:	b29b      	uxth	r3, r3
20002c9c:	4452      	add	r2, sl
20002c9e:	7809      	ldrb	r1, [r1, #0]
20002ca0:	2000      	movs	r0, #0
20002ca2:	f003 ff7b 	bl	20006b9c <usbd_edpt_xfer>
20002ca6:	f006 fc97 	bl	200095d8 <xTaskResumeAll>
20002caa:	2384      	movs	r3, #132	; 0x84
20002cac:	58e3      	ldr	r3, [r4, r3]
20002cae:	59a2      	ldr	r2, [r4, r6]
20002cb0:	429a      	cmp	r2, r3
20002cb2:	d000      	beq.n	20002cb6 <dap_thread+0x132>
20002cb4:	e778      	b.n	20002ba8 <dap_thread+0x24>
20002cb6:	6838      	ldr	r0, [r7, #0]
20002cb8:	f006 f9f6 	bl	200090a8 <vTaskSuspend>
20002cbc:	e76f      	b.n	20002b9e <dap_thread+0x1a>
20002cbe:	f006 fb8f 	bl	200093e0 <vTaskSuspendAll>
20002cc2:	59a3      	ldr	r3, [r4, r6]
20002cc4:	2000      	movs	r0, #0
20002cc6:	3301      	adds	r3, #1
20002cc8:	51a3      	str	r3, [r4, r6]
20002cca:	59a2      	ldr	r2, [r4, r6]
20002ccc:	4b0d      	ldr	r3, [pc, #52]	; (20002d04 <dap_thread+0x180>)
20002cce:	402a      	ands	r2, r5
20002cd0:	0192      	lsls	r2, r2, #6
20002cd2:	7819      	ldrb	r1, [r3, #0]
20002cd4:	18a2      	adds	r2, r4, r2
20002cd6:	2340      	movs	r3, #64	; 0x40
20002cd8:	f003 ff60 	bl	20006b9c <usbd_edpt_xfer>
20002cdc:	2300      	movs	r3, #0
20002cde:	4642      	mov	r2, r8
20002ce0:	54a3      	strb	r3, [r4, r2]
20002ce2:	f006 fc79 	bl	200095d8 <xTaskResumeAll>
20002ce6:	e790      	b.n	20002c0a <dap_thread+0x86>
20002ce8:	2000cd24 	.word	0x2000cd24
20002cec:	2000ba6c 	.word	0x2000ba6c
20002cf0:	2000b9e0 	.word	0x2000b9e0
20002cf4:	2001108c 	.word	0x2001108c
20002cf8:	2000b8dc 	.word	0x2000b8dc
20002cfc:	2000b91c 	.word	0x2000b91c
20002d00:	200218c6 	.word	0x200218c6
20002d04:	200218c7 	.word	0x200218c7

20002d08 <usbd_app_driver_get_cb>:
20002d08:	2301      	movs	r3, #1
20002d0a:	7003      	strb	r3, [r0, #0]
20002d0c:	4800      	ldr	r0, [pc, #0]	; (20002d10 <usbd_app_driver_get_cb+0x8>)
20002d0e:	4770      	bx	lr
20002d10:	2000b11c 	.word	0x2000b11c

20002d14 <DAP_ProcessVendorCommand>:
20002d14:	7803      	ldrb	r3, [r0, #0]
20002d16:	4801      	ldr	r0, [pc, #4]	; (20002d1c <DAP_ProcessVendorCommand+0x8>)
20002d18:	700b      	strb	r3, [r1, #0]
20002d1a:	4770      	bx	lr
20002d1c:	00010001 	.word	0x00010001

20002d20 <SWJ_Sequence>:
20002d20:	b5f0      	push	{r4, r5, r6, r7, lr}
20002d22:	1e42      	subs	r2, r0, #1
20002d24:	2800      	cmp	r0, #0
20002d26:	d023      	beq.n	20002d70 <SWJ_Sequence+0x50>
20002d28:	20d0      	movs	r0, #208	; 0xd0
20002d2a:	2702      	movs	r7, #2
20002d2c:	4b11      	ldr	r3, [pc, #68]	; (20002d74 <SWJ_Sequence+0x54>)
20002d2e:	2500      	movs	r5, #0
20002d30:	685e      	ldr	r6, [r3, #4]
20002d32:	2401      	movs	r4, #1
20002d34:	2300      	movs	r3, #0
20002d36:	46bc      	mov	ip, r7
20002d38:	0600      	lsls	r0, r0, #24
20002d3a:	e00f      	b.n	20002d5c <SWJ_Sequence+0x3c>
20002d3c:	4667      	mov	r7, ip
20002d3e:	3d01      	subs	r5, #1
20002d40:	421c      	tst	r4, r3
20002d42:	d013      	beq.n	20002d6c <SWJ_Sequence+0x4c>
20002d44:	6147      	str	r7, [r0, #20]
20002d46:	0037      	movs	r7, r6
20002d48:	6184      	str	r4, [r0, #24]
20002d4a:	3f01      	subs	r7, #1
20002d4c:	d1fd      	bne.n	20002d4a <SWJ_Sequence+0x2a>
20002d4e:	0037      	movs	r7, r6
20002d50:	6144      	str	r4, [r0, #20]
20002d52:	3f01      	subs	r7, #1
20002d54:	d1fd      	bne.n	20002d52 <SWJ_Sequence+0x32>
20002d56:	085b      	lsrs	r3, r3, #1
20002d58:	3a01      	subs	r2, #1
20002d5a:	d309      	bcc.n	20002d70 <SWJ_Sequence+0x50>
20002d5c:	2d00      	cmp	r5, #0
20002d5e:	d1ed      	bne.n	20002d3c <SWJ_Sequence+0x1c>
20002d60:	780b      	ldrb	r3, [r1, #0]
20002d62:	2507      	movs	r5, #7
20002d64:	4667      	mov	r7, ip
20002d66:	3101      	adds	r1, #1
20002d68:	421c      	tst	r4, r3
20002d6a:	d1eb      	bne.n	20002d44 <SWJ_Sequence+0x24>
20002d6c:	6187      	str	r7, [r0, #24]
20002d6e:	e7ea      	b.n	20002d46 <SWJ_Sequence+0x26>
20002d70:	bdf0      	pop	{r4, r5, r6, r7, pc}
20002d72:	46c0      	nop			; (mov r8, r8)
20002d74:	2000b95c 	.word	0x2000b95c

20002d78 <SWD_Sequence>:
20002d78:	233f      	movs	r3, #63	; 0x3f
20002d7a:	b5f0      	push	{r4, r5, r6, r7, lr}
20002d7c:	46d6      	mov	lr, sl
20002d7e:	464f      	mov	r7, r9
20002d80:	4646      	mov	r6, r8
20002d82:	001c      	movs	r4, r3
20002d84:	b5c0      	push	{r6, r7, lr}
20002d86:	4004      	ands	r4, r0
20002d88:	4203      	tst	r3, r0
20002d8a:	d100      	bne.n	20002d8e <SWD_Sequence+0x16>
20002d8c:	2440      	movs	r4, #64	; 0x40
20002d8e:	0603      	lsls	r3, r0, #24
20002d90:	d400      	bmi.n	20002d94 <SWD_Sequence+0x1c>
20002d92:	e0a7      	b.n	20002ee4 <SWD_Sequence+0x16c>
20002d94:	4b52      	ldr	r3, [pc, #328]	; (20002ee0 <SWD_Sequence+0x168>)
20002d96:	4692      	mov	sl, r2
20002d98:	469c      	mov	ip, r3
20002d9a:	23d0      	movs	r3, #208	; 0xd0
20002d9c:	2101      	movs	r1, #1
20002d9e:	2701      	movs	r7, #1
20002da0:	25ff      	movs	r5, #255	; 0xff
20002da2:	061b      	lsls	r3, r3, #24
20002da4:	4662      	mov	r2, ip
20002da6:	619f      	str	r7, [r3, #24]
20002da8:	6852      	ldr	r2, [r2, #4]
20002daa:	0010      	movs	r0, r2
20002dac:	3801      	subs	r0, #1
20002dae:	d1fd      	bne.n	20002dac <SWD_Sequence+0x34>
20002db0:	6858      	ldr	r0, [r3, #4]
20002db2:	0016      	movs	r6, r2
20002db4:	615f      	str	r7, [r3, #20]
20002db6:	3e01      	subs	r6, #1
20002db8:	d1fd      	bne.n	20002db6 <SWD_Sequence+0x3e>
20002dba:	0840      	lsrs	r0, r0, #1
20002dbc:	01c0      	lsls	r0, r0, #7
20002dbe:	4028      	ands	r0, r5
20002dc0:	4680      	mov	r8, r0
20002dc2:	2c01      	cmp	r4, #1
20002dc4:	d100      	bne.n	20002dc8 <SWD_Sequence+0x50>
20002dc6:	e129      	b.n	2000301c <SWD_Sequence+0x2a4>
20002dc8:	0010      	movs	r0, r2
20002dca:	6199      	str	r1, [r3, #24]
20002dcc:	3801      	subs	r0, #1
20002dce:	d1fd      	bne.n	20002dcc <SWD_Sequence+0x54>
20002dd0:	6858      	ldr	r0, [r3, #4]
20002dd2:	0016      	movs	r6, r2
20002dd4:	6159      	str	r1, [r3, #20]
20002dd6:	3e01      	subs	r6, #1
20002dd8:	d1fd      	bne.n	20002dd6 <SWD_Sequence+0x5e>
20002dda:	4646      	mov	r6, r8
20002ddc:	0840      	lsrs	r0, r0, #1
20002dde:	01c0      	lsls	r0, r0, #7
20002de0:	0876      	lsrs	r6, r6, #1
20002de2:	4028      	ands	r0, r5
20002de4:	4330      	orrs	r0, r6
20002de6:	2c02      	cmp	r4, #2
20002de8:	d100      	bne.n	20002dec <SWD_Sequence+0x74>
20002dea:	e11c      	b.n	20003026 <SWD_Sequence+0x2ae>
20002dec:	0016      	movs	r6, r2
20002dee:	6199      	str	r1, [r3, #24]
20002df0:	3e01      	subs	r6, #1
20002df2:	d1fd      	bne.n	20002df0 <SWD_Sequence+0x78>
20002df4:	685e      	ldr	r6, [r3, #4]
20002df6:	6159      	str	r1, [r3, #20]
20002df8:	46b0      	mov	r8, r6
20002dfa:	0016      	movs	r6, r2
20002dfc:	3e01      	subs	r6, #1
20002dfe:	d1fd      	bne.n	20002dfc <SWD_Sequence+0x84>
20002e00:	4646      	mov	r6, r8
20002e02:	0876      	lsrs	r6, r6, #1
20002e04:	01f6      	lsls	r6, r6, #7
20002e06:	0840      	lsrs	r0, r0, #1
20002e08:	402e      	ands	r6, r5
20002e0a:	4330      	orrs	r0, r6
20002e0c:	2c03      	cmp	r4, #3
20002e0e:	d100      	bne.n	20002e12 <SWD_Sequence+0x9a>
20002e10:	e10d      	b.n	2000302e <SWD_Sequence+0x2b6>
20002e12:	0016      	movs	r6, r2
20002e14:	6199      	str	r1, [r3, #24]
20002e16:	3e01      	subs	r6, #1
20002e18:	d1fd      	bne.n	20002e16 <SWD_Sequence+0x9e>
20002e1a:	685e      	ldr	r6, [r3, #4]
20002e1c:	6159      	str	r1, [r3, #20]
20002e1e:	46b0      	mov	r8, r6
20002e20:	0016      	movs	r6, r2
20002e22:	3e01      	subs	r6, #1
20002e24:	d1fd      	bne.n	20002e22 <SWD_Sequence+0xaa>
20002e26:	4646      	mov	r6, r8
20002e28:	0876      	lsrs	r6, r6, #1
20002e2a:	01f6      	lsls	r6, r6, #7
20002e2c:	0840      	lsrs	r0, r0, #1
20002e2e:	402e      	ands	r6, r5
20002e30:	4330      	orrs	r0, r6
20002e32:	2c04      	cmp	r4, #4
20002e34:	d100      	bne.n	20002e38 <SWD_Sequence+0xc0>
20002e36:	e0fe      	b.n	20003036 <SWD_Sequence+0x2be>
20002e38:	0016      	movs	r6, r2
20002e3a:	6199      	str	r1, [r3, #24]
20002e3c:	3e01      	subs	r6, #1
20002e3e:	d1fd      	bne.n	20002e3c <SWD_Sequence+0xc4>
20002e40:	685e      	ldr	r6, [r3, #4]
20002e42:	6159      	str	r1, [r3, #20]
20002e44:	46b0      	mov	r8, r6
20002e46:	0016      	movs	r6, r2
20002e48:	3e01      	subs	r6, #1
20002e4a:	d1fd      	bne.n	20002e48 <SWD_Sequence+0xd0>
20002e4c:	4646      	mov	r6, r8
20002e4e:	0876      	lsrs	r6, r6, #1
20002e50:	01f6      	lsls	r6, r6, #7
20002e52:	0840      	lsrs	r0, r0, #1
20002e54:	402e      	ands	r6, r5
20002e56:	4330      	orrs	r0, r6
20002e58:	2c05      	cmp	r4, #5
20002e5a:	d100      	bne.n	20002e5e <SWD_Sequence+0xe6>
20002e5c:	e0ef      	b.n	2000303e <SWD_Sequence+0x2c6>
20002e5e:	0016      	movs	r6, r2
20002e60:	6199      	str	r1, [r3, #24]
20002e62:	3e01      	subs	r6, #1
20002e64:	d1fd      	bne.n	20002e62 <SWD_Sequence+0xea>
20002e66:	685e      	ldr	r6, [r3, #4]
20002e68:	6159      	str	r1, [r3, #20]
20002e6a:	46b0      	mov	r8, r6
20002e6c:	0016      	movs	r6, r2
20002e6e:	3e01      	subs	r6, #1
20002e70:	d1fd      	bne.n	20002e6e <SWD_Sequence+0xf6>
20002e72:	4646      	mov	r6, r8
20002e74:	0876      	lsrs	r6, r6, #1
20002e76:	01f6      	lsls	r6, r6, #7
20002e78:	0840      	lsrs	r0, r0, #1
20002e7a:	402e      	ands	r6, r5
20002e7c:	4330      	orrs	r0, r6
20002e7e:	2c06      	cmp	r4, #6
20002e80:	d100      	bne.n	20002e84 <SWD_Sequence+0x10c>
20002e82:	e0e0      	b.n	20003046 <SWD_Sequence+0x2ce>
20002e84:	0016      	movs	r6, r2
20002e86:	6199      	str	r1, [r3, #24]
20002e88:	3e01      	subs	r6, #1
20002e8a:	d1fd      	bne.n	20002e88 <SWD_Sequence+0x110>
20002e8c:	685e      	ldr	r6, [r3, #4]
20002e8e:	6159      	str	r1, [r3, #20]
20002e90:	46b0      	mov	r8, r6
20002e92:	0016      	movs	r6, r2
20002e94:	3e01      	subs	r6, #1
20002e96:	d1fd      	bne.n	20002e94 <SWD_Sequence+0x11c>
20002e98:	4646      	mov	r6, r8
20002e9a:	0876      	lsrs	r6, r6, #1
20002e9c:	01f6      	lsls	r6, r6, #7
20002e9e:	0840      	lsrs	r0, r0, #1
20002ea0:	402e      	ands	r6, r5
20002ea2:	4330      	orrs	r0, r6
20002ea4:	2c07      	cmp	r4, #7
20002ea6:	d100      	bne.n	20002eaa <SWD_Sequence+0x132>
20002ea8:	e0d1      	b.n	2000304e <SWD_Sequence+0x2d6>
20002eaa:	0016      	movs	r6, r2
20002eac:	6199      	str	r1, [r3, #24]
20002eae:	3e01      	subs	r6, #1
20002eb0:	d1fd      	bne.n	20002eae <SWD_Sequence+0x136>
20002eb2:	685e      	ldr	r6, [r3, #4]
20002eb4:	6159      	str	r1, [r3, #20]
20002eb6:	3a01      	subs	r2, #1
20002eb8:	d1fd      	bne.n	20002eb6 <SWD_Sequence+0x13e>
20002eba:	0872      	lsrs	r2, r6, #1
20002ebc:	01d2      	lsls	r2, r2, #7
20002ebe:	402a      	ands	r2, r5
20002ec0:	0840      	lsrs	r0, r0, #1
20002ec2:	4310      	orrs	r0, r2
20002ec4:	4652      	mov	r2, sl
20002ec6:	7010      	strb	r0, [r2, #0]
20002ec8:	2201      	movs	r2, #1
20002eca:	4690      	mov	r8, r2
20002ecc:	3c08      	subs	r4, #8
20002ece:	44c2      	add	sl, r8
20002ed0:	2c00      	cmp	r4, #0
20002ed2:	d000      	beq.n	20002ed6 <SWD_Sequence+0x15e>
20002ed4:	e766      	b.n	20002da4 <SWD_Sequence+0x2c>
20002ed6:	bce0      	pop	{r5, r6, r7}
20002ed8:	46ba      	mov	sl, r7
20002eda:	46b1      	mov	r9, r6
20002edc:	46a8      	mov	r8, r5
20002ede:	bdf0      	pop	{r4, r5, r6, r7, pc}
20002ee0:	2000b95c 	.word	0x2000b95c
20002ee4:	000e      	movs	r6, r1
20002ee6:	2001      	movs	r0, #1
20002ee8:	4b5b      	ldr	r3, [pc, #364]	; (20003058 <SWD_Sequence+0x2e0>)
20002eea:	4684      	mov	ip, r0
20002eec:	685a      	ldr	r2, [r3, #4]
20002eee:	23d0      	movs	r3, #208	; 0xd0
20002ef0:	7830      	ldrb	r0, [r6, #0]
20002ef2:	2502      	movs	r5, #2
20002ef4:	2101      	movs	r1, #1
20002ef6:	061b      	lsls	r3, r3, #24
20002ef8:	2800      	cmp	r0, #0
20002efa:	d000      	beq.n	20002efe <SWD_Sequence+0x186>
20002efc:	e07e      	b.n	20002ffc <SWD_Sequence+0x284>
20002efe:	625d      	str	r5, [r3, #36]	; 0x24
20002f00:	4667      	mov	r7, ip
20002f02:	619f      	str	r7, [r3, #24]
20002f04:	0017      	movs	r7, r2
20002f06:	3f01      	subs	r7, #1
20002f08:	d1fd      	bne.n	20002f06 <SWD_Sequence+0x18e>
20002f0a:	4667      	mov	r7, ip
20002f0c:	615f      	str	r7, [r3, #20]
20002f0e:	0017      	movs	r7, r2
20002f10:	3f01      	subs	r7, #1
20002f12:	d1fd      	bne.n	20002f10 <SWD_Sequence+0x198>
20002f14:	0847      	lsrs	r7, r0, #1
20002f16:	2c01      	cmp	r4, #1
20002f18:	d0dd      	beq.n	20002ed6 <SWD_Sequence+0x15e>
20002f1a:	2f00      	cmp	r7, #0
20002f1c:	d000      	beq.n	20002f20 <SWD_Sequence+0x1a8>
20002f1e:	e06f      	b.n	20003000 <SWD_Sequence+0x288>
20002f20:	625d      	str	r5, [r3, #36]	; 0x24
20002f22:	0017      	movs	r7, r2
20002f24:	6199      	str	r1, [r3, #24]
20002f26:	3f01      	subs	r7, #1
20002f28:	d1fd      	bne.n	20002f26 <SWD_Sequence+0x1ae>
20002f2a:	0017      	movs	r7, r2
20002f2c:	6159      	str	r1, [r3, #20]
20002f2e:	3f01      	subs	r7, #1
20002f30:	d1fd      	bne.n	20002f2e <SWD_Sequence+0x1b6>
20002f32:	0887      	lsrs	r7, r0, #2
20002f34:	2c02      	cmp	r4, #2
20002f36:	d0ce      	beq.n	20002ed6 <SWD_Sequence+0x15e>
20002f38:	2f00      	cmp	r7, #0
20002f3a:	d000      	beq.n	20002f3e <SWD_Sequence+0x1c6>
20002f3c:	e062      	b.n	20003004 <SWD_Sequence+0x28c>
20002f3e:	625d      	str	r5, [r3, #36]	; 0x24
20002f40:	0017      	movs	r7, r2
20002f42:	6199      	str	r1, [r3, #24]
20002f44:	3f01      	subs	r7, #1
20002f46:	d1fd      	bne.n	20002f44 <SWD_Sequence+0x1cc>
20002f48:	0017      	movs	r7, r2
20002f4a:	6159      	str	r1, [r3, #20]
20002f4c:	3f01      	subs	r7, #1
20002f4e:	d1fd      	bne.n	20002f4c <SWD_Sequence+0x1d4>
20002f50:	08c7      	lsrs	r7, r0, #3
20002f52:	2c03      	cmp	r4, #3
20002f54:	d100      	bne.n	20002f58 <SWD_Sequence+0x1e0>
20002f56:	e7be      	b.n	20002ed6 <SWD_Sequence+0x15e>
20002f58:	2f00      	cmp	r7, #0
20002f5a:	d000      	beq.n	20002f5e <SWD_Sequence+0x1e6>
20002f5c:	e054      	b.n	20003008 <SWD_Sequence+0x290>
20002f5e:	625d      	str	r5, [r3, #36]	; 0x24
20002f60:	0017      	movs	r7, r2
20002f62:	6199      	str	r1, [r3, #24]
20002f64:	3f01      	subs	r7, #1
20002f66:	d1fd      	bne.n	20002f64 <SWD_Sequence+0x1ec>
20002f68:	0017      	movs	r7, r2
20002f6a:	6159      	str	r1, [r3, #20]
20002f6c:	3f01      	subs	r7, #1
20002f6e:	d1fd      	bne.n	20002f6c <SWD_Sequence+0x1f4>
20002f70:	0907      	lsrs	r7, r0, #4
20002f72:	2c04      	cmp	r4, #4
20002f74:	d100      	bne.n	20002f78 <SWD_Sequence+0x200>
20002f76:	e7ae      	b.n	20002ed6 <SWD_Sequence+0x15e>
20002f78:	2f00      	cmp	r7, #0
20002f7a:	d000      	beq.n	20002f7e <SWD_Sequence+0x206>
20002f7c:	e046      	b.n	2000300c <SWD_Sequence+0x294>
20002f7e:	625d      	str	r5, [r3, #36]	; 0x24
20002f80:	0017      	movs	r7, r2
20002f82:	6199      	str	r1, [r3, #24]
20002f84:	3f01      	subs	r7, #1
20002f86:	d1fd      	bne.n	20002f84 <SWD_Sequence+0x20c>
20002f88:	0017      	movs	r7, r2
20002f8a:	6159      	str	r1, [r3, #20]
20002f8c:	3f01      	subs	r7, #1
20002f8e:	d1fd      	bne.n	20002f8c <SWD_Sequence+0x214>
20002f90:	0947      	lsrs	r7, r0, #5
20002f92:	2c05      	cmp	r4, #5
20002f94:	d100      	bne.n	20002f98 <SWD_Sequence+0x220>
20002f96:	e79e      	b.n	20002ed6 <SWD_Sequence+0x15e>
20002f98:	2f00      	cmp	r7, #0
20002f9a:	d139      	bne.n	20003010 <SWD_Sequence+0x298>
20002f9c:	625d      	str	r5, [r3, #36]	; 0x24
20002f9e:	0017      	movs	r7, r2
20002fa0:	6199      	str	r1, [r3, #24]
20002fa2:	3f01      	subs	r7, #1
20002fa4:	d1fd      	bne.n	20002fa2 <SWD_Sequence+0x22a>
20002fa6:	0017      	movs	r7, r2
20002fa8:	6159      	str	r1, [r3, #20]
20002faa:	3f01      	subs	r7, #1
20002fac:	d1fd      	bne.n	20002faa <SWD_Sequence+0x232>
20002fae:	0987      	lsrs	r7, r0, #6
20002fb0:	2c06      	cmp	r4, #6
20002fb2:	d100      	bne.n	20002fb6 <SWD_Sequence+0x23e>
20002fb4:	e78f      	b.n	20002ed6 <SWD_Sequence+0x15e>
20002fb6:	2f00      	cmp	r7, #0
20002fb8:	d12e      	bne.n	20003018 <SWD_Sequence+0x2a0>
20002fba:	625d      	str	r5, [r3, #36]	; 0x24
20002fbc:	0017      	movs	r7, r2
20002fbe:	6199      	str	r1, [r3, #24]
20002fc0:	3f01      	subs	r7, #1
20002fc2:	d1fd      	bne.n	20002fc0 <SWD_Sequence+0x248>
20002fc4:	0017      	movs	r7, r2
20002fc6:	6159      	str	r1, [r3, #20]
20002fc8:	3f01      	subs	r7, #1
20002fca:	d1fd      	bne.n	20002fc8 <SWD_Sequence+0x250>
20002fcc:	09c0      	lsrs	r0, r0, #7
20002fce:	2c07      	cmp	r4, #7
20002fd0:	d100      	bne.n	20002fd4 <SWD_Sequence+0x25c>
20002fd2:	e780      	b.n	20002ed6 <SWD_Sequence+0x15e>
20002fd4:	2800      	cmp	r0, #0
20002fd6:	d11d      	bne.n	20003014 <SWD_Sequence+0x29c>
20002fd8:	625d      	str	r5, [r3, #36]	; 0x24
20002fda:	0010      	movs	r0, r2
20002fdc:	6199      	str	r1, [r3, #24]
20002fde:	3801      	subs	r0, #1
20002fe0:	d1fd      	bne.n	20002fde <SWD_Sequence+0x266>
20002fe2:	0010      	movs	r0, r2
20002fe4:	6159      	str	r1, [r3, #20]
20002fe6:	3801      	subs	r0, #1
20002fe8:	d1fd      	bne.n	20002fe6 <SWD_Sequence+0x26e>
20002fea:	3c08      	subs	r4, #8
20002fec:	3601      	adds	r6, #1
20002fee:	2c00      	cmp	r4, #0
20002ff0:	d100      	bne.n	20002ff4 <SWD_Sequence+0x27c>
20002ff2:	e770      	b.n	20002ed6 <SWD_Sequence+0x15e>
20002ff4:	7830      	ldrb	r0, [r6, #0]
20002ff6:	2800      	cmp	r0, #0
20002ff8:	d100      	bne.n	20002ffc <SWD_Sequence+0x284>
20002ffa:	e780      	b.n	20002efe <SWD_Sequence+0x186>
20002ffc:	629d      	str	r5, [r3, #40]	; 0x28
20002ffe:	e77f      	b.n	20002f00 <SWD_Sequence+0x188>
20003000:	629d      	str	r5, [r3, #40]	; 0x28
20003002:	e78e      	b.n	20002f22 <SWD_Sequence+0x1aa>
20003004:	629d      	str	r5, [r3, #40]	; 0x28
20003006:	e79b      	b.n	20002f40 <SWD_Sequence+0x1c8>
20003008:	629d      	str	r5, [r3, #40]	; 0x28
2000300a:	e7a9      	b.n	20002f60 <SWD_Sequence+0x1e8>
2000300c:	629d      	str	r5, [r3, #40]	; 0x28
2000300e:	e7b7      	b.n	20002f80 <SWD_Sequence+0x208>
20003010:	629d      	str	r5, [r3, #40]	; 0x28
20003012:	e7c4      	b.n	20002f9e <SWD_Sequence+0x226>
20003014:	629d      	str	r5, [r3, #40]	; 0x28
20003016:	e7e0      	b.n	20002fda <SWD_Sequence+0x262>
20003018:	629d      	str	r5, [r3, #40]	; 0x28
2000301a:	e7cf      	b.n	20002fbc <SWD_Sequence+0x244>
2000301c:	4643      	mov	r3, r8
2000301e:	09d8      	lsrs	r0, r3, #7
20003020:	4653      	mov	r3, sl
20003022:	7018      	strb	r0, [r3, #0]
20003024:	e757      	b.n	20002ed6 <SWD_Sequence+0x15e>
20003026:	4653      	mov	r3, sl
20003028:	0980      	lsrs	r0, r0, #6
2000302a:	7018      	strb	r0, [r3, #0]
2000302c:	e753      	b.n	20002ed6 <SWD_Sequence+0x15e>
2000302e:	4653      	mov	r3, sl
20003030:	0940      	lsrs	r0, r0, #5
20003032:	7018      	strb	r0, [r3, #0]
20003034:	e74f      	b.n	20002ed6 <SWD_Sequence+0x15e>
20003036:	4653      	mov	r3, sl
20003038:	0900      	lsrs	r0, r0, #4
2000303a:	7018      	strb	r0, [r3, #0]
2000303c:	e74b      	b.n	20002ed6 <SWD_Sequence+0x15e>
2000303e:	4653      	mov	r3, sl
20003040:	08c0      	lsrs	r0, r0, #3
20003042:	7018      	strb	r0, [r3, #0]
20003044:	e747      	b.n	20002ed6 <SWD_Sequence+0x15e>
20003046:	4653      	mov	r3, sl
20003048:	0880      	lsrs	r0, r0, #2
2000304a:	7018      	strb	r0, [r3, #0]
2000304c:	e743      	b.n	20002ed6 <SWD_Sequence+0x15e>
2000304e:	4653      	mov	r3, sl
20003050:	0840      	lsrs	r0, r0, #1
20003052:	7018      	strb	r0, [r3, #0]
20003054:	e73f      	b.n	20002ed6 <SWD_Sequence+0x15e>
20003056:	46c0      	nop			; (mov r8, r8)
20003058:	2000b95c 	.word	0x2000b95c

2000305c <SWD_Transfer>:
2000305c:	b5f8      	push	{r3, r4, r5, r6, r7, lr}
2000305e:	46de      	mov	lr, fp
20003060:	4645      	mov	r5, r8
20003062:	4657      	mov	r7, sl
20003064:	464e      	mov	r6, r9
20003066:	b5e0      	push	{r5, r6, r7, lr}
20003068:	4b48      	ldr	r3, [pc, #288]	; (2000318c <SWD_Transfer+0x130>)
2000306a:	0005      	movs	r5, r0
2000306c:	785b      	ldrb	r3, [r3, #1]
2000306e:	468b      	mov	fp, r1
20003070:	2b00      	cmp	r3, #0
20003072:	d100      	bne.n	20003076 <SWD_Transfer+0x1a>
20003074:	e08c      	b.n	20003190 <SWD_Transfer+0x134>
20003076:	23d0      	movs	r3, #208	; 0xd0
20003078:	2201      	movs	r2, #1
2000307a:	2002      	movs	r0, #2
2000307c:	061b      	lsls	r3, r3, #24
2000307e:	6298      	str	r0, [r3, #40]	; 0x28
20003080:	619a      	str	r2, [r3, #24]
20003082:	615a      	str	r2, [r3, #20]
20003084:	2d00      	cmp	r5, #0
20003086:	d000      	beq.n	2000308a <SWD_Transfer+0x2e>
20003088:	e157      	b.n	2000333a <SWD_Transfer+0x2de>
2000308a:	6258      	str	r0, [r3, #36]	; 0x24
2000308c:	619a      	str	r2, [r3, #24]
2000308e:	615a      	str	r2, [r3, #20]
20003090:	23d0      	movs	r3, #208	; 0xd0
20003092:	2202      	movs	r2, #2
20003094:	002c      	movs	r4, r5
20003096:	061b      	lsls	r3, r3, #24
20003098:	625a      	str	r2, [r3, #36]	; 0x24
2000309a:	3a01      	subs	r2, #1
2000309c:	619a      	str	r2, [r3, #24]
2000309e:	08a9      	lsrs	r1, r5, #2
200030a0:	615a      	str	r2, [r3, #20]
200030a2:	23d0      	movs	r3, #208	; 0xd0
200030a4:	2202      	movs	r2, #2
200030a6:	061b      	lsls	r3, r3, #24
200030a8:	625a      	str	r2, [r3, #36]	; 0x24
200030aa:	3a01      	subs	r2, #1
200030ac:	619a      	str	r2, [r3, #24]
200030ae:	1909      	adds	r1, r1, r4
200030b0:	615a      	str	r2, [r3, #20]
200030b2:	08ec      	lsrs	r4, r5, #3
200030b4:	23d0      	movs	r3, #208	; 0xd0
200030b6:	2202      	movs	r2, #2
200030b8:	061b      	lsls	r3, r3, #24
200030ba:	625a      	str	r2, [r3, #36]	; 0x24
200030bc:	23d0      	movs	r3, #208	; 0xd0
200030be:	2201      	movs	r2, #1
200030c0:	061b      	lsls	r3, r3, #24
200030c2:	1909      	adds	r1, r1, r4
200030c4:	619a      	str	r2, [r3, #24]
200030c6:	615a      	str	r2, [r3, #20]
200030c8:	2900      	cmp	r1, #0
200030ca:	d100      	bne.n	200030ce <SWD_Transfer+0x72>
200030cc:	e153      	b.n	20003376 <SWD_Transfer+0x31a>
200030ce:	3201      	adds	r2, #1
200030d0:	629a      	str	r2, [r3, #40]	; 0x28
200030d2:	24d0      	movs	r4, #208	; 0xd0
200030d4:	2301      	movs	r3, #1
200030d6:	2202      	movs	r2, #2
200030d8:	0624      	lsls	r4, r4, #24
200030da:	61a3      	str	r3, [r4, #24]
200030dc:	2001      	movs	r0, #1
200030de:	6163      	str	r3, [r4, #20]
200030e0:	2100      	movs	r1, #0
200030e2:	6262      	str	r2, [r4, #36]	; 0x24
200030e4:	61a3      	str	r3, [r4, #24]
200030e6:	6163      	str	r3, [r4, #20]
200030e8:	62a2      	str	r2, [r4, #40]	; 0x28
200030ea:	61a3      	str	r3, [r4, #24]
200030ec:	6163      	str	r3, [r4, #20]
200030ee:	62a2      	str	r2, [r4, #40]	; 0x28
200030f0:	2200      	movs	r2, #0
200030f2:	f001 fce7 	bl	20004ac4 <gpio_set_pulls>
200030f6:	4b25      	ldr	r3, [pc, #148]	; (2000318c <SWD_Transfer+0x130>)
200030f8:	2201      	movs	r2, #1
200030fa:	7e18      	ldrb	r0, [r3, #24]
200030fc:	1e03      	subs	r3, r0, #0
200030fe:	d004      	beq.n	2000310a <SWD_Transfer+0xae>
20003100:	3b01      	subs	r3, #1
20003102:	61a2      	str	r2, [r4, #24]
20003104:	6162      	str	r2, [r4, #20]
20003106:	2b00      	cmp	r3, #0
20003108:	d1fa      	bne.n	20003100 <SWD_Transfer+0xa4>
2000310a:	24d0      	movs	r4, #208	; 0xd0
2000310c:	2201      	movs	r2, #1
2000310e:	0624      	lsls	r4, r4, #24
20003110:	61a2      	str	r2, [r4, #24]
20003112:	6867      	ldr	r7, [r4, #4]
20003114:	6162      	str	r2, [r4, #20]
20003116:	61a2      	str	r2, [r4, #24]
20003118:	6863      	ldr	r3, [r4, #4]
2000311a:	6162      	str	r2, [r4, #20]
2000311c:	61a2      	str	r2, [r4, #24]
2000311e:	6861      	ldr	r1, [r4, #4]
20003120:	087f      	lsrs	r7, r7, #1
20003122:	4688      	mov	r8, r1
20003124:	4646      	mov	r6, r8
20003126:	0076      	lsls	r6, r6, #1
20003128:	46b0      	mov	r8, r6
2000312a:	2604      	movs	r6, #4
2000312c:	2102      	movs	r1, #2
2000312e:	46b1      	mov	r9, r6
20003130:	400b      	ands	r3, r1
20003132:	469c      	mov	ip, r3
20003134:	4646      	mov	r6, r8
20003136:	464b      	mov	r3, r9
20003138:	401e      	ands	r6, r3
2000313a:	0033      	movs	r3, r6
2000313c:	4666      	mov	r6, ip
2000313e:	431e      	orrs	r6, r3
20003140:	0033      	movs	r3, r6
20003142:	6162      	str	r2, [r4, #20]
20003144:	403a      	ands	r2, r7
20003146:	4313      	orrs	r3, r2
20003148:	4698      	mov	r8, r3
2000314a:	2b01      	cmp	r3, #1
2000314c:	d100      	bne.n	20003150 <SWD_Transfer+0xf4>
2000314e:	e1e0      	b.n	20003512 <SWD_Transfer+0x4b6>
20003150:	1e9f      	subs	r7, r3, #2
20003152:	0003      	movs	r3, r0
20003154:	2201      	movs	r2, #1
20003156:	438f      	bics	r7, r1
20003158:	3321      	adds	r3, #33	; 0x21
2000315a:	2f00      	cmp	r7, #0
2000315c:	d100      	bne.n	20003160 <SWD_Transfer+0x104>
2000315e:	e156      	b.n	2000340e <SWD_Transfer+0x3b2>
20003160:	3b01      	subs	r3, #1
20003162:	61a2      	str	r2, [r4, #24]
20003164:	6162      	str	r2, [r4, #20]
20003166:	2b00      	cmp	r3, #0
20003168:	d1fa      	bne.n	20003160 <SWD_Transfer+0x104>
2000316a:	2200      	movs	r2, #0
2000316c:	2101      	movs	r1, #1
2000316e:	2001      	movs	r0, #1
20003170:	f001 fca8 	bl	20004ac4 <gpio_set_pulls>
20003174:	2302      	movs	r3, #2
20003176:	62a3      	str	r3, [r4, #40]	; 0x28
20003178:	4643      	mov	r3, r8
2000317a:	b2dc      	uxtb	r4, r3
2000317c:	0020      	movs	r0, r4
2000317e:	bcf0      	pop	{r4, r5, r6, r7}
20003180:	46bb      	mov	fp, r7
20003182:	46b2      	mov	sl, r6
20003184:	46a9      	mov	r9, r5
20003186:	46a0      	mov	r8, r4
20003188:	bdf8      	pop	{r3, r4, r5, r6, r7, pc}
2000318a:	46c0      	nop			; (mov r8, r8)
2000318c:	2000b95c 	.word	0x2000b95c
20003190:	22d0      	movs	r2, #208	; 0xd0
20003192:	2102      	movs	r1, #2
20003194:	2001      	movs	r0, #1
20003196:	0612      	lsls	r2, r2, #24
20003198:	4b7d      	ldr	r3, [pc, #500]	; (20003390 <SWD_Transfer+0x334>)
2000319a:	6291      	str	r1, [r2, #40]	; 0x28
2000319c:	6190      	str	r0, [r2, #24]
2000319e:	685b      	ldr	r3, [r3, #4]
200031a0:	001c      	movs	r4, r3
200031a2:	3c01      	subs	r4, #1
200031a4:	d1fd      	bne.n	200031a2 <SWD_Transfer+0x146>
200031a6:	6150      	str	r0, [r2, #20]
200031a8:	0018      	movs	r0, r3
200031aa:	3801      	subs	r0, #1
200031ac:	d1fd      	bne.n	200031aa <SWD_Transfer+0x14e>
200031ae:	2d00      	cmp	r5, #0
200031b0:	d000      	beq.n	200031b4 <SWD_Transfer+0x158>
200031b2:	e0c0      	b.n	20003336 <SWD_Transfer+0x2da>
200031b4:	6251      	str	r1, [r2, #36]	; 0x24
200031b6:	21d0      	movs	r1, #208	; 0xd0
200031b8:	2201      	movs	r2, #1
200031ba:	0609      	lsls	r1, r1, #24
200031bc:	0018      	movs	r0, r3
200031be:	618a      	str	r2, [r1, #24]
200031c0:	3801      	subs	r0, #1
200031c2:	d1fd      	bne.n	200031c0 <SWD_Transfer+0x164>
200031c4:	614a      	str	r2, [r1, #20]
200031c6:	001a      	movs	r2, r3
200031c8:	3a01      	subs	r2, #1
200031ca:	d1fd      	bne.n	200031c8 <SWD_Transfer+0x16c>
200031cc:	2002      	movs	r0, #2
200031ce:	086a      	lsrs	r2, r5, #1
200031d0:	d100      	bne.n	200031d4 <SWD_Transfer+0x178>
200031d2:	e0db      	b.n	2000338c <SWD_Transfer+0x330>
200031d4:	6288      	str	r0, [r1, #40]	; 0x28
200031d6:	21d0      	movs	r1, #208	; 0xd0
200031d8:	2001      	movs	r0, #1
200031da:	0609      	lsls	r1, r1, #24
200031dc:	001c      	movs	r4, r3
200031de:	6188      	str	r0, [r1, #24]
200031e0:	3c01      	subs	r4, #1
200031e2:	d1fd      	bne.n	200031e0 <SWD_Transfer+0x184>
200031e4:	6148      	str	r0, [r1, #20]
200031e6:	0018      	movs	r0, r3
200031e8:	3801      	subs	r0, #1
200031ea:	d1fd      	bne.n	200031e8 <SWD_Transfer+0x18c>
200031ec:	08a8      	lsrs	r0, r5, #2
200031ee:	1812      	adds	r2, r2, r0
200031f0:	2800      	cmp	r0, #0
200031f2:	d100      	bne.n	200031f6 <SWD_Transfer+0x19a>
200031f4:	e0c7      	b.n	20003386 <SWD_Transfer+0x32a>
200031f6:	2002      	movs	r0, #2
200031f8:	6288      	str	r0, [r1, #40]	; 0x28
200031fa:	21d0      	movs	r1, #208	; 0xd0
200031fc:	2001      	movs	r0, #1
200031fe:	0609      	lsls	r1, r1, #24
20003200:	001c      	movs	r4, r3
20003202:	6188      	str	r0, [r1, #24]
20003204:	3c01      	subs	r4, #1
20003206:	d1fd      	bne.n	20003204 <SWD_Transfer+0x1a8>
20003208:	6148      	str	r0, [r1, #20]
2000320a:	0018      	movs	r0, r3
2000320c:	3801      	subs	r0, #1
2000320e:	d1fd      	bne.n	2000320c <SWD_Transfer+0x1b0>
20003210:	2402      	movs	r4, #2
20003212:	18aa      	adds	r2, r5, r2
20003214:	08e8      	lsrs	r0, r5, #3
20003216:	d100      	bne.n	2000321a <SWD_Transfer+0x1be>
20003218:	e0b3      	b.n	20003382 <SWD_Transfer+0x326>
2000321a:	628c      	str	r4, [r1, #40]	; 0x28
2000321c:	21d0      	movs	r1, #208	; 0xd0
2000321e:	2401      	movs	r4, #1
20003220:	0609      	lsls	r1, r1, #24
20003222:	001f      	movs	r7, r3
20003224:	618c      	str	r4, [r1, #24]
20003226:	3f01      	subs	r7, #1
20003228:	d1fd      	bne.n	20003226 <SWD_Transfer+0x1ca>
2000322a:	614c      	str	r4, [r1, #20]
2000322c:	001c      	movs	r4, r3
2000322e:	3c01      	subs	r4, #1
20003230:	d1fd      	bne.n	2000322e <SWD_Transfer+0x1d2>
20003232:	1812      	adds	r2, r2, r0
20003234:	2a00      	cmp	r2, #0
20003236:	d100      	bne.n	2000323a <SWD_Transfer+0x1de>
20003238:	e0a0      	b.n	2000337c <SWD_Transfer+0x320>
2000323a:	2202      	movs	r2, #2
2000323c:	628a      	str	r2, [r1, #40]	; 0x28
2000323e:	24d0      	movs	r4, #208	; 0xd0
20003240:	2201      	movs	r2, #1
20003242:	0624      	lsls	r4, r4, #24
20003244:	0019      	movs	r1, r3
20003246:	61a2      	str	r2, [r4, #24]
20003248:	3901      	subs	r1, #1
2000324a:	d1fd      	bne.n	20003248 <SWD_Transfer+0x1ec>
2000324c:	0019      	movs	r1, r3
2000324e:	6162      	str	r2, [r4, #20]
20003250:	3901      	subs	r1, #1
20003252:	d1fd      	bne.n	20003250 <SWD_Transfer+0x1f4>
20003254:	2102      	movs	r1, #2
20003256:	0018      	movs	r0, r3
20003258:	6261      	str	r1, [r4, #36]	; 0x24
2000325a:	61a2      	str	r2, [r4, #24]
2000325c:	3801      	subs	r0, #1
2000325e:	d1fd      	bne.n	2000325c <SWD_Transfer+0x200>
20003260:	0018      	movs	r0, r3
20003262:	6162      	str	r2, [r4, #20]
20003264:	3801      	subs	r0, #1
20003266:	d1fd      	bne.n	20003264 <SWD_Transfer+0x208>
20003268:	62a1      	str	r1, [r4, #40]	; 0x28
2000326a:	0018      	movs	r0, r3
2000326c:	61a2      	str	r2, [r4, #24]
2000326e:	3801      	subs	r0, #1
20003270:	d1fd      	bne.n	2000326e <SWD_Transfer+0x212>
20003272:	6162      	str	r2, [r4, #20]
20003274:	3b01      	subs	r3, #1
20003276:	d1fd      	bne.n	20003274 <SWD_Transfer+0x218>
20003278:	2200      	movs	r2, #0
2000327a:	62a1      	str	r1, [r4, #40]	; 0x28
2000327c:	2001      	movs	r0, #1
2000327e:	2100      	movs	r1, #0
20003280:	f001 fc20 	bl	20004ac4 <gpio_set_pulls>
20003284:	4b42      	ldr	r3, [pc, #264]	; (20003390 <SWD_Transfer+0x334>)
20003286:	7e1f      	ldrb	r7, [r3, #24]
20003288:	685b      	ldr	r3, [r3, #4]
2000328a:	2f00      	cmp	r7, #0
2000328c:	d00c      	beq.n	200032a8 <SWD_Transfer+0x24c>
2000328e:	003a      	movs	r2, r7
20003290:	2001      	movs	r0, #1
20003292:	0019      	movs	r1, r3
20003294:	61a0      	str	r0, [r4, #24]
20003296:	3901      	subs	r1, #1
20003298:	d1fd      	bne.n	20003296 <SWD_Transfer+0x23a>
2000329a:	0019      	movs	r1, r3
2000329c:	6160      	str	r0, [r4, #20]
2000329e:	3901      	subs	r1, #1
200032a0:	d1fd      	bne.n	2000329e <SWD_Transfer+0x242>
200032a2:	3a01      	subs	r2, #1
200032a4:	2a00      	cmp	r2, #0
200032a6:	d1f4      	bne.n	20003292 <SWD_Transfer+0x236>
200032a8:	24d0      	movs	r4, #208	; 0xd0
200032aa:	2201      	movs	r2, #1
200032ac:	0624      	lsls	r4, r4, #24
200032ae:	0019      	movs	r1, r3
200032b0:	61a2      	str	r2, [r4, #24]
200032b2:	3901      	subs	r1, #1
200032b4:	d1fd      	bne.n	200032b2 <SWD_Transfer+0x256>
200032b6:	6860      	ldr	r0, [r4, #4]
200032b8:	0019      	movs	r1, r3
200032ba:	6162      	str	r2, [r4, #20]
200032bc:	3901      	subs	r1, #1
200032be:	d1fd      	bne.n	200032bc <SWD_Transfer+0x260>
200032c0:	0019      	movs	r1, r3
200032c2:	61a2      	str	r2, [r4, #24]
200032c4:	3901      	subs	r1, #1
200032c6:	d1fd      	bne.n	200032c4 <SWD_Transfer+0x268>
200032c8:	6861      	ldr	r1, [r4, #4]
200032ca:	6162      	str	r2, [r4, #20]
200032cc:	4688      	mov	r8, r1
200032ce:	0019      	movs	r1, r3
200032d0:	3901      	subs	r1, #1
200032d2:	d1fd      	bne.n	200032d0 <SWD_Transfer+0x274>
200032d4:	0019      	movs	r1, r3
200032d6:	61a2      	str	r2, [r4, #24]
200032d8:	3901      	subs	r1, #1
200032da:	d1fd      	bne.n	200032d8 <SWD_Transfer+0x27c>
200032dc:	6861      	ldr	r1, [r4, #4]
200032de:	001e      	movs	r6, r3
200032e0:	468c      	mov	ip, r1
200032e2:	6162      	str	r2, [r4, #20]
200032e4:	3e01      	subs	r6, #1
200032e6:	d1fd      	bne.n	200032e4 <SWD_Transfer+0x288>
200032e8:	2602      	movs	r6, #2
200032ea:	46b1      	mov	r9, r6
200032ec:	4646      	mov	r6, r8
200032ee:	4649      	mov	r1, r9
200032f0:	400e      	ands	r6, r1
200032f2:	4661      	mov	r1, ip
200032f4:	46b0      	mov	r8, r6
200032f6:	2604      	movs	r6, #4
200032f8:	0049      	lsls	r1, r1, #1
200032fa:	4031      	ands	r1, r6
200032fc:	4646      	mov	r6, r8
200032fe:	0840      	lsrs	r0, r0, #1
20003300:	4331      	orrs	r1, r6
20003302:	4002      	ands	r2, r0
20003304:	4311      	orrs	r1, r2
20003306:	4688      	mov	r8, r1
20003308:	2901      	cmp	r1, #1
2000330a:	d100      	bne.n	2000330e <SWD_Transfer+0x2b2>
2000330c:	e0a7      	b.n	2000345e <SWD_Transfer+0x402>
2000330e:	464a      	mov	r2, r9
20003310:	3902      	subs	r1, #2
20003312:	4391      	bics	r1, r2
20003314:	003a      	movs	r2, r7
20003316:	2001      	movs	r0, #1
20003318:	3221      	adds	r2, #33	; 0x21
2000331a:	2900      	cmp	r1, #0
2000331c:	d03a      	beq.n	20003394 <SWD_Transfer+0x338>
2000331e:	0019      	movs	r1, r3
20003320:	61a0      	str	r0, [r4, #24]
20003322:	3901      	subs	r1, #1
20003324:	d1fd      	bne.n	20003322 <SWD_Transfer+0x2c6>
20003326:	0019      	movs	r1, r3
20003328:	6160      	str	r0, [r4, #20]
2000332a:	3901      	subs	r1, #1
2000332c:	d1fd      	bne.n	2000332a <SWD_Transfer+0x2ce>
2000332e:	3a01      	subs	r2, #1
20003330:	2a00      	cmp	r2, #0
20003332:	d1f4      	bne.n	2000331e <SWD_Transfer+0x2c2>
20003334:	e71a      	b.n	2000316c <SWD_Transfer+0x110>
20003336:	6291      	str	r1, [r2, #40]	; 0x28
20003338:	e73d      	b.n	200031b6 <SWD_Transfer+0x15a>
2000333a:	6298      	str	r0, [r3, #40]	; 0x28
2000333c:	086c      	lsrs	r4, r5, #1
2000333e:	619a      	str	r2, [r3, #24]
20003340:	615a      	str	r2, [r3, #20]
20003342:	d100      	bne.n	20003346 <SWD_Transfer+0x2ea>
20003344:	e6a4      	b.n	20003090 <SWD_Transfer+0x34>
20003346:	6298      	str	r0, [r3, #40]	; 0x28
20003348:	192c      	adds	r4, r5, r4
2000334a:	619a      	str	r2, [r3, #24]
2000334c:	08a9      	lsrs	r1, r5, #2
2000334e:	615a      	str	r2, [r3, #20]
20003350:	d100      	bne.n	20003354 <SWD_Transfer+0x2f8>
20003352:	e6a6      	b.n	200030a2 <SWD_Transfer+0x46>
20003354:	6298      	str	r0, [r3, #40]	; 0x28
20003356:	1861      	adds	r1, r4, r1
20003358:	619a      	str	r2, [r3, #24]
2000335a:	08ec      	lsrs	r4, r5, #3
2000335c:	615a      	str	r2, [r3, #20]
2000335e:	d100      	bne.n	20003362 <SWD_Transfer+0x306>
20003360:	e6a8      	b.n	200030b4 <SWD_Transfer+0x58>
20003362:	6298      	str	r0, [r3, #40]	; 0x28
20003364:	23d0      	movs	r3, #208	; 0xd0
20003366:	2201      	movs	r2, #1
20003368:	061b      	lsls	r3, r3, #24
2000336a:	1909      	adds	r1, r1, r4
2000336c:	619a      	str	r2, [r3, #24]
2000336e:	615a      	str	r2, [r3, #20]
20003370:	2900      	cmp	r1, #0
20003372:	d000      	beq.n	20003376 <SWD_Transfer+0x31a>
20003374:	e6ab      	b.n	200030ce <SWD_Transfer+0x72>
20003376:	2202      	movs	r2, #2
20003378:	625a      	str	r2, [r3, #36]	; 0x24
2000337a:	e6aa      	b.n	200030d2 <SWD_Transfer+0x76>
2000337c:	2202      	movs	r2, #2
2000337e:	624a      	str	r2, [r1, #36]	; 0x24
20003380:	e75d      	b.n	2000323e <SWD_Transfer+0x1e2>
20003382:	624c      	str	r4, [r1, #36]	; 0x24
20003384:	e74a      	b.n	2000321c <SWD_Transfer+0x1c0>
20003386:	2002      	movs	r0, #2
20003388:	6248      	str	r0, [r1, #36]	; 0x24
2000338a:	e736      	b.n	200031fa <SWD_Transfer+0x19e>
2000338c:	6248      	str	r0, [r1, #36]	; 0x24
2000338e:	e722      	b.n	200031d6 <SWD_Transfer+0x17a>
20003390:	2000b95c 	.word	0x2000b95c
20003394:	4aa3      	ldr	r2, [pc, #652]	; (20003624 <SWD_Transfer+0x5c8>)
20003396:	7e52      	ldrb	r2, [r2, #25]
20003398:	2a00      	cmp	r2, #0
2000339a:	d003      	beq.n	200033a4 <SWD_Transfer+0x348>
2000339c:	464a      	mov	r2, r9
2000339e:	422a      	tst	r2, r5
200033a0:	d000      	beq.n	200033a4 <SWD_Transfer+0x348>
200033a2:	e1b5      	b.n	20003710 <SWD_Transfer+0x6b4>
200033a4:	2f00      	cmp	r7, #0
200033a6:	d00d      	beq.n	200033c4 <SWD_Transfer+0x368>
200033a8:	20d0      	movs	r0, #208	; 0xd0
200033aa:	2101      	movs	r1, #1
200033ac:	0600      	lsls	r0, r0, #24
200033ae:	001a      	movs	r2, r3
200033b0:	6181      	str	r1, [r0, #24]
200033b2:	3a01      	subs	r2, #1
200033b4:	d1fd      	bne.n	200033b2 <SWD_Transfer+0x356>
200033b6:	001a      	movs	r2, r3
200033b8:	6141      	str	r1, [r0, #20]
200033ba:	3a01      	subs	r2, #1
200033bc:	d1fd      	bne.n	200033ba <SWD_Transfer+0x35e>
200033be:	3f01      	subs	r7, #1
200033c0:	2f00      	cmp	r7, #0
200033c2:	d1f4      	bne.n	200033ae <SWD_Transfer+0x352>
200033c4:	2200      	movs	r2, #0
200033c6:	2101      	movs	r1, #1
200033c8:	2001      	movs	r0, #1
200033ca:	f001 fb7b 	bl	20004ac4 <gpio_set_pulls>
200033ce:	4b95      	ldr	r3, [pc, #596]	; (20003624 <SWD_Transfer+0x5c8>)
200033d0:	7e5b      	ldrb	r3, [r3, #25]
200033d2:	2b00      	cmp	r3, #0
200033d4:	d014      	beq.n	20003400 <SWD_Transfer+0x3a4>
200033d6:	2302      	movs	r3, #2
200033d8:	422b      	tst	r3, r5
200033da:	d111      	bne.n	20003400 <SWD_Transfer+0x3a4>
200033dc:	21d0      	movs	r1, #208	; 0xd0
200033de:	0609      	lsls	r1, r1, #24
200033e0:	624b      	str	r3, [r1, #36]	; 0x24
200033e2:	4b90      	ldr	r3, [pc, #576]	; (20003624 <SWD_Transfer+0x5c8>)
200033e4:	2001      	movs	r0, #1
200033e6:	685c      	ldr	r4, [r3, #4]
200033e8:	2321      	movs	r3, #33	; 0x21
200033ea:	0022      	movs	r2, r4
200033ec:	6188      	str	r0, [r1, #24]
200033ee:	3a01      	subs	r2, #1
200033f0:	d1fd      	bne.n	200033ee <SWD_Transfer+0x392>
200033f2:	0022      	movs	r2, r4
200033f4:	6148      	str	r0, [r1, #20]
200033f6:	3a01      	subs	r2, #1
200033f8:	d1fd      	bne.n	200033f6 <SWD_Transfer+0x39a>
200033fa:	3b01      	subs	r3, #1
200033fc:	2b00      	cmp	r3, #0
200033fe:	d1f4      	bne.n	200033ea <SWD_Transfer+0x38e>
20003400:	23d0      	movs	r3, #208	; 0xd0
20003402:	2202      	movs	r2, #2
20003404:	061b      	lsls	r3, r3, #24
20003406:	629a      	str	r2, [r3, #40]	; 0x28
20003408:	4643      	mov	r3, r8
2000340a:	b2dc      	uxtb	r4, r3
2000340c:	e6b6      	b.n	2000317c <SWD_Transfer+0x120>
2000340e:	4b85      	ldr	r3, [pc, #532]	; (20003624 <SWD_Transfer+0x5c8>)
20003410:	7e5b      	ldrb	r3, [r3, #25]
20003412:	2b00      	cmp	r3, #0
20003414:	d002      	beq.n	2000341c <SWD_Transfer+0x3c0>
20003416:	4229      	tst	r1, r5
20003418:	d000      	beq.n	2000341c <SWD_Transfer+0x3c0>
2000341a:	e171      	b.n	20003700 <SWD_Transfer+0x6a4>
2000341c:	2800      	cmp	r0, #0
2000341e:	d007      	beq.n	20003430 <SWD_Transfer+0x3d4>
20003420:	22d0      	movs	r2, #208	; 0xd0
20003422:	2301      	movs	r3, #1
20003424:	0612      	lsls	r2, r2, #24
20003426:	3801      	subs	r0, #1
20003428:	6193      	str	r3, [r2, #24]
2000342a:	6153      	str	r3, [r2, #20]
2000342c:	2800      	cmp	r0, #0
2000342e:	d1fa      	bne.n	20003426 <SWD_Transfer+0x3ca>
20003430:	2200      	movs	r2, #0
20003432:	2101      	movs	r1, #1
20003434:	2001      	movs	r0, #1
20003436:	f001 fb45 	bl	20004ac4 <gpio_set_pulls>
2000343a:	4b7a      	ldr	r3, [pc, #488]	; (20003624 <SWD_Transfer+0x5c8>)
2000343c:	7e5b      	ldrb	r3, [r3, #25]
2000343e:	2b00      	cmp	r3, #0
20003440:	d0de      	beq.n	20003400 <SWD_Transfer+0x3a4>
20003442:	2302      	movs	r3, #2
20003444:	422b      	tst	r3, r5
20003446:	d1db      	bne.n	20003400 <SWD_Transfer+0x3a4>
20003448:	22d0      	movs	r2, #208	; 0xd0
2000344a:	2101      	movs	r1, #1
2000344c:	0612      	lsls	r2, r2, #24
2000344e:	6253      	str	r3, [r2, #36]	; 0x24
20003450:	331f      	adds	r3, #31
20003452:	3b01      	subs	r3, #1
20003454:	6191      	str	r1, [r2, #24]
20003456:	6151      	str	r1, [r2, #20]
20003458:	2b00      	cmp	r3, #0
2000345a:	d1fa      	bne.n	20003452 <SWD_Transfer+0x3f6>
2000345c:	e7d0      	b.n	20003400 <SWD_Transfer+0x3a4>
2000345e:	464a      	mov	r2, r9
20003460:	402a      	ands	r2, r5
20003462:	4690      	mov	r8, r2
20003464:	464a      	mov	r2, r9
20003466:	422a      	tst	r2, r5
20003468:	d000      	beq.n	2000346c <SWD_Transfer+0x410>
2000346a:	e0df      	b.n	2000362c <SWD_Transfer+0x5d0>
2000346c:	2101      	movs	r1, #1
2000346e:	2f00      	cmp	r7, #0
20003470:	d00a      	beq.n	20003488 <SWD_Transfer+0x42c>
20003472:	001a      	movs	r2, r3
20003474:	61a1      	str	r1, [r4, #24]
20003476:	3a01      	subs	r2, #1
20003478:	d1fd      	bne.n	20003476 <SWD_Transfer+0x41a>
2000347a:	001a      	movs	r2, r3
2000347c:	6161      	str	r1, [r4, #20]
2000347e:	3a01      	subs	r2, #1
20003480:	d1fd      	bne.n	2000347e <SWD_Transfer+0x422>
20003482:	3f01      	subs	r7, #1
20003484:	2f00      	cmp	r7, #0
20003486:	d1f4      	bne.n	20003472 <SWD_Transfer+0x416>
20003488:	2200      	movs	r2, #0
2000348a:	2101      	movs	r1, #1
2000348c:	2001      	movs	r0, #1
2000348e:	f001 fb19 	bl	20004ac4 <gpio_set_pulls>
20003492:	465b      	mov	r3, fp
20003494:	21d0      	movs	r1, #208	; 0xd0
20003496:	2002      	movs	r0, #2
20003498:	681a      	ldr	r2, [r3, #0]
2000349a:	4b62      	ldr	r3, [pc, #392]	; (20003624 <SWD_Transfer+0x5c8>)
2000349c:	2420      	movs	r4, #32
2000349e:	4684      	mov	ip, r0
200034a0:	2701      	movs	r7, #1
200034a2:	685b      	ldr	r3, [r3, #4]
200034a4:	0609      	lsls	r1, r1, #24
200034a6:	e00e      	b.n	200034c6 <SWD_Transfer+0x46a>
200034a8:	4660      	mov	r0, ip
200034aa:	6288      	str	r0, [r1, #40]	; 0x28
200034ac:	0018      	movs	r0, r3
200034ae:	618f      	str	r7, [r1, #24]
200034b0:	3801      	subs	r0, #1
200034b2:	d1fd      	bne.n	200034b0 <SWD_Transfer+0x454>
200034b4:	0018      	movs	r0, r3
200034b6:	614f      	str	r7, [r1, #20]
200034b8:	3801      	subs	r0, #1
200034ba:	d1fd      	bne.n	200034b8 <SWD_Transfer+0x45c>
200034bc:	3c01      	subs	r4, #1
200034be:	4490      	add	r8, r2
200034c0:	0852      	lsrs	r2, r2, #1
200034c2:	2c00      	cmp	r4, #0
200034c4:	d011      	beq.n	200034ea <SWD_Transfer+0x48e>
200034c6:	2a00      	cmp	r2, #0
200034c8:	d1ee      	bne.n	200034a8 <SWD_Transfer+0x44c>
200034ca:	22d0      	movs	r2, #208	; 0xd0
200034cc:	2702      	movs	r7, #2
200034ce:	2001      	movs	r0, #1
200034d0:	0612      	lsls	r2, r2, #24
200034d2:	6257      	str	r7, [r2, #36]	; 0x24
200034d4:	0019      	movs	r1, r3
200034d6:	6190      	str	r0, [r2, #24]
200034d8:	3901      	subs	r1, #1
200034da:	d1fd      	bne.n	200034d8 <SWD_Transfer+0x47c>
200034dc:	0019      	movs	r1, r3
200034de:	6150      	str	r0, [r2, #20]
200034e0:	3901      	subs	r1, #1
200034e2:	d1fd      	bne.n	200034e0 <SWD_Transfer+0x484>
200034e4:	3c01      	subs	r4, #1
200034e6:	2c00      	cmp	r4, #0
200034e8:	d1f3      	bne.n	200034d2 <SWD_Transfer+0x476>
200034ea:	4642      	mov	r2, r8
200034ec:	2a00      	cmp	r2, #0
200034ee:	d000      	beq.n	200034f2 <SWD_Transfer+0x496>
200034f0:	e11e      	b.n	20003730 <SWD_Transfer+0x6d4>
200034f2:	22d0      	movs	r2, #208	; 0xd0
200034f4:	2102      	movs	r1, #2
200034f6:	0612      	lsls	r2, r2, #24
200034f8:	6251      	str	r1, [r2, #36]	; 0x24
200034fa:	22d0      	movs	r2, #208	; 0xd0
200034fc:	2101      	movs	r1, #1
200034fe:	0612      	lsls	r2, r2, #24
20003500:	0018      	movs	r0, r3
20003502:	6191      	str	r1, [r2, #24]
20003504:	3801      	subs	r0, #1
20003506:	d1fd      	bne.n	20003504 <SWD_Transfer+0x4a8>
20003508:	6151      	str	r1, [r2, #20]
2000350a:	3b01      	subs	r3, #1
2000350c:	d1fd      	bne.n	2000350a <SWD_Transfer+0x4ae>
2000350e:	2401      	movs	r4, #1
20003510:	e0d8      	b.n	200036c4 <SWD_Transfer+0x668>
20003512:	000f      	movs	r7, r1
20003514:	402f      	ands	r7, r5
20003516:	4229      	tst	r1, r5
20003518:	d136      	bne.n	20003588 <SWD_Transfer+0x52c>
2000351a:	2301      	movs	r3, #1
2000351c:	2800      	cmp	r0, #0
2000351e:	d004      	beq.n	2000352a <SWD_Transfer+0x4ce>
20003520:	3801      	subs	r0, #1
20003522:	61a3      	str	r3, [r4, #24]
20003524:	6163      	str	r3, [r4, #20]
20003526:	2800      	cmp	r0, #0
20003528:	d1fa      	bne.n	20003520 <SWD_Transfer+0x4c4>
2000352a:	2200      	movs	r2, #0
2000352c:	2101      	movs	r1, #1
2000352e:	2001      	movs	r0, #1
20003530:	f001 fac8 	bl	20004ac4 <gpio_set_pulls>
20003534:	465b      	mov	r3, fp
20003536:	21d0      	movs	r1, #208	; 0xd0
20003538:	681a      	ldr	r2, [r3, #0]
2000353a:	2402      	movs	r4, #2
2000353c:	2320      	movs	r3, #32
2000353e:	2001      	movs	r0, #1
20003540:	0609      	lsls	r1, r1, #24
20003542:	e007      	b.n	20003554 <SWD_Transfer+0x4f8>
20003544:	3b01      	subs	r3, #1
20003546:	628c      	str	r4, [r1, #40]	; 0x28
20003548:	18bf      	adds	r7, r7, r2
2000354a:	6188      	str	r0, [r1, #24]
2000354c:	0852      	lsrs	r2, r2, #1
2000354e:	6148      	str	r0, [r1, #20]
20003550:	2b00      	cmp	r3, #0
20003552:	d00b      	beq.n	2000356c <SWD_Transfer+0x510>
20003554:	2a00      	cmp	r2, #0
20003556:	d1f5      	bne.n	20003544 <SWD_Transfer+0x4e8>
20003558:	22d0      	movs	r2, #208	; 0xd0
2000355a:	2002      	movs	r0, #2
2000355c:	2101      	movs	r1, #1
2000355e:	0612      	lsls	r2, r2, #24
20003560:	3b01      	subs	r3, #1
20003562:	6250      	str	r0, [r2, #36]	; 0x24
20003564:	6191      	str	r1, [r2, #24]
20003566:	6151      	str	r1, [r2, #20]
20003568:	2b00      	cmp	r3, #0
2000356a:	d1f9      	bne.n	20003560 <SWD_Transfer+0x504>
2000356c:	23d0      	movs	r3, #208	; 0xd0
2000356e:	2202      	movs	r2, #2
20003570:	061b      	lsls	r3, r3, #24
20003572:	2f00      	cmp	r7, #0
20003574:	d000      	beq.n	20003578 <SWD_Transfer+0x51c>
20003576:	e0d9      	b.n	2000372c <SWD_Transfer+0x6d0>
20003578:	625a      	str	r2, [r3, #36]	; 0x24
2000357a:	23d0      	movs	r3, #208	; 0xd0
2000357c:	2201      	movs	r2, #1
2000357e:	061b      	lsls	r3, r3, #24
20003580:	619a      	str	r2, [r3, #24]
20003582:	2401      	movs	r4, #1
20003584:	615a      	str	r2, [r3, #20]
20003586:	e033      	b.n	200035f0 <SWD_Transfer+0x594>
20003588:	2200      	movs	r2, #0
2000358a:	4690      	mov	r8, r2
2000358c:	3201      	adds	r2, #1
2000358e:	2320      	movs	r3, #32
20003590:	2700      	movs	r7, #0
20003592:	2101      	movs	r1, #1
20003594:	4691      	mov	r9, r2
20003596:	464a      	mov	r2, r9
20003598:	464e      	mov	r6, r9
2000359a:	61a2      	str	r2, [r4, #24]
2000359c:	6862      	ldr	r2, [r4, #4]
2000359e:	087f      	lsrs	r7, r7, #1
200035a0:	0852      	lsrs	r2, r2, #1
200035a2:	400a      	ands	r2, r1
200035a4:	4490      	add	r8, r2
200035a6:	3b01      	subs	r3, #1
200035a8:	07d2      	lsls	r2, r2, #31
200035aa:	6166      	str	r6, [r4, #20]
200035ac:	4317      	orrs	r7, r2
200035ae:	2b00      	cmp	r3, #0
200035b0:	d1f1      	bne.n	20003596 <SWD_Transfer+0x53a>
200035b2:	4643      	mov	r3, r8
200035b4:	61a1      	str	r1, [r4, #24]
200035b6:	6862      	ldr	r2, [r4, #4]
200035b8:	6161      	str	r1, [r4, #20]
200035ba:	0854      	lsrs	r4, r2, #1
200035bc:	400c      	ands	r4, r1
200035be:	405c      	eors	r4, r3
200035c0:	2306      	movs	r3, #6
200035c2:	400c      	ands	r4, r1
200035c4:	3c01      	subs	r4, #1
200035c6:	439c      	bics	r4, r3
200035c8:	465b      	mov	r3, fp
200035ca:	3408      	adds	r4, #8
200035cc:	2b00      	cmp	r3, #0
200035ce:	d000      	beq.n	200035d2 <SWD_Transfer+0x576>
200035d0:	601f      	str	r7, [r3, #0]
200035d2:	2800      	cmp	r0, #0
200035d4:	d007      	beq.n	200035e6 <SWD_Transfer+0x58a>
200035d6:	22d0      	movs	r2, #208	; 0xd0
200035d8:	2301      	movs	r3, #1
200035da:	0612      	lsls	r2, r2, #24
200035dc:	3801      	subs	r0, #1
200035de:	6193      	str	r3, [r2, #24]
200035e0:	6153      	str	r3, [r2, #20]
200035e2:	2800      	cmp	r0, #0
200035e4:	d1fa      	bne.n	200035dc <SWD_Transfer+0x580>
200035e6:	2200      	movs	r2, #0
200035e8:	2101      	movs	r1, #1
200035ea:	2001      	movs	r0, #1
200035ec:	f001 fa6a 	bl	20004ac4 <gpio_set_pulls>
200035f0:	062b      	lsls	r3, r5, #24
200035f2:	d503      	bpl.n	200035fc <SWD_Transfer+0x5a0>
200035f4:	4b0c      	ldr	r3, [pc, #48]	; (20003628 <SWD_Transfer+0x5cc>)
200035f6:	4a0b      	ldr	r2, [pc, #44]	; (20003624 <SWD_Transfer+0x5c8>)
200035f8:	6a9b      	ldr	r3, [r3, #40]	; 0x28
200035fa:	6093      	str	r3, [r2, #8]
200035fc:	4b09      	ldr	r3, [pc, #36]	; (20003624 <SWD_Transfer+0x5c8>)
200035fe:	7b1b      	ldrb	r3, [r3, #12]
20003600:	2b00      	cmp	r3, #0
20003602:	d009      	beq.n	20003618 <SWD_Transfer+0x5bc>
20003604:	22d0      	movs	r2, #208	; 0xd0
20003606:	2102      	movs	r1, #2
20003608:	0612      	lsls	r2, r2, #24
2000360a:	6251      	str	r1, [r2, #36]	; 0x24
2000360c:	3901      	subs	r1, #1
2000360e:	3b01      	subs	r3, #1
20003610:	6191      	str	r1, [r2, #24]
20003612:	6151      	str	r1, [r2, #20]
20003614:	2b00      	cmp	r3, #0
20003616:	d1fa      	bne.n	2000360e <SWD_Transfer+0x5b2>
20003618:	23d0      	movs	r3, #208	; 0xd0
2000361a:	2202      	movs	r2, #2
2000361c:	061b      	lsls	r3, r3, #24
2000361e:	629a      	str	r2, [r3, #40]	; 0x28
20003620:	e5ac      	b.n	2000317c <SWD_Transfer+0x120>
20003622:	46c0      	nop			; (mov r8, r8)
20003624:	2000b95c 	.word	0x2000b95c
20003628:	40054000 	.word	0x40054000
2000362c:	2200      	movs	r2, #0
2000362e:	4692      	mov	sl, r2
20003630:	4690      	mov	r8, r2
20003632:	3201      	adds	r2, #1
20003634:	2020      	movs	r0, #32
20003636:	4694      	mov	ip, r2
20003638:	4691      	mov	r9, r2
2000363a:	464a      	mov	r2, r9
2000363c:	0019      	movs	r1, r3
2000363e:	61a2      	str	r2, [r4, #24]
20003640:	3901      	subs	r1, #1
20003642:	d1fd      	bne.n	20003640 <SWD_Transfer+0x5e4>
20003644:	4662      	mov	r2, ip
20003646:	6861      	ldr	r1, [r4, #4]
20003648:	0849      	lsrs	r1, r1, #1
2000364a:	4011      	ands	r1, r2
2000364c:	464a      	mov	r2, r9
2000364e:	6162      	str	r2, [r4, #20]
20003650:	001a      	movs	r2, r3
20003652:	3a01      	subs	r2, #1
20003654:	d1fd      	bne.n	20003652 <SWD_Transfer+0x5f6>
20003656:	4652      	mov	r2, sl
20003658:	4488      	add	r8, r1
2000365a:	0852      	lsrs	r2, r2, #1
2000365c:	07c9      	lsls	r1, r1, #31
2000365e:	430a      	orrs	r2, r1
20003660:	3801      	subs	r0, #1
20003662:	4692      	mov	sl, r2
20003664:	2800      	cmp	r0, #0
20003666:	d1e8      	bne.n	2000363a <SWD_Transfer+0x5de>
20003668:	4662      	mov	r2, ip
2000366a:	0019      	movs	r1, r3
2000366c:	61a2      	str	r2, [r4, #24]
2000366e:	3901      	subs	r1, #1
20003670:	d1fd      	bne.n	2000366e <SWD_Transfer+0x612>
20003672:	6861      	ldr	r1, [r4, #4]
20003674:	6162      	str	r2, [r4, #20]
20003676:	3b01      	subs	r3, #1
20003678:	d1fd      	bne.n	20003676 <SWD_Transfer+0x61a>
2000367a:	4643      	mov	r3, r8
2000367c:	084c      	lsrs	r4, r1, #1
2000367e:	4014      	ands	r4, r2
20003680:	405c      	eors	r4, r3
20003682:	2306      	movs	r3, #6
20003684:	4014      	ands	r4, r2
20003686:	3c01      	subs	r4, #1
20003688:	439c      	bics	r4, r3
2000368a:	465b      	mov	r3, fp
2000368c:	3408      	adds	r4, #8
2000368e:	2b00      	cmp	r3, #0
20003690:	d001      	beq.n	20003696 <SWD_Transfer+0x63a>
20003692:	4652      	mov	r2, sl
20003694:	601a      	str	r2, [r3, #0]
20003696:	2f00      	cmp	r7, #0
20003698:	d00f      	beq.n	200036ba <SWD_Transfer+0x65e>
2000369a:	21d0      	movs	r1, #208	; 0xd0
2000369c:	2201      	movs	r2, #1
2000369e:	4b27      	ldr	r3, [pc, #156]	; (2000373c <SWD_Transfer+0x6e0>)
200036a0:	0609      	lsls	r1, r1, #24
200036a2:	6858      	ldr	r0, [r3, #4]
200036a4:	0003      	movs	r3, r0
200036a6:	618a      	str	r2, [r1, #24]
200036a8:	3b01      	subs	r3, #1
200036aa:	d1fd      	bne.n	200036a8 <SWD_Transfer+0x64c>
200036ac:	0003      	movs	r3, r0
200036ae:	614a      	str	r2, [r1, #20]
200036b0:	3b01      	subs	r3, #1
200036b2:	d1fd      	bne.n	200036b0 <SWD_Transfer+0x654>
200036b4:	3f01      	subs	r7, #1
200036b6:	2f00      	cmp	r7, #0
200036b8:	d1f4      	bne.n	200036a4 <SWD_Transfer+0x648>
200036ba:	2200      	movs	r2, #0
200036bc:	2101      	movs	r1, #1
200036be:	2001      	movs	r0, #1
200036c0:	f001 fa00 	bl	20004ac4 <gpio_set_pulls>
200036c4:	062b      	lsls	r3, r5, #24
200036c6:	d503      	bpl.n	200036d0 <SWD_Transfer+0x674>
200036c8:	4b1d      	ldr	r3, [pc, #116]	; (20003740 <SWD_Transfer+0x6e4>)
200036ca:	4a1c      	ldr	r2, [pc, #112]	; (2000373c <SWD_Transfer+0x6e0>)
200036cc:	6a9b      	ldr	r3, [r3, #40]	; 0x28
200036ce:	6093      	str	r3, [r2, #8]
200036d0:	4b1a      	ldr	r3, [pc, #104]	; (2000373c <SWD_Transfer+0x6e0>)
200036d2:	7b1b      	ldrb	r3, [r3, #12]
200036d4:	2b00      	cmp	r3, #0
200036d6:	d100      	bne.n	200036da <SWD_Transfer+0x67e>
200036d8:	e79e      	b.n	20003618 <SWD_Transfer+0x5bc>
200036da:	21d0      	movs	r1, #208	; 0xd0
200036dc:	2202      	movs	r2, #2
200036de:	2001      	movs	r0, #1
200036e0:	0609      	lsls	r1, r1, #24
200036e2:	624a      	str	r2, [r1, #36]	; 0x24
200036e4:	4a15      	ldr	r2, [pc, #84]	; (2000373c <SWD_Transfer+0x6e0>)
200036e6:	6855      	ldr	r5, [r2, #4]
200036e8:	002a      	movs	r2, r5
200036ea:	6188      	str	r0, [r1, #24]
200036ec:	3a01      	subs	r2, #1
200036ee:	d1fd      	bne.n	200036ec <SWD_Transfer+0x690>
200036f0:	002a      	movs	r2, r5
200036f2:	6148      	str	r0, [r1, #20]
200036f4:	3a01      	subs	r2, #1
200036f6:	d1fd      	bne.n	200036f4 <SWD_Transfer+0x698>
200036f8:	3b01      	subs	r3, #1
200036fa:	2b00      	cmp	r3, #0
200036fc:	d1f4      	bne.n	200036e8 <SWD_Transfer+0x68c>
200036fe:	e78b      	b.n	20003618 <SWD_Transfer+0x5bc>
20003700:	2321      	movs	r3, #33	; 0x21
20003702:	2201      	movs	r2, #1
20003704:	3b01      	subs	r3, #1
20003706:	61a2      	str	r2, [r4, #24]
20003708:	6162      	str	r2, [r4, #20]
2000370a:	2b00      	cmp	r3, #0
2000370c:	d1fa      	bne.n	20003704 <SWD_Transfer+0x6a8>
2000370e:	e685      	b.n	2000341c <SWD_Transfer+0x3c0>
20003710:	2221      	movs	r2, #33	; 0x21
20003712:	2001      	movs	r0, #1
20003714:	0019      	movs	r1, r3
20003716:	61a0      	str	r0, [r4, #24]
20003718:	3901      	subs	r1, #1
2000371a:	d1fd      	bne.n	20003718 <SWD_Transfer+0x6bc>
2000371c:	0019      	movs	r1, r3
2000371e:	6160      	str	r0, [r4, #20]
20003720:	3901      	subs	r1, #1
20003722:	d1fd      	bne.n	20003720 <SWD_Transfer+0x6c4>
20003724:	3a01      	subs	r2, #1
20003726:	2a00      	cmp	r2, #0
20003728:	d1f4      	bne.n	20003714 <SWD_Transfer+0x6b8>
2000372a:	e63b      	b.n	200033a4 <SWD_Transfer+0x348>
2000372c:	629a      	str	r2, [r3, #40]	; 0x28
2000372e:	e724      	b.n	2000357a <SWD_Transfer+0x51e>
20003730:	22d0      	movs	r2, #208	; 0xd0
20003732:	2102      	movs	r1, #2
20003734:	0612      	lsls	r2, r2, #24
20003736:	6291      	str	r1, [r2, #40]	; 0x28
20003738:	e6df      	b.n	200034fa <SWD_Transfer+0x49e>
2000373a:	46c0      	nop			; (mov r8, r8)
2000373c:	2000b95c 	.word	0x2000b95c
20003740:	40054000 	.word	0x40054000

20003744 <lock_init>:
20003744:	4b02      	ldr	r3, [pc, #8]	; (20003750 <lock_init+0xc>)
20003746:	469c      	mov	ip, r3
20003748:	4461      	add	r1, ip
2000374a:	0089      	lsls	r1, r1, #2
2000374c:	6001      	str	r1, [r0, #0]
2000374e:	4770      	bx	lr
20003750:	34000040 	.word	0x34000040

20003754 <mutex_init>:
20003754:	b510      	push	{r4, lr}
20003756:	0004      	movs	r4, r0
20003758:	f000 fd0c 	bl	20004174 <next_striped_spin_lock_num>
2000375c:	0001      	movs	r1, r0
2000375e:	0020      	movs	r0, r4
20003760:	f7ff fff0 	bl	20003744 <lock_init>
20003764:	2301      	movs	r3, #1
20003766:	425b      	negs	r3, r3
20003768:	6063      	str	r3, [r4, #4]
2000376a:	f3bf 8f5f 	dmb	sy
2000376e:	bd10      	pop	{r4, pc}

20003770 <recursive_mutex_init>:
20003770:	b510      	push	{r4, lr}
20003772:	0004      	movs	r4, r0
20003774:	f000 fcfe 	bl	20004174 <next_striped_spin_lock_num>
20003778:	0001      	movs	r1, r0
2000377a:	0020      	movs	r0, r4
2000377c:	f7ff ffe2 	bl	20003744 <lock_init>
20003780:	2301      	movs	r3, #1
20003782:	425b      	negs	r3, r3
20003784:	6063      	str	r3, [r4, #4]
20003786:	2300      	movs	r3, #0
20003788:	7223      	strb	r3, [r4, #8]
2000378a:	f3bf 8f5f 	dmb	sy
2000378e:	bd10      	pop	{r4, pc}

20003790 <critical_section_init>:
20003790:	b510      	push	{r4, lr}
20003792:	0004      	movs	r4, r0
20003794:	2001      	movs	r0, #1
20003796:	f000 fcf9 	bl	2000418c <spin_lock_claim_unused>
2000379a:	4b04      	ldr	r3, [pc, #16]	; (200037ac <critical_section_init+0x1c>)
2000379c:	469c      	mov	ip, r3
2000379e:	4460      	add	r0, ip
200037a0:	0080      	lsls	r0, r0, #2
200037a2:	6020      	str	r0, [r4, #0]
200037a4:	f3bf 8f5f 	dmb	sy
200037a8:	bd10      	pop	{r4, pc}
200037aa:	46c0      	nop			; (mov r8, r8)
200037ac:	34000040 	.word	0x34000040

200037b0 <timer_pool_entry_comparator>:
200037b0:	6883      	ldr	r3, [r0, #8]
200037b2:	480b      	ldr	r0, [pc, #44]	; (200037e0 <timer_pool_entry_comparator+0x30>)
200037b4:	b510      	push	{r4, lr}
200037b6:	4684      	mov	ip, r0
200037b8:	4461      	add	r1, ip
200037ba:	4462      	add	r2, ip
200037bc:	0109      	lsls	r1, r1, #4
200037be:	0112      	lsls	r2, r2, #4
200037c0:	189a      	adds	r2, r3, r2
200037c2:	1859      	adds	r1, r3, r1
200037c4:	6854      	ldr	r4, [r2, #4]
200037c6:	684b      	ldr	r3, [r1, #4]
200037c8:	2001      	movs	r0, #1
200037ca:	429c      	cmp	r4, r3
200037cc:	d801      	bhi.n	200037d2 <timer_pool_entry_comparator+0x22>
200037ce:	d002      	beq.n	200037d6 <timer_pool_entry_comparator+0x26>
200037d0:	2000      	movs	r0, #0
200037d2:	b2c0      	uxtb	r0, r0
200037d4:	bd10      	pop	{r4, pc}
200037d6:	6812      	ldr	r2, [r2, #0]
200037d8:	680b      	ldr	r3, [r1, #0]
200037da:	429a      	cmp	r2, r3
200037dc:	d8f9      	bhi.n	200037d2 <timer_pool_entry_comparator+0x22>
200037de:	e7f7      	b.n	200037d0 <timer_pool_entry_comparator+0x20>
200037e0:	0fffffff 	.word	0x0fffffff

200037e4 <sleep_until_callback>:
200037e4:	4807      	ldr	r0, [pc, #28]	; (20003804 <sleep_until_callback+0x20>)
200037e6:	b510      	push	{r4, lr}
200037e8:	6802      	ldr	r2, [r0, #0]
200037ea:	f3ef 8110 	mrs	r1, PRIMASK
200037ee:	b672      	cpsid	i
200037f0:	6813      	ldr	r3, [r2, #0]
200037f2:	2b00      	cmp	r3, #0
200037f4:	d0fc      	beq.n	200037f0 <sleep_until_callback+0xc>
200037f6:	f3bf 8f5f 	dmb	sy
200037fa:	f004 fd67 	bl	200082cc <vPortLockInternalSpinUnlockWithNotify>
200037fe:	2000      	movs	r0, #0
20003800:	2100      	movs	r1, #0
20003802:	bd10      	pop	{r4, pc}
20003804:	200117a8 	.word	0x200117a8

20003808 <add_alarm_under_lock.isra.0>:
20003808:	b5f8      	push	{r3, r4, r5, r6, r7, lr}
2000380a:	4657      	mov	r7, sl
2000380c:	464e      	mov	r6, r9
2000380e:	4645      	mov	r5, r8
20003810:	46de      	mov	lr, fp
20003812:	b5e0      	push	{r5, r6, r7, lr}
20003814:	4699      	mov	r9, r3
20003816:	ab0c      	add	r3, sp, #48	; 0x30
20003818:	781c      	ldrb	r4, [r3, #0]
2000381a:	ab0d      	add	r3, sp, #52	; 0x34
2000381c:	781b      	ldrb	r3, [r3, #0]
2000381e:	0006      	movs	r6, r0
20003820:	4690      	mov	r8, r2
20003822:	469a      	mov	sl, r3
20003824:	6807      	ldr	r7, [r0, #0]
20003826:	2c00      	cmp	r4, #0
20003828:	d111      	bne.n	2000384e <add_alarm_under_lock.isra.0+0x46>
2000382a:	7bbc      	ldrb	r4, [r7, #14]
2000382c:	2c00      	cmp	r4, #0
2000382e:	d042      	beq.n	200038b6 <add_alarm_under_lock.isra.0+0xae>
20003830:	0065      	lsls	r5, r4, #1
20003832:	683b      	ldr	r3, [r7, #0]
20003834:	192d      	adds	r5, r5, r4
20003836:	3d03      	subs	r5, #3
20003838:	1959      	adds	r1, r3, r5
2000383a:	784b      	ldrb	r3, [r1, #1]
2000383c:	73bb      	strb	r3, [r7, #14]
2000383e:	2b00      	cmp	r3, #0
20003840:	d100      	bne.n	20003844 <add_alarm_under_lock.isra.0+0x3c>
20003842:	73fb      	strb	r3, [r7, #15]
20003844:	2300      	movs	r3, #0
20003846:	708b      	strb	r3, [r1, #2]
20003848:	704b      	strb	r3, [r1, #1]
2000384a:	700b      	strb	r3, [r1, #0]
2000384c:	e004      	b.n	20003858 <add_alarm_under_lock.isra.0+0x50>
2000384e:	0065      	lsls	r5, r4, #1
20003850:	683b      	ldr	r3, [r7, #0]
20003852:	192d      	adds	r5, r5, r4
20003854:	3d03      	subs	r5, #3
20003856:	1959      	adds	r1, r3, r5
20003858:	68b2      	ldr	r2, [r6, #8]
2000385a:	4b2a      	ldr	r3, [pc, #168]	; (20003904 <add_alarm_under_lock.isra.0+0xfc>)
2000385c:	4694      	mov	ip, r2
2000385e:	4642      	mov	r2, r8
20003860:	18e3      	adds	r3, r4, r3
20003862:	011b      	lsls	r3, r3, #4
20003864:	4463      	add	r3, ip
20003866:	601a      	str	r2, [r3, #0]
20003868:	464a      	mov	r2, r9
2000386a:	605a      	str	r2, [r3, #4]
2000386c:	9a0a      	ldr	r2, [sp, #40]	; 0x28
2000386e:	609a      	str	r2, [r3, #8]
20003870:	9a0b      	ldr	r2, [sp, #44]	; 0x2c
20003872:	60da      	str	r2, [r3, #12]
20003874:	2300      	movs	r3, #0
20003876:	708b      	strb	r3, [r1, #2]
20003878:	704b      	strb	r3, [r1, #1]
2000387a:	700b      	strb	r3, [r1, #0]
2000387c:	7b7b      	ldrb	r3, [r7, #13]
2000387e:	469b      	mov	fp, r3
20003880:	2b00      	cmp	r3, #0
20003882:	d02b      	beq.n	200038dc <add_alarm_under_lock.isra.0+0xd4>
20003884:	0022      	movs	r2, r4
20003886:	4659      	mov	r1, fp
20003888:	68b8      	ldr	r0, [r7, #8]
2000388a:	687b      	ldr	r3, [r7, #4]
2000388c:	4798      	blx	r3
2000388e:	683a      	ldr	r2, [r7, #0]
20003890:	2800      	cmp	r0, #0
20003892:	d016      	beq.n	200038c2 <add_alarm_under_lock.isra.0+0xba>
20003894:	465b      	mov	r3, fp
20003896:	4658      	mov	r0, fp
20003898:	005b      	lsls	r3, r3, #1
2000389a:	445b      	add	r3, fp
2000389c:	1955      	adds	r5, r2, r5
2000389e:	3b03      	subs	r3, #3
200038a0:	70a8      	strb	r0, [r5, #2]
200038a2:	18d1      	adds	r1, r2, r3
200038a4:	5cd3      	ldrb	r3, [r2, r3]
200038a6:	2b00      	cmp	r3, #0
200038a8:	d000      	beq.n	200038ac <add_alarm_under_lock.isra.0+0xa4>
200038aa:	706b      	strb	r3, [r5, #1]
200038ac:	465b      	mov	r3, fp
200038ae:	700c      	strb	r4, [r1, #0]
200038b0:	737b      	strb	r3, [r7, #13]
200038b2:	45a3      	cmp	fp, r4
200038b4:	d013      	beq.n	200038de <add_alarm_under_lock.isra.0+0xd6>
200038b6:	bcf0      	pop	{r4, r5, r6, r7}
200038b8:	46bb      	mov	fp, r7
200038ba:	46b2      	mov	sl, r6
200038bc:	46a9      	mov	r9, r5
200038be:	46a0      	mov	r8, r4
200038c0:	bdf8      	pop	{r3, r4, r5, r6, r7, pc}
200038c2:	465b      	mov	r3, fp
200038c4:	005b      	lsls	r3, r3, #1
200038c6:	445b      	add	r3, fp
200038c8:	3b03      	subs	r3, #3
200038ca:	18d3      	adds	r3, r2, r3
200038cc:	709c      	strb	r4, [r3, #2]
200038ce:	1951      	adds	r1, r2, r5
200038d0:	5d52      	ldrb	r2, [r2, r5]
200038d2:	2a00      	cmp	r2, #0
200038d4:	d000      	beq.n	200038d8 <add_alarm_under_lock.isra.0+0xd0>
200038d6:	705a      	strb	r2, [r3, #1]
200038d8:	465b      	mov	r3, fp
200038da:	700b      	strb	r3, [r1, #0]
200038dc:	737c      	strb	r4, [r7, #13]
200038de:	4642      	mov	r2, r8
200038e0:	464b      	mov	r3, r9
200038e2:	7d30      	ldrb	r0, [r6, #20]
200038e4:	f000 fb32 	bl	20003f4c <hardware_alarm_set_target>
200038e8:	1e05      	subs	r5, r0, #0
200038ea:	d006      	beq.n	200038fa <add_alarm_under_lock.isra.0+0xf2>
200038ec:	4653      	mov	r3, sl
200038ee:	2b00      	cmp	r3, #0
200038f0:	d103      	bne.n	200038fa <add_alarm_under_lock.isra.0+0xf2>
200038f2:	0021      	movs	r1, r4
200038f4:	6830      	ldr	r0, [r6, #0]
200038f6:	f001 f885 	bl	20004a04 <ph_remove_and_free_node>
200038fa:	9b0e      	ldr	r3, [sp, #56]	; 0x38
200038fc:	2b00      	cmp	r3, #0
200038fe:	d0da      	beq.n	200038b6 <add_alarm_under_lock.isra.0+0xae>
20003900:	701d      	strb	r5, [r3, #0]
20003902:	e7d8      	b.n	200038b6 <add_alarm_under_lock.isra.0+0xae>
20003904:	0fffffff 	.word	0x0fffffff

20003908 <alarm_pool_alarm_callback>:
20003908:	b5f0      	push	{r4, r5, r6, r7, lr}
2000390a:	46de      	mov	lr, fp
2000390c:	4657      	mov	r7, sl
2000390e:	464e      	mov	r6, r9
20003910:	4645      	mov	r5, r8
20003912:	2300      	movs	r3, #0
20003914:	b5e0      	push	{r5, r6, r7, lr}
20003916:	b08b      	sub	sp, #44	; 0x2c
20003918:	9308      	str	r3, [sp, #32]
2000391a:	4b67      	ldr	r3, [pc, #412]	; (20003ab8 <alarm_pool_alarm_callback+0x1b0>)
2000391c:	0082      	lsls	r2, r0, #2
2000391e:	58d4      	ldr	r4, [r2, r3]
20003920:	2300      	movs	r3, #0
20003922:	469b      	mov	fp, r3
20003924:	9009      	str	r0, [sp, #36]	; 0x24
20003926:	f000 fa97 	bl	20003e58 <time_us_64>
2000392a:	6862      	ldr	r2, [r4, #4]
2000392c:	0006      	movs	r6, r0
2000392e:	000f      	movs	r7, r1
20003930:	f3ef 8510 	mrs	r5, PRIMASK
20003934:	b672      	cpsid	i
20003936:	6813      	ldr	r3, [r2, #0]
20003938:	2b00      	cmp	r3, #0
2000393a:	d0fc      	beq.n	20003936 <alarm_pool_alarm_callback+0x2e>
2000393c:	f3bf 8f5f 	dmb	sy
20003940:	6823      	ldr	r3, [r4, #0]
20003942:	469c      	mov	ip, r3
20003944:	7b5b      	ldrb	r3, [r3, #13]
20003946:	4699      	mov	r9, r3
20003948:	2b00      	cmp	r3, #0
2000394a:	d100      	bne.n	2000394e <alarm_pool_alarm_callback+0x46>
2000394c:	e069      	b.n	20003a22 <alarm_pool_alarm_callback+0x11a>
2000394e:	68a2      	ldr	r2, [r4, #8]
20003950:	4b5a      	ldr	r3, [pc, #360]	; (20003abc <alarm_pool_alarm_callback+0x1b4>)
20003952:	4690      	mov	r8, r2
20003954:	444b      	add	r3, r9
20003956:	011b      	lsls	r3, r3, #4
20003958:	4498      	add	r8, r3
2000395a:	4643      	mov	r3, r8
2000395c:	681a      	ldr	r2, [r3, #0]
2000395e:	685b      	ldr	r3, [r3, #4]
20003960:	0010      	movs	r0, r2
20003962:	0019      	movs	r1, r3
20003964:	1b80      	subs	r0, r0, r6
20003966:	41b9      	sbcs	r1, r7
20003968:	2900      	cmp	r1, #0
2000396a:	dc00      	bgt.n	2000396e <alarm_pool_alarm_callback+0x66>
2000396c:	e063      	b.n	20003a36 <alarm_pool_alarm_callback+0x12e>
2000396e:	9809      	ldr	r0, [sp, #36]	; 0x24
20003970:	f000 faec 	bl	20003f4c <hardware_alarm_set_target>
20003974:	2300      	movs	r3, #0
20003976:	2200      	movs	r2, #0
20003978:	4698      	mov	r8, r3
2000397a:	2300      	movs	r3, #0
2000397c:	9206      	str	r2, [sp, #24]
2000397e:	9307      	str	r3, [sp, #28]
20003980:	2300      	movs	r3, #0
20003982:	469a      	mov	sl, r3
20003984:	6863      	ldr	r3, [r4, #4]
20003986:	f3bf 8f5f 	dmb	sy
2000398a:	465a      	mov	r2, fp
2000398c:	601a      	str	r2, [r3, #0]
2000398e:	f385 8810 	msr	PRIMASK, r5
20003992:	4653      	mov	r3, sl
20003994:	2b00      	cmp	r3, #0
20003996:	d108      	bne.n	200039aa <alarm_pool_alarm_callback+0xa2>
20003998:	2800      	cmp	r0, #0
2000399a:	d1c4      	bne.n	20003926 <alarm_pool_alarm_callback+0x1e>
2000399c:	b00b      	add	sp, #44	; 0x2c
2000399e:	bcf0      	pop	{r4, r5, r6, r7}
200039a0:	46bb      	mov	fp, r7
200039a2:	46b2      	mov	sl, r6
200039a4:	46a9      	mov	r9, r5
200039a6:	46a0      	mov	r8, r4
200039a8:	bdf0      	pop	{r4, r5, r6, r7, pc}
200039aa:	9b08      	ldr	r3, [sp, #32]
200039ac:	4641      	mov	r1, r8
200039ae:	0218      	lsls	r0, r3, #8
200039b0:	464b      	mov	r3, r9
200039b2:	4318      	orrs	r0, r3
200039b4:	47d0      	blx	sl
200039b6:	6862      	ldr	r2, [r4, #4]
200039b8:	0006      	movs	r6, r0
200039ba:	000f      	movs	r7, r1
200039bc:	f3ef 8510 	mrs	r5, PRIMASK
200039c0:	b672      	cpsid	i
200039c2:	6813      	ldr	r3, [r2, #0]
200039c4:	2b00      	cmp	r3, #0
200039c6:	d0fc      	beq.n	200039c2 <alarm_pool_alarm_callback+0xba>
200039c8:	f3bf 8f5f 	dmb	sy
200039cc:	2f00      	cmp	r7, #0
200039ce:	db50      	blt.n	20003a72 <alarm_pool_alarm_callback+0x16a>
200039d0:	0033      	movs	r3, r6
200039d2:	433b      	orrs	r3, r7
200039d4:	d002      	beq.n	200039dc <alarm_pool_alarm_callback+0xd4>
200039d6:	6923      	ldr	r3, [r4, #16]
200039d8:	2b00      	cmp	r3, #0
200039da:	d161      	bne.n	20003aa0 <alarm_pool_alarm_callback+0x198>
200039dc:	6823      	ldr	r3, [r4, #0]
200039de:	7bd9      	ldrb	r1, [r3, #15]
200039e0:	2900      	cmp	r1, #0
200039e2:	d007      	beq.n	200039f4 <alarm_pool_alarm_callback+0xec>
200039e4:	004a      	lsls	r2, r1, #1
200039e6:	1852      	adds	r2, r2, r1
200039e8:	6819      	ldr	r1, [r3, #0]
200039ea:	468c      	mov	ip, r1
200039ec:	4649      	mov	r1, r9
200039ee:	4462      	add	r2, ip
200039f0:	3a03      	subs	r2, #3
200039f2:	7051      	strb	r1, [r2, #1]
200039f4:	7b9a      	ldrb	r2, [r3, #14]
200039f6:	2a00      	cmp	r2, #0
200039f8:	d101      	bne.n	200039fe <alarm_pool_alarm_callback+0xf6>
200039fa:	464a      	mov	r2, r9
200039fc:	739a      	strb	r2, [r3, #14]
200039fe:	464a      	mov	r2, r9
20003a00:	73da      	strb	r2, [r3, #15]
20003a02:	464b      	mov	r3, r9
20003a04:	68e1      	ldr	r1, [r4, #12]
20003a06:	3b01      	subs	r3, #1
20003a08:	5cca      	ldrb	r2, [r1, r3]
20003a0a:	3201      	adds	r2, #1
20003a0c:	54ca      	strb	r2, [r1, r3]
20003a0e:	465b      	mov	r3, fp
20003a10:	6123      	str	r3, [r4, #16]
20003a12:	6863      	ldr	r3, [r4, #4]
20003a14:	f3bf 8f5f 	dmb	sy
20003a18:	465a      	mov	r2, fp
20003a1a:	601a      	str	r2, [r3, #0]
20003a1c:	f385 8810 	msr	PRIMASK, r5
20003a20:	e781      	b.n	20003926 <alarm_pool_alarm_callback+0x1e>
20003a22:	2300      	movs	r3, #0
20003a24:	2200      	movs	r2, #0
20003a26:	4698      	mov	r8, r3
20003a28:	2300      	movs	r3, #0
20003a2a:	9206      	str	r2, [sp, #24]
20003a2c:	9307      	str	r3, [sp, #28]
20003a2e:	2300      	movs	r3, #0
20003a30:	2000      	movs	r0, #0
20003a32:	469a      	mov	sl, r3
20003a34:	e7a6      	b.n	20003984 <alarm_pool_alarm_callback+0x7c>
20003a36:	2900      	cmp	r1, #0
20003a38:	d102      	bne.n	20003a40 <alarm_pool_alarm_callback+0x138>
20003a3a:	2800      	cmp	r0, #0
20003a3c:	d000      	beq.n	20003a40 <alarm_pool_alarm_callback+0x138>
20003a3e:	e796      	b.n	2000396e <alarm_pool_alarm_callback+0x66>
20003a40:	2100      	movs	r1, #0
20003a42:	4660      	mov	r0, ip
20003a44:	f000 ff5c 	bl	20004900 <ph_remove_head>
20003a48:	4643      	mov	r3, r8
20003a4a:	681a      	ldr	r2, [r3, #0]
20003a4c:	685b      	ldr	r3, [r3, #4]
20003a4e:	9206      	str	r2, [sp, #24]
20003a50:	9307      	str	r3, [sp, #28]
20003a52:	4643      	mov	r3, r8
20003a54:	689b      	ldr	r3, [r3, #8]
20003a56:	469a      	mov	sl, r3
20003a58:	4643      	mov	r3, r8
20003a5a:	68db      	ldr	r3, [r3, #12]
20003a5c:	4698      	mov	r8, r3
20003a5e:	68e3      	ldr	r3, [r4, #12]
20003a60:	444b      	add	r3, r9
20003a62:	3b01      	subs	r3, #1
20003a64:	781b      	ldrb	r3, [r3, #0]
20003a66:	9308      	str	r3, [sp, #32]
20003a68:	021b      	lsls	r3, r3, #8
20003a6a:	4303      	orrs	r3, r0
20003a6c:	6123      	str	r3, [r4, #16]
20003a6e:	2000      	movs	r0, #0
20003a70:	e788      	b.n	20003984 <alarm_pool_alarm_callback+0x7c>
20003a72:	6923      	ldr	r3, [r4, #16]
20003a74:	2b00      	cmp	r3, #0
20003a76:	d0b1      	beq.n	200039dc <alarm_pool_alarm_callback+0xd4>
20003a78:	9a06      	ldr	r2, [sp, #24]
20003a7a:	9b07      	ldr	r3, [sp, #28]
20003a7c:	1b92      	subs	r2, r2, r6
20003a7e:	41bb      	sbcs	r3, r7
20003a80:	2b00      	cmp	r3, #0
20003a82:	db15      	blt.n	20003ab0 <alarm_pool_alarm_callback+0x1a8>
20003a84:	4659      	mov	r1, fp
20003a86:	9104      	str	r1, [sp, #16]
20003a88:	2101      	movs	r1, #1
20003a8a:	9103      	str	r1, [sp, #12]
20003a8c:	4649      	mov	r1, r9
20003a8e:	9102      	str	r1, [sp, #8]
20003a90:	4641      	mov	r1, r8
20003a92:	9101      	str	r1, [sp, #4]
20003a94:	4651      	mov	r1, sl
20003a96:	0020      	movs	r0, r4
20003a98:	9100      	str	r1, [sp, #0]
20003a9a:	f7ff feb5 	bl	20003808 <add_alarm_under_lock.isra.0>
20003a9e:	e7b6      	b.n	20003a0e <alarm_pool_alarm_callback+0x106>
20003aa0:	f000 f9da 	bl	20003e58 <time_us_64>
20003aa4:	0032      	movs	r2, r6
20003aa6:	003b      	movs	r3, r7
20003aa8:	1812      	adds	r2, r2, r0
20003aaa:	414b      	adcs	r3, r1
20003aac:	2b00      	cmp	r3, #0
20003aae:	dae9      	bge.n	20003a84 <alarm_pool_alarm_callback+0x17c>
20003ab0:	2201      	movs	r2, #1
20003ab2:	4b03      	ldr	r3, [pc, #12]	; (20003ac0 <alarm_pool_alarm_callback+0x1b8>)
20003ab4:	4252      	negs	r2, r2
20003ab6:	e7e5      	b.n	20003a84 <alarm_pool_alarm_callback+0x17c>
20003ab8:	200114ec 	.word	0x200114ec
20003abc:	0fffffff 	.word	0x0fffffff
20003ac0:	7fffffff 	.word	0x7fffffff

20003ac4 <alarm_pool_init_default>:
20003ac4:	b510      	push	{r4, lr}
20003ac6:	4c14      	ldr	r4, [pc, #80]	; (20003b18 <alarm_pool_init_default+0x54>)
20003ac8:	6863      	ldr	r3, [r4, #4]
20003aca:	2b00      	cmp	r3, #0
20003acc:	d004      	beq.n	20003ad8 <alarm_pool_init_default+0x14>
20003ace:	210a      	movs	r1, #10
20003ad0:	4812      	ldr	r0, [pc, #72]	; (20003b1c <alarm_pool_init_default+0x58>)
20003ad2:	f7ff fe37 	bl	20003744 <lock_init>
20003ad6:	bd10      	pop	{r4, pc}
20003ad8:	0023      	movs	r3, r4
20003ada:	4a11      	ldr	r2, [pc, #68]	; (20003b20 <alarm_pool_init_default+0x5c>)
20003adc:	2110      	movs	r1, #16
20003ade:	6820      	ldr	r0, [r4, #0]
20003ae0:	f000 fe28 	bl	20004734 <ph_post_alloc_init>
20003ae4:	2003      	movs	r0, #3
20003ae6:	f000 f9ab 	bl	20003e40 <hardware_alarm_claim>
20003aea:	2003      	movs	r0, #3
20003aec:	f000 fa98 	bl	20004020 <hardware_alarm_cancel>
20003af0:	2003      	movs	r0, #3
20003af2:	490c      	ldr	r1, [pc, #48]	; (20003b24 <alarm_pool_init_default+0x60>)
20003af4:	f000 f9e4 	bl	20003ec0 <hardware_alarm_set_callback>
20003af8:	f000 fb3c 	bl	20004174 <next_striped_spin_lock_num>
20003afc:	4b0a      	ldr	r3, [pc, #40]	; (20003b28 <alarm_pool_init_default+0x64>)
20003afe:	469c      	mov	ip, r3
20003b00:	2303      	movs	r3, #3
20003b02:	7523      	strb	r3, [r4, #20]
20003b04:	23d0      	movs	r3, #208	; 0xd0
20003b06:	061b      	lsls	r3, r3, #24
20003b08:	681b      	ldr	r3, [r3, #0]
20003b0a:	4460      	add	r0, ip
20003b0c:	7563      	strb	r3, [r4, #21]
20003b0e:	4b07      	ldr	r3, [pc, #28]	; (20003b2c <alarm_pool_init_default+0x68>)
20003b10:	0080      	lsls	r0, r0, #2
20003b12:	6060      	str	r0, [r4, #4]
20003b14:	60dc      	str	r4, [r3, #12]
20003b16:	e7da      	b.n	20003ace <alarm_pool_init_default+0xa>
20003b18:	2000b47c 	.word	0x2000b47c
20003b1c:	200117a8 	.word	0x200117a8
20003b20:	200037b1 	.word	0x200037b1
20003b24:	20003909 	.word	0x20003909
20003b28:	34000040 	.word	0x34000040
20003b2c:	200114ec 	.word	0x200114ec

20003b30 <alarm_pool_get_default>:
20003b30:	4800      	ldr	r0, [pc, #0]	; (20003b34 <alarm_pool_get_default+0x4>)
20003b32:	4770      	bx	lr
20003b34:	2000b47c 	.word	0x2000b47c

20003b38 <alarm_pool_add_alarm_at>:
20003b38:	b5f0      	push	{r4, r5, r6, r7, lr}
20003b3a:	464e      	mov	r6, r9
20003b3c:	4645      	mov	r5, r8
20003b3e:	46de      	mov	lr, fp
20003b40:	4657      	mov	r7, sl
20003b42:	b5e0      	push	{r5, r6, r7, lr}
20003b44:	b085      	sub	sp, #20
20003b46:	9301      	str	r3, [sp, #4]
20003b48:	ab10      	add	r3, sp, #64	; 0x40
20003b4a:	781b      	ldrb	r3, [r3, #0]
20003b4c:	0006      	movs	r6, r0
20003b4e:	9303      	str	r3, [sp, #12]
20003b50:	2300      	movs	r3, #0
20003b52:	4699      	mov	r9, r3
20003b54:	4698      	mov	r8, r3
20003b56:	9200      	str	r2, [sp, #0]
20003b58:	6872      	ldr	r2, [r6, #4]
20003b5a:	f3ef 8b10 	mrs	fp, PRIMASK
20003b5e:	b672      	cpsid	i
20003b60:	6813      	ldr	r3, [r2, #0]
20003b62:	2b00      	cmp	r3, #0
20003b64:	d0fc      	beq.n	20003b60 <alarm_pool_add_alarm_at+0x28>
20003b66:	f3bf 8f5f 	dmb	sy
20003b6a:	6835      	ldr	r5, [r6, #0]
20003b6c:	7bac      	ldrb	r4, [r5, #14]
20003b6e:	2c00      	cmp	r4, #0
20003b70:	d03d      	beq.n	20003bee <alarm_pool_add_alarm_at+0xb6>
20003b72:	0067      	lsls	r7, r4, #1
20003b74:	682b      	ldr	r3, [r5, #0]
20003b76:	193f      	adds	r7, r7, r4
20003b78:	3f03      	subs	r7, #3
20003b7a:	19db      	adds	r3, r3, r7
20003b7c:	785a      	ldrb	r2, [r3, #1]
20003b7e:	73aa      	strb	r2, [r5, #14]
20003b80:	2a00      	cmp	r2, #0
20003b82:	d100      	bne.n	20003b86 <alarm_pool_add_alarm_at+0x4e>
20003b84:	73ea      	strb	r2, [r5, #15]
20003b86:	68b1      	ldr	r1, [r6, #8]
20003b88:	4a47      	ldr	r2, [pc, #284]	; (20003ca8 <alarm_pool_add_alarm_at+0x170>)
20003b8a:	468c      	mov	ip, r1
20003b8c:	9800      	ldr	r0, [sp, #0]
20003b8e:	9901      	ldr	r1, [sp, #4]
20003b90:	18a2      	adds	r2, r4, r2
20003b92:	0112      	lsls	r2, r2, #4
20003b94:	4462      	add	r2, ip
20003b96:	6010      	str	r0, [r2, #0]
20003b98:	6051      	str	r1, [r2, #4]
20003b9a:	990e      	ldr	r1, [sp, #56]	; 0x38
20003b9c:	6091      	str	r1, [r2, #8]
20003b9e:	990f      	ldr	r1, [sp, #60]	; 0x3c
20003ba0:	60d1      	str	r1, [r2, #12]
20003ba2:	4642      	mov	r2, r8
20003ba4:	709a      	strb	r2, [r3, #2]
20003ba6:	705a      	strb	r2, [r3, #1]
20003ba8:	701a      	strb	r2, [r3, #0]
20003baa:	7b6b      	ldrb	r3, [r5, #13]
20003bac:	469a      	mov	sl, r3
20003bae:	2b00      	cmp	r3, #0
20003bb0:	d067      	beq.n	20003c82 <alarm_pool_add_alarm_at+0x14a>
20003bb2:	0022      	movs	r2, r4
20003bb4:	0019      	movs	r1, r3
20003bb6:	68a8      	ldr	r0, [r5, #8]
20003bb8:	686b      	ldr	r3, [r5, #4]
20003bba:	4798      	blx	r3
20003bbc:	682a      	ldr	r2, [r5, #0]
20003bbe:	2800      	cmp	r0, #0
20003bc0:	d052      	beq.n	20003c68 <alarm_pool_add_alarm_at+0x130>
20003bc2:	4653      	mov	r3, sl
20003bc4:	4650      	mov	r0, sl
20003bc6:	005b      	lsls	r3, r3, #1
20003bc8:	4453      	add	r3, sl
20003bca:	19d7      	adds	r7, r2, r7
20003bcc:	3b03      	subs	r3, #3
20003bce:	70b8      	strb	r0, [r7, #2]
20003bd0:	18d1      	adds	r1, r2, r3
20003bd2:	5cd3      	ldrb	r3, [r2, r3]
20003bd4:	2b00      	cmp	r3, #0
20003bd6:	d000      	beq.n	20003bda <alarm_pool_add_alarm_at+0xa2>
20003bd8:	707b      	strb	r3, [r7, #1]
20003bda:	4653      	mov	r3, sl
20003bdc:	700c      	strb	r4, [r1, #0]
20003bde:	736b      	strb	r3, [r5, #13]
20003be0:	4554      	cmp	r4, sl
20003be2:	d04f      	beq.n	20003c84 <alarm_pool_add_alarm_at+0x14c>
20003be4:	68f3      	ldr	r3, [r6, #12]
20003be6:	191b      	adds	r3, r3, r4
20003be8:	3b01      	subs	r3, #1
20003bea:	7818      	ldrb	r0, [r3, #0]
20003bec:	e000      	b.n	20003bf0 <alarm_pool_add_alarm_at+0xb8>
20003bee:	2000      	movs	r0, #0
20003bf0:	6873      	ldr	r3, [r6, #4]
20003bf2:	f3bf 8f5f 	dmb	sy
20003bf6:	4642      	mov	r2, r8
20003bf8:	601a      	str	r2, [r3, #0]
20003bfa:	f38b 8810 	msr	PRIMASK, fp
20003bfe:	2c00      	cmp	r4, #0
20003c00:	d04f      	beq.n	20003ca2 <alarm_pool_add_alarm_at+0x16a>
20003c02:	464b      	mov	r3, r9
20003c04:	2b00      	cmp	r3, #0
20003c06:	d108      	bne.n	20003c1a <alarm_pool_add_alarm_at+0xe2>
20003c08:	0200      	lsls	r0, r0, #8
20003c0a:	4320      	orrs	r0, r4
20003c0c:	b005      	add	sp, #20
20003c0e:	bcf0      	pop	{r4, r5, r6, r7}
20003c10:	46bb      	mov	fp, r7
20003c12:	46b2      	mov	sl, r6
20003c14:	46a9      	mov	r9, r5
20003c16:	46a0      	mov	r8, r4
20003c18:	bdf0      	pop	{r4, r5, r6, r7, pc}
20003c1a:	9b03      	ldr	r3, [sp, #12]
20003c1c:	2b00      	cmp	r3, #0
20003c1e:	d03e      	beq.n	20003c9e <alarm_pool_add_alarm_at+0x166>
20003c20:	9b0e      	ldr	r3, [sp, #56]	; 0x38
20003c22:	2000      	movs	r0, #0
20003c24:	990f      	ldr	r1, [sp, #60]	; 0x3c
20003c26:	4798      	blx	r3
20003c28:	0003      	movs	r3, r0
20003c2a:	0004      	movs	r4, r0
20003c2c:	000d      	movs	r5, r1
20003c2e:	430b      	orrs	r3, r1
20003c30:	d035      	beq.n	20003c9e <alarm_pool_add_alarm_at+0x166>
20003c32:	2900      	cmp	r1, #0
20003c34:	da0a      	bge.n	20003c4c <alarm_pool_add_alarm_at+0x114>
20003c36:	9a00      	ldr	r2, [sp, #0]
20003c38:	9b01      	ldr	r3, [sp, #4]
20003c3a:	1b12      	subs	r2, r2, r4
20003c3c:	41ab      	sbcs	r3, r5
20003c3e:	9200      	str	r2, [sp, #0]
20003c40:	9301      	str	r3, [sp, #4]
20003c42:	2b00      	cmp	r3, #0
20003c44:	db0a      	blt.n	20003c5c <alarm_pool_add_alarm_at+0x124>
20003c46:	9b03      	ldr	r3, [sp, #12]
20003c48:	4699      	mov	r9, r3
20003c4a:	e785      	b.n	20003b58 <alarm_pool_add_alarm_at+0x20>
20003c4c:	f000 f904 	bl	20003e58 <time_us_64>
20003c50:	1824      	adds	r4, r4, r0
20003c52:	414d      	adcs	r5, r1
20003c54:	9400      	str	r4, [sp, #0]
20003c56:	9501      	str	r5, [sp, #4]
20003c58:	2d00      	cmp	r5, #0
20003c5a:	daf4      	bge.n	20003c46 <alarm_pool_add_alarm_at+0x10e>
20003c5c:	2301      	movs	r3, #1
20003c5e:	4c13      	ldr	r4, [pc, #76]	; (20003cac <alarm_pool_add_alarm_at+0x174>)
20003c60:	425b      	negs	r3, r3
20003c62:	9300      	str	r3, [sp, #0]
20003c64:	9401      	str	r4, [sp, #4]
20003c66:	e7ee      	b.n	20003c46 <alarm_pool_add_alarm_at+0x10e>
20003c68:	4653      	mov	r3, sl
20003c6a:	005b      	lsls	r3, r3, #1
20003c6c:	4453      	add	r3, sl
20003c6e:	3b03      	subs	r3, #3
20003c70:	18d3      	adds	r3, r2, r3
20003c72:	709c      	strb	r4, [r3, #2]
20003c74:	19d1      	adds	r1, r2, r7
20003c76:	5dd2      	ldrb	r2, [r2, r7]
20003c78:	2a00      	cmp	r2, #0
20003c7a:	d000      	beq.n	20003c7e <alarm_pool_add_alarm_at+0x146>
20003c7c:	705a      	strb	r2, [r3, #1]
20003c7e:	4653      	mov	r3, sl
20003c80:	700b      	strb	r3, [r1, #0]
20003c82:	736c      	strb	r4, [r5, #13]
20003c84:	7d30      	ldrb	r0, [r6, #20]
20003c86:	9a00      	ldr	r2, [sp, #0]
20003c88:	9b01      	ldr	r3, [sp, #4]
20003c8a:	f000 f95f 	bl	20003f4c <hardware_alarm_set_target>
20003c8e:	4681      	mov	r9, r0
20003c90:	2800      	cmp	r0, #0
20003c92:	d0a7      	beq.n	20003be4 <alarm_pool_add_alarm_at+0xac>
20003c94:	0021      	movs	r1, r4
20003c96:	6830      	ldr	r0, [r6, #0]
20003c98:	f000 feb4 	bl	20004a04 <ph_remove_and_free_node>
20003c9c:	e7a2      	b.n	20003be4 <alarm_pool_add_alarm_at+0xac>
20003c9e:	2000      	movs	r0, #0
20003ca0:	e7b4      	b.n	20003c0c <alarm_pool_add_alarm_at+0xd4>
20003ca2:	2001      	movs	r0, #1
20003ca4:	4240      	negs	r0, r0
20003ca6:	e7b1      	b.n	20003c0c <alarm_pool_add_alarm_at+0xd4>
20003ca8:	0fffffff 	.word	0x0fffffff
20003cac:	7fffffff 	.word	0x7fffffff

20003cb0 <best_effort_wfe_or_timeout>:
20003cb0:	b5f0      	push	{r4, r5, r6, r7, lr}
20003cb2:	f3ef 8305 	mrs	r3, IPSR
20003cb6:	46ce      	mov	lr, r9
20003cb8:	4647      	mov	r7, r8
20003cba:	b580      	push	{r7, lr}
20003cbc:	0005      	movs	r5, r0
20003cbe:	000c      	movs	r4, r1
20003cc0:	b085      	sub	sp, #20
20003cc2:	2b00      	cmp	r3, #0
20003cc4:	d012      	beq.n	20003cec <best_effort_wfe_or_timeout+0x3c>
20003cc6:	4a2c      	ldr	r2, [pc, #176]	; (20003d78 <best_effort_wfe_or_timeout+0xc8>)
20003cc8:	2000      	movs	r0, #0
20003cca:	6a53      	ldr	r3, [r2, #36]	; 0x24
20003ccc:	429c      	cmp	r4, r3
20003cce:	d803      	bhi.n	20003cd8 <best_effort_wfe_or_timeout+0x28>
20003cd0:	6a92      	ldr	r2, [r2, #40]	; 0x28
20003cd2:	3001      	adds	r0, #1
20003cd4:	42aa      	cmp	r2, r5
20003cd6:	d304      	bcc.n	20003ce2 <best_effort_wfe_or_timeout+0x32>
20003cd8:	b005      	add	sp, #20
20003cda:	bcc0      	pop	{r6, r7}
20003cdc:	46b9      	mov	r9, r7
20003cde:	46b0      	mov	r8, r6
20003ce0:	bdf0      	pop	{r4, r5, r6, r7, pc}
20003ce2:	1ae0      	subs	r0, r4, r3
20003ce4:	1e42      	subs	r2, r0, #1
20003ce6:	4190      	sbcs	r0, r2
20003ce8:	b2c0      	uxtb	r0, r0
20003cea:	e7f5      	b.n	20003cd8 <best_effort_wfe_or_timeout+0x28>
20003cec:	4e23      	ldr	r6, [pc, #140]	; (20003d7c <best_effort_wfe_or_timeout+0xcc>)
20003cee:	9302      	str	r3, [sp, #8]
20003cf0:	9301      	str	r3, [sp, #4]
20003cf2:	4b23      	ldr	r3, [pc, #140]	; (20003d80 <best_effort_wfe_or_timeout+0xd0>)
20003cf4:	0002      	movs	r2, r0
20003cf6:	9300      	str	r3, [sp, #0]
20003cf8:	0030      	movs	r0, r6
20003cfa:	000b      	movs	r3, r1
20003cfc:	f7ff ff1c 	bl	20003b38 <alarm_pool_add_alarm_at>
20003d00:	1e03      	subs	r3, r0, #0
20003d02:	dde0      	ble.n	20003cc6 <best_effort_wfe_or_timeout+0x16>
20003d04:	bf20      	wfe
20003d06:	6871      	ldr	r1, [r6, #4]
20003d08:	f3ef 8710 	mrs	r7, PRIMASK
20003d0c:	b672      	cpsid	i
20003d0e:	680a      	ldr	r2, [r1, #0]
20003d10:	2a00      	cmp	r2, #0
20003d12:	d0fc      	beq.n	20003d0e <best_effort_wfe_or_timeout+0x5e>
20003d14:	f3bf 8f5f 	dmb	sy
20003d18:	b2da      	uxtb	r2, r3
20003d1a:	4694      	mov	ip, r2
20003d1c:	6830      	ldr	r0, [r6, #0]
20003d1e:	7b42      	ldrb	r2, [r0, #13]
20003d20:	4562      	cmp	r2, ip
20003d22:	d01d      	beq.n	20003d60 <best_effort_wfe_or_timeout+0xb0>
20003d24:	22ff      	movs	r2, #255	; 0xff
20003d26:	401a      	ands	r2, r3
20003d28:	0051      	lsls	r1, r2, #1
20003d2a:	4689      	mov	r9, r1
20003d2c:	6801      	ldr	r1, [r0, #0]
20003d2e:	4491      	add	r9, r2
20003d30:	4688      	mov	r8, r1
20003d32:	4649      	mov	r1, r9
20003d34:	4441      	add	r1, r8
20003d36:	3903      	subs	r1, #3
20003d38:	7889      	ldrb	r1, [r1, #2]
20003d3a:	2900      	cmp	r1, #0
20003d3c:	d013      	beq.n	20003d66 <best_effort_wfe_or_timeout+0xb6>
20003d3e:	68f1      	ldr	r1, [r6, #12]
20003d40:	0a1b      	lsrs	r3, r3, #8
20003d42:	4688      	mov	r8, r1
20003d44:	4442      	add	r2, r8
20003d46:	3a01      	subs	r2, #1
20003d48:	7812      	ldrb	r2, [r2, #0]
20003d4a:	b2db      	uxtb	r3, r3
20003d4c:	429a      	cmp	r2, r3
20003d4e:	d00f      	beq.n	20003d70 <best_effort_wfe_or_timeout+0xc0>
20003d50:	6873      	ldr	r3, [r6, #4]
20003d52:	f3bf 8f5f 	dmb	sy
20003d56:	2200      	movs	r2, #0
20003d58:	601a      	str	r2, [r3, #0]
20003d5a:	f387 8810 	msr	PRIMASK, r7
20003d5e:	e7b2      	b.n	20003cc6 <best_effort_wfe_or_timeout+0x16>
20003d60:	22ff      	movs	r2, #255	; 0xff
20003d62:	401a      	ands	r2, r3
20003d64:	e7eb      	b.n	20003d3e <best_effort_wfe_or_timeout+0x8e>
20003d66:	6932      	ldr	r2, [r6, #16]
20003d68:	4293      	cmp	r3, r2
20003d6a:	d1f1      	bne.n	20003d50 <best_effort_wfe_or_timeout+0xa0>
20003d6c:	6131      	str	r1, [r6, #16]
20003d6e:	e7ef      	b.n	20003d50 <best_effort_wfe_or_timeout+0xa0>
20003d70:	4661      	mov	r1, ip
20003d72:	f000 fe47 	bl	20004a04 <ph_remove_and_free_node>
20003d76:	e7eb      	b.n	20003d50 <best_effort_wfe_or_timeout+0xa0>
20003d78:	40054000 	.word	0x40054000
20003d7c:	2000b47c 	.word	0x2000b47c
20003d80:	200037e5 	.word	0x200037e5

20003d84 <hardware_alarm_irq_handler>:
20003d84:	b5f0      	push	{r4, r5, r6, r7, lr}
20003d86:	f3ef 8205 	mrs	r2, IPSR
20003d8a:	46d6      	mov	lr, sl
20003d8c:	464f      	mov	r7, r9
20003d8e:	4646      	mov	r6, r8
20003d90:	0010      	movs	r0, r2
20003d92:	b5c0      	push	{r6, r7, lr}
20003d94:	3810      	subs	r0, #16
20003d96:	f3ef 8810 	mrs	r8, PRIMASK
20003d9a:	b672      	cpsid	i
20003d9c:	4c21      	ldr	r4, [pc, #132]	; (20003e24 <hardware_alarm_irq_handler+0xa0>)
20003d9e:	6823      	ldr	r3, [r4, #0]
20003da0:	2b00      	cmp	r3, #0
20003da2:	d0fc      	beq.n	20003d9e <hardware_alarm_irq_handler+0x1a>
20003da4:	f3bf 8f5f 	dmb	sy
20003da8:	2301      	movs	r3, #1
20003daa:	0019      	movs	r1, r3
20003dac:	4081      	lsls	r1, r0
20003dae:	4d1e      	ldr	r5, [pc, #120]	; (20003e28 <hardware_alarm_irq_handler+0xa4>)
20003db0:	001f      	movs	r7, r3
20003db2:	6369      	str	r1, [r5, #52]	; 0x34
20003db4:	46aa      	mov	sl, r5
20003db6:	4d1d      	ldr	r5, [pc, #116]	; (20003e2c <hardware_alarm_irq_handler+0xa8>)
20003db8:	6029      	str	r1, [r5, #0]
20003dba:	4d1d      	ldr	r5, [pc, #116]	; (20003e30 <hardware_alarm_irq_handler+0xac>)
20003dbc:	782e      	ldrb	r6, [r5, #0]
20003dbe:	46ac      	mov	ip, r5
20003dc0:	0035      	movs	r5, r6
20003dc2:	40c5      	lsrs	r5, r0
20003dc4:	402f      	ands	r7, r5
20003dc6:	422b      	tst	r3, r5
20003dc8:	d109      	bne.n	20003dde <hardware_alarm_irq_handler+0x5a>
20003dca:	f3bf 8f5f 	dmb	sy
20003dce:	6027      	str	r7, [r4, #0]
20003dd0:	f388 8810 	msr	PRIMASK, r8
20003dd4:	bce0      	pop	{r5, r6, r7}
20003dd6:	46ba      	mov	sl, r7
20003dd8:	46b1      	mov	r9, r6
20003dda:	46a8      	mov	r8, r5
20003ddc:	bdf0      	pop	{r4, r5, r6, r7, pc}
20003dde:	4653      	mov	r3, sl
20003de0:	4d14      	ldr	r5, [pc, #80]	; (20003e34 <hardware_alarm_irq_handler+0xb0>)
20003de2:	6a5f      	ldr	r7, [r3, #36]	; 0x24
20003de4:	0083      	lsls	r3, r0, #2
20003de6:	595d      	ldr	r5, [r3, r5]
20003de8:	42af      	cmp	r7, r5
20003dea:	d30e      	bcc.n	20003e0a <hardware_alarm_irq_handler+0x86>
20003dec:	4a12      	ldr	r2, [pc, #72]	; (20003e38 <hardware_alarm_irq_handler+0xb4>)
20003dee:	438e      	bics	r6, r1
20003df0:	589b      	ldr	r3, [r3, r2]
20003df2:	4662      	mov	r2, ip
20003df4:	7016      	strb	r6, [r2, #0]
20003df6:	f3bf 8f5f 	dmb	sy
20003dfa:	2200      	movs	r2, #0
20003dfc:	6022      	str	r2, [r4, #0]
20003dfe:	f388 8810 	msr	PRIMASK, r8
20003e02:	2b00      	cmp	r3, #0
20003e04:	d0e6      	beq.n	20003dd4 <hardware_alarm_irq_handler+0x50>
20003e06:	4798      	blx	r3
20003e08:	e7e4      	b.n	20003dd4 <hardware_alarm_irq_handler+0x50>
20003e0a:	4b0c      	ldr	r3, [pc, #48]	; (20003e3c <hardware_alarm_irq_handler+0xb8>)
20003e0c:	0092      	lsls	r2, r2, #2
20003e0e:	469c      	mov	ip, r3
20003e10:	4462      	add	r2, ip
20003e12:	6813      	ldr	r3, [r2, #0]
20003e14:	6013      	str	r3, [r2, #0]
20003e16:	f3bf 8f5f 	dmb	sy
20003e1a:	2300      	movs	r3, #0
20003e1c:	6023      	str	r3, [r4, #0]
20003e1e:	f388 8810 	msr	PRIMASK, r8
20003e22:	e7d7      	b.n	20003dd4 <hardware_alarm_irq_handler+0x50>
20003e24:	d0000128 	.word	0xd0000128
20003e28:	40054000 	.word	0x40054000
20003e2c:	4005703c 	.word	0x4005703c
20003e30:	200218cc 	.word	0x200218cc
20003e34:	200117ac 	.word	0x200117ac
20003e38:	20010f48 	.word	0x20010f48
20003e3c:	40053fd0 	.word	0x40053fd0

20003e40 <hardware_alarm_claim>:
20003e40:	b510      	push	{r4, lr}
20003e42:	0001      	movs	r1, r0
20003e44:	4a02      	ldr	r2, [pc, #8]	; (20003e50 <hardware_alarm_claim+0x10>)
20003e46:	4803      	ldr	r0, [pc, #12]	; (20003e54 <hardware_alarm_claim+0x14>)
20003e48:	f000 f916 	bl	20004078 <hw_claim_or_assert>
20003e4c:	bd10      	pop	{r4, pc}
20003e4e:	46c0      	nop			; (mov r8, r8)
20003e50:	2000b134 	.word	0x2000b134
20003e54:	200218ca 	.word	0x200218ca

20003e58 <time_us_64>:
20003e58:	4b03      	ldr	r3, [pc, #12]	; (20003e68 <time_us_64+0x10>)
20003e5a:	6a59      	ldr	r1, [r3, #36]	; 0x24
20003e5c:	000a      	movs	r2, r1
20003e5e:	6a98      	ldr	r0, [r3, #40]	; 0x28
20003e60:	6a59      	ldr	r1, [r3, #36]	; 0x24
20003e62:	428a      	cmp	r2, r1
20003e64:	d1fa      	bne.n	20003e5c <time_us_64+0x4>
20003e66:	4770      	bx	lr
20003e68:	40054000 	.word	0x40054000

20003e6c <busy_wait_us>:
20003e6c:	b570      	push	{r4, r5, r6, lr}
20003e6e:	0004      	movs	r4, r0
20003e70:	000d      	movs	r5, r1
20003e72:	4a12      	ldr	r2, [pc, #72]	; (20003ebc <busy_wait_us+0x50>)
20003e74:	6a53      	ldr	r3, [r2, #36]	; 0x24
20003e76:	0019      	movs	r1, r3
20003e78:	6a96      	ldr	r6, [r2, #40]	; 0x28
20003e7a:	6a53      	ldr	r3, [r2, #36]	; 0x24
20003e7c:	428b      	cmp	r3, r1
20003e7e:	d1fa      	bne.n	20003e76 <busy_wait_us+0xa>
20003e80:	0030      	movs	r0, r6
20003e82:	0019      	movs	r1, r3
20003e84:	1824      	adds	r4, r4, r0
20003e86:	414d      	adcs	r5, r1
20003e88:	42ab      	cmp	r3, r5
20003e8a:	d811      	bhi.n	20003eb0 <busy_wait_us+0x44>
20003e8c:	d00e      	beq.n	20003eac <busy_wait_us+0x40>
20003e8e:	002b      	movs	r3, r5
20003e90:	490a      	ldr	r1, [pc, #40]	; (20003ebc <busy_wait_us+0x50>)
20003e92:	6a4a      	ldr	r2, [r1, #36]	; 0x24
20003e94:	429a      	cmp	r2, r3
20003e96:	d3fc      	bcc.n	20003e92 <busy_wait_us+0x26>
20003e98:	d107      	bne.n	20003eaa <busy_wait_us+0x3e>
20003e9a:	4a08      	ldr	r2, [pc, #32]	; (20003ebc <busy_wait_us+0x50>)
20003e9c:	e002      	b.n	20003ea4 <busy_wait_us+0x38>
20003e9e:	6a51      	ldr	r1, [r2, #36]	; 0x24
20003ea0:	4299      	cmp	r1, r3
20003ea2:	d102      	bne.n	20003eaa <busy_wait_us+0x3e>
20003ea4:	6a91      	ldr	r1, [r2, #40]	; 0x28
20003ea6:	42a1      	cmp	r1, r4
20003ea8:	d3f9      	bcc.n	20003e9e <busy_wait_us+0x32>
20003eaa:	bd70      	pop	{r4, r5, r6, pc}
20003eac:	42a6      	cmp	r6, r4
20003eae:	d9ee      	bls.n	20003e8e <busy_wait_us+0x22>
20003eb0:	2301      	movs	r3, #1
20003eb2:	2401      	movs	r4, #1
20003eb4:	4264      	negs	r4, r4
20003eb6:	17e5      	asrs	r5, r4, #31
20003eb8:	425b      	negs	r3, r3
20003eba:	e7e9      	b.n	20003e90 <busy_wait_us+0x24>
20003ebc:	40054000 	.word	0x40054000

20003ec0 <hardware_alarm_set_callback>:
20003ec0:	b570      	push	{r4, r5, r6, lr}
20003ec2:	0004      	movs	r4, r0
20003ec4:	000d      	movs	r5, r1
20003ec6:	f3ef 8610 	mrs	r6, PRIMASK
20003eca:	b672      	cpsid	i
20003ecc:	4a1a      	ldr	r2, [pc, #104]	; (20003f38 <hardware_alarm_set_callback+0x78>)
20003ece:	6813      	ldr	r3, [r2, #0]
20003ed0:	2b00      	cmp	r3, #0
20003ed2:	d0fc      	beq.n	20003ece <hardware_alarm_set_callback+0xe>
20003ed4:	f3bf 8f5f 	dmb	sy
20003ed8:	2d00      	cmp	r5, #0
20003eda:	d01b      	beq.n	20003f14 <hardware_alarm_set_callback+0x54>
20003edc:	0020      	movs	r0, r4
20003ede:	f000 f977 	bl	200041d0 <irq_get_vtable_handler>
20003ee2:	4916      	ldr	r1, [pc, #88]	; (20003f3c <hardware_alarm_set_callback+0x7c>)
20003ee4:	4281      	cmp	r1, r0
20003ee6:	d00a      	beq.n	20003efe <hardware_alarm_set_callback+0x3e>
20003ee8:	0020      	movs	r0, r4
20003eea:	f000 f979 	bl	200041e0 <irq_set_exclusive_handler>
20003eee:	2101      	movs	r1, #1
20003ef0:	0020      	movs	r0, r4
20003ef2:	f000 f95b 	bl	200041ac <irq_set_enabled>
20003ef6:	2301      	movs	r3, #1
20003ef8:	40a3      	lsls	r3, r4
20003efa:	4a11      	ldr	r2, [pc, #68]	; (20003f40 <hardware_alarm_set_callback+0x80>)
20003efc:	6013      	str	r3, [r2, #0]
20003efe:	4b11      	ldr	r3, [pc, #68]	; (20003f44 <hardware_alarm_set_callback+0x84>)
20003f00:	00a4      	lsls	r4, r4, #2
20003f02:	50e5      	str	r5, [r4, r3]
20003f04:	f3bf 8f5f 	dmb	sy
20003f08:	2200      	movs	r2, #0
20003f0a:	4b0b      	ldr	r3, [pc, #44]	; (20003f38 <hardware_alarm_set_callback+0x78>)
20003f0c:	601a      	str	r2, [r3, #0]
20003f0e:	f386 8810 	msr	PRIMASK, r6
20003f12:	bd70      	pop	{r4, r5, r6, pc}
20003f14:	4b0b      	ldr	r3, [pc, #44]	; (20003f44 <hardware_alarm_set_callback+0x84>)
20003f16:	00a2      	lsls	r2, r4, #2
20003f18:	50d5      	str	r5, [r2, r3]
20003f1a:	2201      	movs	r2, #1
20003f1c:	40a2      	lsls	r2, r4
20003f1e:	490a      	ldr	r1, [pc, #40]	; (20003f48 <hardware_alarm_set_callback+0x88>)
20003f20:	0020      	movs	r0, r4
20003f22:	780b      	ldrb	r3, [r1, #0]
20003f24:	4393      	bics	r3, r2
20003f26:	700b      	strb	r3, [r1, #0]
20003f28:	4904      	ldr	r1, [pc, #16]	; (20003f3c <hardware_alarm_set_callback+0x7c>)
20003f2a:	f000 fa77 	bl	2000441c <irq_remove_handler>
20003f2e:	2100      	movs	r1, #0
20003f30:	0020      	movs	r0, r4
20003f32:	f000 f93b 	bl	200041ac <irq_set_enabled>
20003f36:	e7e5      	b.n	20003f04 <hardware_alarm_set_callback+0x44>
20003f38:	d0000128 	.word	0xd0000128
20003f3c:	20003d85 	.word	0x20003d85
20003f40:	40056038 	.word	0x40056038
20003f44:	20010f48 	.word	0x20010f48
20003f48:	200218cc 	.word	0x200218cc

20003f4c <hardware_alarm_set_target>:
20003f4c:	b5f0      	push	{r4, r5, r6, r7, lr}
20003f4e:	464f      	mov	r7, r9
20003f50:	46d6      	mov	lr, sl
20003f52:	4646      	mov	r6, r8
20003f54:	b5c0      	push	{r6, r7, lr}
20003f56:	0007      	movs	r7, r0
20003f58:	4c2c      	ldr	r4, [pc, #176]	; (2000400c <hardware_alarm_set_target+0xc0>)
20003f5a:	6a61      	ldr	r1, [r4, #36]	; 0x24
20003f5c:	000d      	movs	r5, r1
20003f5e:	6aa6      	ldr	r6, [r4, #40]	; 0x28
20003f60:	6a61      	ldr	r1, [r4, #36]	; 0x24
20003f62:	42a9      	cmp	r1, r5
20003f64:	d1fa      	bne.n	20003f5c <hardware_alarm_set_target+0x10>
20003f66:	428b      	cmp	r3, r1
20003f68:	d808      	bhi.n	20003f7c <hardware_alarm_set_target+0x30>
20003f6a:	d005      	beq.n	20003f78 <hardware_alarm_set_target+0x2c>
20003f6c:	2001      	movs	r0, #1
20003f6e:	bce0      	pop	{r5, r6, r7}
20003f70:	46ba      	mov	sl, r7
20003f72:	46b1      	mov	r9, r6
20003f74:	46a8      	mov	r8, r5
20003f76:	bdf0      	pop	{r4, r5, r6, r7, pc}
20003f78:	42b2      	cmp	r2, r6
20003f7a:	d9f7      	bls.n	20003f6c <hardware_alarm_set_target+0x20>
20003f7c:	f3ef 8a10 	mrs	sl, PRIMASK
20003f80:	b672      	cpsid	i
20003f82:	4823      	ldr	r0, [pc, #140]	; (20004010 <hardware_alarm_set_target+0xc4>)
20003f84:	6801      	ldr	r1, [r0, #0]
20003f86:	2900      	cmp	r1, #0
20003f88:	d0fc      	beq.n	20003f84 <hardware_alarm_set_target+0x38>
20003f8a:	f3bf 8f5f 	dmb	sy
20003f8e:	2501      	movs	r5, #1
20003f90:	40bd      	lsls	r5, r7
20003f92:	4920      	ldr	r1, [pc, #128]	; (20004014 <hardware_alarm_set_target+0xc8>)
20003f94:	4c1d      	ldr	r4, [pc, #116]	; (2000400c <hardware_alarm_set_target+0xc0>)
20003f96:	4688      	mov	r8, r1
20003f98:	7809      	ldrb	r1, [r1, #0]
20003f9a:	4689      	mov	r9, r1
20003f9c:	4329      	orrs	r1, r5
20003f9e:	b2c9      	uxtb	r1, r1
20003fa0:	468c      	mov	ip, r1
20003fa2:	4641      	mov	r1, r8
20003fa4:	4660      	mov	r0, ip
20003fa6:	7008      	strb	r0, [r1, #0]
20003fa8:	1d39      	adds	r1, r7, #4
20003faa:	481b      	ldr	r0, [pc, #108]	; (20004018 <hardware_alarm_set_target+0xcc>)
20003fac:	0089      	lsls	r1, r1, #2
20003fae:	6365      	str	r5, [r4, #52]	; 0x34
20003fb0:	510a      	str	r2, [r1, r4]
20003fb2:	00b9      	lsls	r1, r7, #2
20003fb4:	500b      	str	r3, [r1, r0]
20003fb6:	6a21      	ldr	r1, [r4, #32]
20003fb8:	2000      	movs	r0, #0
20003fba:	4229      	tst	r1, r5
20003fbc:	d019      	beq.n	20003ff2 <hardware_alarm_set_target+0xa6>
20003fbe:	6a61      	ldr	r1, [r4, #36]	; 0x24
20003fc0:	0008      	movs	r0, r1
20003fc2:	6aa6      	ldr	r6, [r4, #40]	; 0x28
20003fc4:	6a61      	ldr	r1, [r4, #36]	; 0x24
20003fc6:	4281      	cmp	r1, r0
20003fc8:	d1fa      	bne.n	20003fc0 <hardware_alarm_set_target+0x74>
20003fca:	428b      	cmp	r3, r1
20003fcc:	d819      	bhi.n	20004002 <hardware_alarm_set_target+0xb6>
20003fce:	d101      	bne.n	20003fd4 <hardware_alarm_set_target+0x88>
20003fd0:	42b2      	cmp	r2, r6
20003fd2:	d816      	bhi.n	20004002 <hardware_alarm_set_target+0xb6>
20003fd4:	45cc      	cmp	ip, r9
20003fd6:	d016      	beq.n	20004006 <hardware_alarm_set_target+0xba>
20003fd8:	4b0c      	ldr	r3, [pc, #48]	; (2000400c <hardware_alarm_set_target+0xc0>)
20003fda:	201f      	movs	r0, #31
20003fdc:	621d      	str	r5, [r3, #32]
20003fde:	635d      	str	r5, [r3, #52]	; 0x34
20003fe0:	2301      	movs	r3, #1
20003fe2:	4007      	ands	r7, r0
20003fe4:	40bb      	lsls	r3, r7
20003fe6:	4a0d      	ldr	r2, [pc, #52]	; (2000401c <hardware_alarm_set_target+0xd0>)
20003fe8:	381e      	subs	r0, #30
20003fea:	6013      	str	r3, [r2, #0]
20003fec:	4643      	mov	r3, r8
20003fee:	464a      	mov	r2, r9
20003ff0:	701a      	strb	r2, [r3, #0]
20003ff2:	f3bf 8f5f 	dmb	sy
20003ff6:	2200      	movs	r2, #0
20003ff8:	4b05      	ldr	r3, [pc, #20]	; (20004010 <hardware_alarm_set_target+0xc4>)
20003ffa:	601a      	str	r2, [r3, #0]
20003ffc:	f38a 8810 	msr	PRIMASK, sl
20004000:	e7b5      	b.n	20003f6e <hardware_alarm_set_target+0x22>
20004002:	2000      	movs	r0, #0
20004004:	e7f5      	b.n	20003ff2 <hardware_alarm_set_target+0xa6>
20004006:	2001      	movs	r0, #1
20004008:	e7f3      	b.n	20003ff2 <hardware_alarm_set_target+0xa6>
2000400a:	46c0      	nop			; (mov r8, r8)
2000400c:	40054000 	.word	0x40054000
20004010:	d0000128 	.word	0xd0000128
20004014:	200218cc 	.word	0x200218cc
20004018:	200117ac 	.word	0x200117ac
2000401c:	e000e280 	.word	0xe000e280

20004020 <hardware_alarm_cancel>:
20004020:	f3ef 8c10 	mrs	ip, PRIMASK
20004024:	b672      	cpsid	i
20004026:	490a      	ldr	r1, [pc, #40]	; (20004050 <hardware_alarm_cancel+0x30>)
20004028:	680b      	ldr	r3, [r1, #0]
2000402a:	2b00      	cmp	r3, #0
2000402c:	d0fc      	beq.n	20004028 <hardware_alarm_cancel+0x8>
2000402e:	f3bf 8f5f 	dmb	sy
20004032:	2301      	movs	r3, #1
20004034:	4083      	lsls	r3, r0
20004036:	4a07      	ldr	r2, [pc, #28]	; (20004054 <hardware_alarm_cancel+0x34>)
20004038:	4807      	ldr	r0, [pc, #28]	; (20004058 <hardware_alarm_cancel+0x38>)
2000403a:	6213      	str	r3, [r2, #32]
2000403c:	7802      	ldrb	r2, [r0, #0]
2000403e:	439a      	bics	r2, r3
20004040:	7002      	strb	r2, [r0, #0]
20004042:	f3bf 8f5f 	dmb	sy
20004046:	2300      	movs	r3, #0
20004048:	600b      	str	r3, [r1, #0]
2000404a:	f38c 8810 	msr	PRIMASK, ip
2000404e:	4770      	bx	lr
20004050:	d0000128 	.word	0xd0000128
20004054:	40054000 	.word	0x40054000
20004058:	200218cc 	.word	0x200218cc

2000405c <running_on_fpga>:
2000405c:	4b02      	ldr	r3, [pc, #8]	; (20004068 <running_on_fpga+0xc>)
2000405e:	6818      	ldr	r0, [r3, #0]
20004060:	0780      	lsls	r0, r0, #30
20004062:	0fc0      	lsrs	r0, r0, #31
20004064:	4770      	bx	lr
20004066:	46c0      	nop			; (mov r8, r8)
20004068:	4006c000 	.word	0x4006c000

2000406c <rp2040_chip_version>:
2000406c:	2380      	movs	r3, #128	; 0x80
2000406e:	05db      	lsls	r3, r3, #23
20004070:	6818      	ldr	r0, [r3, #0]
20004072:	0f00      	lsrs	r0, r0, #28
20004074:	4770      	bx	lr
20004076:	46c0      	nop			; (mov r8, r8)

20004078 <hw_claim_or_assert>:
20004078:	b570      	push	{r4, r5, r6, lr}
2000407a:	f3ef 8c10 	mrs	ip, PRIMASK
2000407e:	b672      	cpsid	i
20004080:	4d0d      	ldr	r5, [pc, #52]	; (200040b8 <hw_claim_or_assert+0x40>)
20004082:	682b      	ldr	r3, [r5, #0]
20004084:	2b00      	cmp	r3, #0
20004086:	d0fc      	beq.n	20004082 <hw_claim_or_assert+0xa>
20004088:	f3bf 8f5f 	dmb	sy
2000408c:	2407      	movs	r4, #7
2000408e:	08cb      	lsrs	r3, r1, #3
20004090:	18c6      	adds	r6, r0, r3
20004092:	5cc0      	ldrb	r0, [r0, r3]
20004094:	2301      	movs	r3, #1
20004096:	400c      	ands	r4, r1
20004098:	40a3      	lsls	r3, r4
2000409a:	001c      	movs	r4, r3
2000409c:	4004      	ands	r4, r0
2000409e:	4203      	tst	r3, r0
200040a0:	d107      	bne.n	200040b2 <hw_claim_or_assert+0x3a>
200040a2:	4303      	orrs	r3, r0
200040a4:	7033      	strb	r3, [r6, #0]
200040a6:	f3bf 8f5f 	dmb	sy
200040aa:	602c      	str	r4, [r5, #0]
200040ac:	f38c 8810 	msr	PRIMASK, ip
200040b0:	bd70      	pop	{r4, r5, r6, pc}
200040b2:	0010      	movs	r0, r2
200040b4:	f001 f87c 	bl	200051b0 <panic>
200040b8:	d000012c 	.word	0xd000012c

200040bc <hw_claim_unused_from_range>:
200040bc:	b5f8      	push	{r3, r4, r5, r6, r7, lr}
200040be:	4647      	mov	r7, r8
200040c0:	46ce      	mov	lr, r9
200040c2:	4688      	mov	r8, r1
200040c4:	b580      	push	{r7, lr}
200040c6:	f3ef 8c10 	mrs	ip, PRIMASK
200040ca:	b672      	cpsid	i
200040cc:	4d21      	ldr	r5, [pc, #132]	; (20004154 <hw_claim_unused_from_range+0x98>)
200040ce:	682c      	ldr	r4, [r5, #0]
200040d0:	2c00      	cmp	r4, #0
200040d2:	d0fc      	beq.n	200040ce <hw_claim_unused_from_range+0x12>
200040d4:	f3bf 8f5f 	dmb	sy
200040d8:	429a      	cmp	r2, r3
200040da:	d82c      	bhi.n	20004136 <hw_claim_unused_from_range+0x7a>
200040dc:	08d4      	lsrs	r4, r2, #3
200040de:	2707      	movs	r7, #7
200040e0:	5d05      	ldrb	r5, [r0, r4]
200040e2:	1906      	adds	r6, r0, r4
200040e4:	2401      	movs	r4, #1
200040e6:	4017      	ands	r7, r2
200040e8:	40bc      	lsls	r4, r7
200040ea:	422c      	tst	r4, r5
200040ec:	d01f      	beq.n	2000412e <hw_claim_unused_from_range+0x72>
200040ee:	2107      	movs	r1, #7
200040f0:	2701      	movs	r7, #1
200040f2:	4689      	mov	r9, r1
200040f4:	e009      	b.n	2000410a <hw_claim_unused_from_range+0x4e>
200040f6:	08d4      	lsrs	r4, r2, #3
200040f8:	5d05      	ldrb	r5, [r0, r4]
200040fa:	1906      	adds	r6, r0, r4
200040fc:	464c      	mov	r4, r9
200040fe:	0039      	movs	r1, r7
20004100:	4014      	ands	r4, r2
20004102:	40a1      	lsls	r1, r4
20004104:	000c      	movs	r4, r1
20004106:	4229      	tst	r1, r5
20004108:	d011      	beq.n	2000412e <hw_claim_unused_from_range+0x72>
2000410a:	3201      	adds	r2, #1
2000410c:	4293      	cmp	r3, r2
2000410e:	d2f2      	bcs.n	200040f6 <hw_claim_unused_from_range+0x3a>
20004110:	2001      	movs	r0, #1
20004112:	4240      	negs	r0, r0
20004114:	f3bf 8f5f 	dmb	sy
20004118:	2200      	movs	r2, #0
2000411a:	4b0e      	ldr	r3, [pc, #56]	; (20004154 <hw_claim_unused_from_range+0x98>)
2000411c:	601a      	str	r2, [r3, #0]
2000411e:	f38c 8810 	msr	PRIMASK, ip
20004122:	2800      	cmp	r0, #0
20004124:	db0f      	blt.n	20004146 <hw_claim_unused_from_range+0x8a>
20004126:	bcc0      	pop	{r6, r7}
20004128:	46b9      	mov	r9, r7
2000412a:	46b0      	mov	r8, r6
2000412c:	bdf8      	pop	{r3, r4, r5, r6, r7, pc}
2000412e:	432c      	orrs	r4, r5
20004130:	0010      	movs	r0, r2
20004132:	7034      	strb	r4, [r6, #0]
20004134:	e7ee      	b.n	20004114 <hw_claim_unused_from_range+0x58>
20004136:	f3bf 8f5f 	dmb	sy
2000413a:	2300      	movs	r3, #0
2000413c:	602b      	str	r3, [r5, #0]
2000413e:	f38c 8810 	msr	PRIMASK, ip
20004142:	2001      	movs	r0, #1
20004144:	4240      	negs	r0, r0
20004146:	4643      	mov	r3, r8
20004148:	2b00      	cmp	r3, #0
2000414a:	d0ec      	beq.n	20004126 <hw_claim_unused_from_range+0x6a>
2000414c:	9808      	ldr	r0, [sp, #32]
2000414e:	f001 f82f 	bl	200051b0 <panic>
20004152:	46c0      	nop			; (mov r8, r8)
20004154:	d000012c 	.word	0xd000012c

20004158 <spin_locks_reset>:
20004158:	2100      	movs	r1, #0
2000415a:	4b04      	ldr	r3, [pc, #16]	; (2000416c <spin_locks_reset+0x14>)
2000415c:	4a04      	ldr	r2, [pc, #16]	; (20004170 <spin_locks_reset+0x18>)
2000415e:	f3bf 8f5f 	dmb	sy
20004162:	c302      	stmia	r3!, {r1}
20004164:	4293      	cmp	r3, r2
20004166:	d1fa      	bne.n	2000415e <spin_locks_reset+0x6>
20004168:	4770      	bx	lr
2000416a:	46c0      	nop			; (mov r8, r8)
2000416c:	d0000100 	.word	0xd0000100
20004170:	d0000180 	.word	0xd0000180

20004174 <next_striped_spin_lock_num>:
20004174:	4a04      	ldr	r2, [pc, #16]	; (20004188 <next_striped_spin_lock_num+0x14>)
20004176:	7810      	ldrb	r0, [r2, #0]
20004178:	1c43      	adds	r3, r0, #1
2000417a:	b2db      	uxtb	r3, r3
2000417c:	2b17      	cmp	r3, #23
2000417e:	d900      	bls.n	20004182 <next_striped_spin_lock_num+0xe>
20004180:	2310      	movs	r3, #16
20004182:	7013      	strb	r3, [r2, #0]
20004184:	4770      	bx	lr
20004186:	46c0      	nop			; (mov r8, r8)
20004188:	2000b4a4 	.word	0x2000b4a4

2000418c <spin_lock_claim_unused>:
2000418c:	b500      	push	{lr}
2000418e:	4b05      	ldr	r3, [pc, #20]	; (200041a4 <spin_lock_claim_unused+0x18>)
20004190:	b083      	sub	sp, #12
20004192:	0001      	movs	r1, r0
20004194:	9300      	str	r3, [sp, #0]
20004196:	2218      	movs	r2, #24
20004198:	231f      	movs	r3, #31
2000419a:	4803      	ldr	r0, [pc, #12]	; (200041a8 <spin_lock_claim_unused+0x1c>)
2000419c:	f7ff ff8e 	bl	200040bc <hw_claim_unused_from_range>
200041a0:	b003      	add	sp, #12
200041a2:	bd00      	pop	{pc}
200041a4:	2000b158 	.word	0x2000b158
200041a8:	20011060 	.word	0x20011060

200041ac <irq_set_enabled>:
200041ac:	2301      	movs	r3, #1
200041ae:	4083      	lsls	r3, r0
200041b0:	2900      	cmp	r1, #0
200041b2:	d004      	beq.n	200041be <irq_set_enabled+0x12>
200041b4:	4a03      	ldr	r2, [pc, #12]	; (200041c4 <irq_set_enabled+0x18>)
200041b6:	6013      	str	r3, [r2, #0]
200041b8:	4a03      	ldr	r2, [pc, #12]	; (200041c8 <irq_set_enabled+0x1c>)
200041ba:	6013      	str	r3, [r2, #0]
200041bc:	4770      	bx	lr
200041be:	4a03      	ldr	r2, [pc, #12]	; (200041cc <irq_set_enabled+0x20>)
200041c0:	6013      	str	r3, [r2, #0]
200041c2:	e7fb      	b.n	200041bc <irq_set_enabled+0x10>
200041c4:	e000e280 	.word	0xe000e280
200041c8:	e000e100 	.word	0xe000e100
200041cc:	e000e180 	.word	0xe000e180

200041d0 <irq_get_vtable_handler>:
200041d0:	4b02      	ldr	r3, [pc, #8]	; (200041dc <irq_get_vtable_handler+0xc>)
200041d2:	3010      	adds	r0, #16
200041d4:	689b      	ldr	r3, [r3, #8]
200041d6:	0080      	lsls	r0, r0, #2
200041d8:	58c0      	ldr	r0, [r0, r3]
200041da:	4770      	bx	lr
200041dc:	e000ed00 	.word	0xe000ed00

200041e0 <irq_set_exclusive_handler>:
200041e0:	b570      	push	{r4, r5, r6, lr}
200041e2:	000d      	movs	r5, r1
200041e4:	f3ef 8610 	mrs	r6, PRIMASK
200041e8:	b672      	cpsid	i
200041ea:	4a0f      	ldr	r2, [pc, #60]	; (20004228 <irq_set_exclusive_handler+0x48>)
200041ec:	6813      	ldr	r3, [r2, #0]
200041ee:	2b00      	cmp	r3, #0
200041f0:	d0fc      	beq.n	200041ec <irq_set_exclusive_handler+0xc>
200041f2:	f3bf 8f5f 	dmb	sy
200041f6:	4b0d      	ldr	r3, [pc, #52]	; (2000422c <irq_set_exclusive_handler+0x4c>)
200041f8:	3010      	adds	r0, #16
200041fa:	689b      	ldr	r3, [r3, #8]
200041fc:	0084      	lsls	r4, r0, #2
200041fe:	591b      	ldr	r3, [r3, r4]
20004200:	4a0b      	ldr	r2, [pc, #44]	; (20004230 <irq_set_exclusive_handler+0x50>)
20004202:	4293      	cmp	r3, r2
20004204:	d003      	beq.n	2000420e <irq_set_exclusive_handler+0x2e>
20004206:	429d      	cmp	r5, r3
20004208:	d001      	beq.n	2000420e <irq_set_exclusive_handler+0x2e>
2000420a:	f000 ffef 	bl	200051ec <hard_assertion_failure>
2000420e:	4b07      	ldr	r3, [pc, #28]	; (2000422c <irq_set_exclusive_handler+0x4c>)
20004210:	689b      	ldr	r3, [r3, #8]
20004212:	511d      	str	r5, [r3, r4]
20004214:	f3bf 8f5f 	dmb	sy
20004218:	f3bf 8f5f 	dmb	sy
2000421c:	2200      	movs	r2, #0
2000421e:	4b02      	ldr	r3, [pc, #8]	; (20004228 <irq_set_exclusive_handler+0x48>)
20004220:	601a      	str	r2, [r3, #0]
20004222:	f386 8810 	msr	PRIMASK, r6
20004226:	bd70      	pop	{r4, r5, r6, pc}
20004228:	d0000124 	.word	0xd0000124
2000422c:	e000ed00 	.word	0xe000ed00
20004230:	100001cd 	.word	0x100001cd

20004234 <irq_add_shared_handler>:
20004234:	b5f0      	push	{r4, r5, r6, r7, lr}
20004236:	4657      	mov	r7, sl
20004238:	464e      	mov	r6, r9
2000423a:	46de      	mov	lr, fp
2000423c:	4645      	mov	r5, r8
2000423e:	b5e0      	push	{r5, r6, r7, lr}
20004240:	b085      	sub	sp, #20
20004242:	0006      	movs	r6, r0
20004244:	9102      	str	r1, [sp, #8]
20004246:	0017      	movs	r7, r2
20004248:	f3ef 8b10 	mrs	fp, PRIMASK
2000424c:	b672      	cpsid	i
2000424e:	4a67      	ldr	r2, [pc, #412]	; (200043ec <irq_add_shared_handler+0x1b8>)
20004250:	6813      	ldr	r3, [r2, #0]
20004252:	2b00      	cmp	r3, #0
20004254:	d0fc      	beq.n	20004250 <irq_add_shared_handler+0x1c>
20004256:	f3bf 8f5f 	dmb	sy
2000425a:	2500      	movs	r5, #0
2000425c:	4b64      	ldr	r3, [pc, #400]	; (200043f0 <irq_add_shared_handler+0x1bc>)
2000425e:	575d      	ldrsb	r5, [r3, r5]
20004260:	469a      	mov	sl, r3
20004262:	2d00      	cmp	r5, #0
20004264:	da00      	bge.n	20004268 <irq_add_shared_handler+0x34>
20004266:	e0a4      	b.n	200043b2 <irq_add_shared_handler+0x17e>
20004268:	006b      	lsls	r3, r5, #1
2000426a:	4c62      	ldr	r4, [pc, #392]	; (200043f4 <irq_add_shared_handler+0x1c0>)
2000426c:	9303      	str	r3, [sp, #12]
2000426e:	195b      	adds	r3, r3, r5
20004270:	009b      	lsls	r3, r3, #2
20004272:	4698      	mov	r8, r3
20004274:	46a1      	mov	r9, r4
20004276:	44c1      	add	r9, r8
20004278:	464b      	mov	r3, r9
2000427a:	4652      	mov	r2, sl
2000427c:	799b      	ldrb	r3, [r3, #6]
2000427e:	3610      	adds	r6, #16
20004280:	7013      	strb	r3, [r2, #0]
20004282:	4b5d      	ldr	r3, [pc, #372]	; (200043f8 <irq_add_shared_handler+0x1c4>)
20004284:	00b2      	lsls	r2, r6, #2
20004286:	689b      	ldr	r3, [r3, #8]
20004288:	9201      	str	r2, [sp, #4]
2000428a:	5899      	ldr	r1, [r3, r2]
2000428c:	1b0b      	subs	r3, r1, r4
2000428e:	2b2f      	cmp	r3, #47	; 0x2f
20004290:	d934      	bls.n	200042fc <irq_add_shared_handler+0xc8>
20004292:	4b5a      	ldr	r3, [pc, #360]	; (200043fc <irq_add_shared_handler+0x1c8>)
20004294:	4299      	cmp	r1, r3
20004296:	d000      	beq.n	2000429a <irq_add_shared_handler+0x66>
20004298:	e0a4      	b.n	200043e4 <irq_add_shared_handler+0x1b0>
2000429a:	9b03      	ldr	r3, [sp, #12]
2000429c:	4a58      	ldr	r2, [pc, #352]	; (20004400 <irq_add_shared_handler+0x1cc>)
2000429e:	469c      	mov	ip, r3
200042a0:	4b58      	ldr	r3, [pc, #352]	; (20004404 <irq_add_shared_handler+0x1d0>)
200042a2:	4465      	add	r5, ip
200042a4:	00ad      	lsls	r5, r5, #2
200042a6:	5363      	strh	r3, [r4, r5]
200042a8:	4643      	mov	r3, r8
200042aa:	3302      	adds	r3, #2
200042ac:	1965      	adds	r5, r4, r5
200042ae:	18e4      	adds	r4, r4, r3
200042b0:	4b55      	ldr	r3, [pc, #340]	; (20004408 <irq_add_shared_handler+0x1d4>)
200042b2:	2101      	movs	r1, #1
200042b4:	3b04      	subs	r3, #4
200042b6:	1b1b      	subs	r3, r3, r4
200042b8:	051b      	lsls	r3, r3, #20
200042ba:	0d5b      	lsrs	r3, r3, #21
200042bc:	4313      	orrs	r3, r2
200042be:	806b      	strh	r3, [r5, #2]
200042c0:	4b52      	ldr	r3, [pc, #328]	; (2000440c <irq_add_shared_handler+0x1d8>)
200042c2:	71ef      	strb	r7, [r5, #7]
200042c4:	80ab      	strh	r3, [r5, #4]
200042c6:	23ff      	movs	r3, #255	; 0xff
200042c8:	71ab      	strb	r3, [r5, #6]
200042ca:	9b02      	ldr	r3, [sp, #8]
200042cc:	60ab      	str	r3, [r5, #8]
200042ce:	464b      	mov	r3, r9
200042d0:	430b      	orrs	r3, r1
200042d2:	0019      	movs	r1, r3
200042d4:	4b48      	ldr	r3, [pc, #288]	; (200043f8 <irq_add_shared_handler+0x1c4>)
200042d6:	9a01      	ldr	r2, [sp, #4]
200042d8:	689b      	ldr	r3, [r3, #8]
200042da:	5099      	str	r1, [r3, r2]
200042dc:	f3bf 8f5f 	dmb	sy
200042e0:	f3bf 8f5f 	dmb	sy
200042e4:	2200      	movs	r2, #0
200042e6:	4b41      	ldr	r3, [pc, #260]	; (200043ec <irq_add_shared_handler+0x1b8>)
200042e8:	601a      	str	r2, [r3, #0]
200042ea:	f38b 8810 	msr	PRIMASK, fp
200042ee:	b005      	add	sp, #20
200042f0:	bcf0      	pop	{r4, r5, r6, r7}
200042f2:	46bb      	mov	fp, r7
200042f4:	46b2      	mov	sl, r6
200042f6:	46a9      	mov	r9, r5
200042f8:	46a0      	mov	r8, r4
200042fa:	bdf0      	pop	{r4, r5, r6, r7, pc}
200042fc:	2001      	movs	r0, #1
200042fe:	000a      	movs	r2, r1
20004300:	4382      	bics	r2, r0
20004302:	79d3      	ldrb	r3, [r2, #7]
20004304:	42bb      	cmp	r3, r7
20004306:	d82f      	bhi.n	20004368 <irq_add_shared_handler+0x134>
20004308:	4645      	mov	r5, r8
2000430a:	464e      	mov	r6, r9
2000430c:	0013      	movs	r3, r2
2000430e:	4940      	ldr	r1, [pc, #256]	; (20004410 <irq_add_shared_handler+0x1dc>)
20004310:	1b1b      	subs	r3, r3, r4
20004312:	415b      	adcs	r3, r3
20004314:	4359      	muls	r1, r3
20004316:	0d09      	lsrs	r1, r1, #20
20004318:	4b3a      	ldr	r3, [pc, #232]	; (20004404 <irq_add_shared_handler+0x1d0>)
2000431a:	5363      	strh	r3, [r4, r5]
2000431c:	4b3a      	ldr	r3, [pc, #232]	; (20004408 <irq_add_shared_handler+0x1d4>)
2000431e:	3502      	adds	r5, #2
20004320:	1965      	adds	r5, r4, r5
20004322:	3b04      	subs	r3, #4
20004324:	1b5b      	subs	r3, r3, r5
20004326:	051b      	lsls	r3, r3, #20
20004328:	4d35      	ldr	r5, [pc, #212]	; (20004400 <irq_add_shared_handler+0x1cc>)
2000432a:	0d5b      	lsrs	r3, r3, #21
2000432c:	432b      	orrs	r3, r5
2000432e:	8073      	strh	r3, [r6, #2]
20004330:	2604      	movs	r6, #4
20004332:	46b4      	mov	ip, r6
20004334:	44e0      	add	r8, ip
20004336:	4444      	add	r4, r8
20004338:	1f13      	subs	r3, r2, #4
2000433a:	1b1b      	subs	r3, r3, r4
2000433c:	464c      	mov	r4, r9
2000433e:	71a1      	strb	r1, [r4, #6]
20004340:	9902      	ldr	r1, [sp, #8]
20004342:	051b      	lsls	r3, r3, #20
20004344:	60a1      	str	r1, [r4, #8]
20004346:	4649      	mov	r1, r9
20004348:	0d5b      	lsrs	r3, r3, #21
2000434a:	432b      	orrs	r3, r5
2000434c:	80a3      	strh	r3, [r4, #4]
2000434e:	4b31      	ldr	r3, [pc, #196]	; (20004414 <irq_add_shared_handler+0x1e0>)
20004350:	71e7      	strb	r7, [r4, #7]
20004352:	4301      	orrs	r1, r0
20004354:	6013      	str	r3, [r2, #0]
20004356:	e7bd      	b.n	200042d4 <irq_add_shared_handler+0xa0>
20004358:	0058      	lsls	r0, r3, #1
2000435a:	18c0      	adds	r0, r0, r3
2000435c:	0080      	lsls	r0, r0, #2
2000435e:	1820      	adds	r0, r4, r0
20004360:	79c6      	ldrb	r6, [r0, #7]
20004362:	42be      	cmp	r6, r7
20004364:	d92b      	bls.n	200043be <irq_add_shared_handler+0x18a>
20004366:	0002      	movs	r2, r0
20004368:	2306      	movs	r3, #6
2000436a:	56d3      	ldrsb	r3, [r2, r3]
2000436c:	2b00      	cmp	r3, #0
2000436e:	daf3      	bge.n	20004358 <irq_add_shared_handler+0x124>
20004370:	1d10      	adds	r0, r2, #4
20004372:	4682      	mov	sl, r0
20004374:	4828      	ldr	r0, [pc, #160]	; (20004418 <irq_add_shared_handler+0x1e4>)
20004376:	4680      	mov	r8, r0
20004378:	2604      	movs	r6, #4
2000437a:	4276      	negs	r6, r6
2000437c:	46b4      	mov	ip, r6
2000437e:	44e1      	add	r9, ip
20004380:	4650      	mov	r0, sl
20004382:	464e      	mov	r6, r9
20004384:	1a36      	subs	r6, r6, r0
20004386:	0530      	lsls	r0, r6, #20
20004388:	0d40      	lsrs	r0, r0, #21
2000438a:	4682      	mov	sl, r0
2000438c:	4656      	mov	r6, sl
2000438e:	481c      	ldr	r0, [pc, #112]	; (20004400 <irq_add_shared_handler+0x1cc>)
20004390:	7195      	strb	r5, [r2, #6]
20004392:	4306      	orrs	r6, r0
20004394:	8096      	strh	r6, [r2, #4]
20004396:	9a03      	ldr	r2, [sp, #12]
20004398:	4694      	mov	ip, r2
2000439a:	4465      	add	r5, ip
2000439c:	4a1d      	ldr	r2, [pc, #116]	; (20004414 <irq_add_shared_handler+0x1e0>)
2000439e:	00ad      	lsls	r5, r5, #2
200043a0:	1964      	adds	r4, r4, r5
200043a2:	6022      	str	r2, [r4, #0]
200043a4:	4642      	mov	r2, r8
200043a6:	71a3      	strb	r3, [r4, #6]
200043a8:	9b02      	ldr	r3, [sp, #8]
200043aa:	80a2      	strh	r2, [r4, #4]
200043ac:	71e7      	strb	r7, [r4, #7]
200043ae:	60a3      	str	r3, [r4, #8]
200043b0:	e790      	b.n	200042d4 <irq_add_shared_handler+0xa0>
200043b2:	f000 ff1b 	bl	200051ec <hard_assertion_failure>
200043b6:	2500      	movs	r5, #0
200043b8:	4653      	mov	r3, sl
200043ba:	575d      	ldrsb	r5, [r3, r5]
200043bc:	e754      	b.n	20004268 <irq_add_shared_handler+0x34>
200043be:	1d10      	adds	r0, r2, #4
200043c0:	4682      	mov	sl, r0
200043c2:	8890      	ldrh	r0, [r2, #4]
200043c4:	0540      	lsls	r0, r0, #21
200043c6:	1500      	asrs	r0, r0, #20
200043c8:	4684      	mov	ip, r0
200043ca:	4640      	mov	r0, r8
200043cc:	44d4      	add	ip, sl
200043ce:	4666      	mov	r6, ip
200043d0:	3004      	adds	r0, #4
200043d2:	1820      	adds	r0, r4, r0
200043d4:	1a30      	subs	r0, r6, r0
200043d6:	26e0      	movs	r6, #224	; 0xe0
200043d8:	0500      	lsls	r0, r0, #20
200043da:	0d40      	lsrs	r0, r0, #21
200043dc:	0236      	lsls	r6, r6, #8
200043de:	4330      	orrs	r0, r6
200043e0:	4680      	mov	r8, r0
200043e2:	e7c9      	b.n	20004378 <irq_add_shared_handler+0x144>
200043e4:	f000 ff02 	bl	200051ec <hard_assertion_failure>
200043e8:	e757      	b.n	2000429a <irq_add_shared_handler+0x66>
200043ea:	46c0      	nop			; (mov r8, r8)
200043ec:	d0000124 	.word	0xd0000124
200043f0:	200218cb 	.word	0x200218cb
200043f4:	2000b4a8 	.word	0x2000b4a8
200043f8:	e000ed00 	.word	0xe000ed00
200043fc:	100001cd 	.word	0x100001cd
20004400:	ffffe000 	.word	0xffffe000
20004404:	ffffa100 	.word	0xffffa100
20004408:	2000b4d8 	.word	0x2000b4d8
2000440c:	ffffbd01 	.word	0xffffbd01
20004410:	0000aaaa 	.word	0x0000aaaa
20004414:	47804801 	.word	0x47804801
20004418:	0000bd01 	.word	0x0000bd01

2000441c <irq_remove_handler>:
2000441c:	b5f0      	push	{r4, r5, r6, r7, lr}
2000441e:	46de      	mov	lr, fp
20004420:	4657      	mov	r7, sl
20004422:	464e      	mov	r6, r9
20004424:	4645      	mov	r5, r8
20004426:	b5e0      	push	{r5, r6, r7, lr}
20004428:	000c      	movs	r4, r1
2000442a:	b083      	sub	sp, #12
2000442c:	f3ef 8910 	mrs	r9, PRIMASK
20004430:	b672      	cpsid	i
20004432:	4a58      	ldr	r2, [pc, #352]	; (20004594 <irq_remove_handler+0x178>)
20004434:	6813      	ldr	r3, [r2, #0]
20004436:	2b00      	cmp	r3, #0
20004438:	d0fc      	beq.n	20004434 <irq_remove_handler+0x18>
2000443a:	f3bf 8f5f 	dmb	sy
2000443e:	4b56      	ldr	r3, [pc, #344]	; (20004598 <irq_remove_handler+0x17c>)
20004440:	689a      	ldr	r2, [r3, #8]
20004442:	0003      	movs	r3, r0
20004444:	3310      	adds	r3, #16
20004446:	009f      	lsls	r7, r3, #2
20004448:	59d5      	ldr	r5, [r2, r7]
2000444a:	4a54      	ldr	r2, [pc, #336]	; (2000459c <irq_remove_handler+0x180>)
2000444c:	4690      	mov	r8, r2
2000444e:	4295      	cmp	r5, r2
20004450:	d032      	beq.n	200044b8 <irq_remove_handler+0x9c>
20004452:	42a5      	cmp	r5, r4
20004454:	d043      	beq.n	200044de <irq_remove_handler+0xc2>
20004456:	4e52      	ldr	r6, [pc, #328]	; (200045a0 <irq_remove_handler+0x184>)
20004458:	1baa      	subs	r2, r5, r6
2000445a:	2a2f      	cmp	r2, #47	; 0x2f
2000445c:	d82c      	bhi.n	200044b8 <irq_remove_handler+0x9c>
2000445e:	2201      	movs	r2, #1
20004460:	4082      	lsls	r2, r0
20004462:	4692      	mov	sl, r2
20004464:	4651      	mov	r1, sl
20004466:	4a4f      	ldr	r2, [pc, #316]	; (200045a4 <irq_remove_handler+0x188>)
20004468:	6812      	ldr	r2, [r2, #0]
2000446a:	4011      	ands	r1, r2
2000446c:	9101      	str	r1, [sp, #4]
2000446e:	4651      	mov	r1, sl
20004470:	4a4d      	ldr	r2, [pc, #308]	; (200045a8 <irq_remove_handler+0x18c>)
20004472:	6011      	str	r1, [r2, #0]
20004474:	f3bf 8f5f 	dmb	sy
20004478:	f3ef 8205 	mrs	r2, IPSR
2000447c:	4693      	mov	fp, r2
2000447e:	2a00      	cmp	r2, #0
20004480:	d133      	bne.n	200044ea <irq_remove_handler+0xce>
20004482:	2301      	movs	r3, #1
20004484:	002a      	movs	r2, r5
20004486:	439a      	bics	r2, r3
20004488:	6893      	ldr	r3, [r2, #8]
2000448a:	429c      	cmp	r4, r3
2000448c:	d108      	bne.n	200044a0 <irq_remove_handler+0x84>
2000448e:	e077      	b.n	20004580 <irq_remove_handler+0x164>
20004490:	004b      	lsls	r3, r1, #1
20004492:	185b      	adds	r3, r3, r1
20004494:	009b      	lsls	r3, r3, #2
20004496:	18f3      	adds	r3, r6, r3
20004498:	6899      	ldr	r1, [r3, #8]
2000449a:	42a1      	cmp	r1, r4
2000449c:	d02a      	beq.n	200044f4 <irq_remove_handler+0xd8>
2000449e:	001a      	movs	r2, r3
200044a0:	2106      	movs	r1, #6
200044a2:	5651      	ldrsb	r1, [r2, r1]
200044a4:	2900      	cmp	r1, #0
200044a6:	daf3      	bge.n	20004490 <irq_remove_handler+0x74>
200044a8:	9b01      	ldr	r3, [sp, #4]
200044aa:	2b00      	cmp	r3, #0
200044ac:	d019      	beq.n	200044e2 <irq_remove_handler+0xc6>
200044ae:	4652      	mov	r2, sl
200044b0:	4b3e      	ldr	r3, [pc, #248]	; (200045ac <irq_remove_handler+0x190>)
200044b2:	601a      	str	r2, [r3, #0]
200044b4:	4b3b      	ldr	r3, [pc, #236]	; (200045a4 <irq_remove_handler+0x188>)
200044b6:	601a      	str	r2, [r3, #0]
200044b8:	4b37      	ldr	r3, [pc, #220]	; (20004598 <irq_remove_handler+0x17c>)
200044ba:	689b      	ldr	r3, [r3, #8]
200044bc:	51dd      	str	r5, [r3, r7]
200044be:	f3bf 8f5f 	dmb	sy
200044c2:	f3bf 8f5f 	dmb	sy
200044c6:	2200      	movs	r2, #0
200044c8:	4b32      	ldr	r3, [pc, #200]	; (20004594 <irq_remove_handler+0x178>)
200044ca:	601a      	str	r2, [r3, #0]
200044cc:	f389 8810 	msr	PRIMASK, r9
200044d0:	b003      	add	sp, #12
200044d2:	bcf0      	pop	{r4, r5, r6, r7}
200044d4:	46bb      	mov	fp, r7
200044d6:	46b2      	mov	sl, r6
200044d8:	46a9      	mov	r9, r5
200044da:	46a0      	mov	r8, r4
200044dc:	bdf0      	pop	{r4, r5, r6, r7, pc}
200044de:	0015      	movs	r5, r2
200044e0:	e7ea      	b.n	200044b8 <irq_remove_handler+0x9c>
200044e2:	4652      	mov	r2, sl
200044e4:	4b30      	ldr	r3, [pc, #192]	; (200045a8 <irq_remove_handler+0x18c>)
200044e6:	601a      	str	r2, [r3, #0]
200044e8:	e7e6      	b.n	200044b8 <irq_remove_handler+0x9c>
200044ea:	4293      	cmp	r3, r2
200044ec:	d0c9      	beq.n	20004482 <irq_remove_handler+0x66>
200044ee:	f000 fe7d 	bl	200051ec <hard_assertion_failure>
200044f2:	e7c6      	b.n	20004482 <irq_remove_handler+0x66>
200044f4:	2106      	movs	r1, #6
200044f6:	5659      	ldrsb	r1, [r3, r1]
200044f8:	2900      	cmp	r1, #0
200044fa:	db21      	blt.n	20004540 <irq_remove_handler+0x124>
200044fc:	004a      	lsls	r2, r1, #1
200044fe:	1850      	adds	r0, r2, r1
20004500:	0080      	lsls	r0, r0, #2
20004502:	1834      	adds	r4, r6, r0
20004504:	4680      	mov	r8, r0
20004506:	68a0      	ldr	r0, [r4, #8]
20004508:	6098      	str	r0, [r3, #8]
2000450a:	79e0      	ldrb	r0, [r4, #7]
2000450c:	71d8      	strb	r0, [r3, #7]
2000450e:	2006      	movs	r0, #6
20004510:	5620      	ldrsb	r0, [r4, r0]
20004512:	7198      	strb	r0, [r3, #6]
20004514:	2800      	cmp	r0, #0
20004516:	db24      	blt.n	20004562 <irq_remove_handler+0x146>
20004518:	88a4      	ldrh	r4, [r4, #4]
2000451a:	1af0      	subs	r0, r6, r3
2000451c:	0564      	lsls	r4, r4, #21
2000451e:	1524      	asrs	r4, r4, #20
20004520:	4444      	add	r4, r8
20004522:	1900      	adds	r0, r0, r4
20004524:	24e0      	movs	r4, #224	; 0xe0
20004526:	0500      	lsls	r0, r0, #20
20004528:	0d40      	lsrs	r0, r0, #21
2000452a:	0224      	lsls	r4, r4, #8
2000452c:	4320      	orrs	r0, r4
2000452e:	8098      	strh	r0, [r3, #4]
20004530:	1852      	adds	r2, r2, r1
20004532:	4b1f      	ldr	r3, [pc, #124]	; (200045b0 <irq_remove_handler+0x194>)
20004534:	0092      	lsls	r2, r2, #2
20004536:	18b6      	adds	r6, r6, r2
20004538:	781a      	ldrb	r2, [r3, #0]
2000453a:	7019      	strb	r1, [r3, #0]
2000453c:	71b2      	strb	r2, [r6, #6]
2000453e:	e7b3      	b.n	200044a8 <irq_remove_handler+0x8c>
20004540:	4659      	mov	r1, fp
20004542:	2900      	cmp	r1, #0
20004544:	d10f      	bne.n	20004566 <irq_remove_handler+0x14a>
20004546:	31ff      	adds	r1, #255	; 0xff
20004548:	7191      	strb	r1, [r2, #6]
2000454a:	491a      	ldr	r1, [pc, #104]	; (200045b4 <irq_remove_handler+0x198>)
2000454c:	8091      	strh	r1, [r2, #4]
2000454e:	4918      	ldr	r1, [pc, #96]	; (200045b0 <irq_remove_handler+0x194>)
20004550:	780a      	ldrb	r2, [r1, #0]
20004552:	719a      	strb	r2, [r3, #6]
20004554:	4a18      	ldr	r2, [pc, #96]	; (200045b8 <irq_remove_handler+0x19c>)
20004556:	1b9b      	subs	r3, r3, r6
20004558:	415b      	adcs	r3, r3
2000455a:	435a      	muls	r2, r3
2000455c:	0d12      	lsrs	r2, r2, #20
2000455e:	700a      	strb	r2, [r1, #0]
20004560:	e7a2      	b.n	200044a8 <irq_remove_handler+0x8c>
20004562:	4816      	ldr	r0, [pc, #88]	; (200045bc <irq_remove_handler+0x1a0>)
20004564:	e7e3      	b.n	2000452e <irq_remove_handler+0x112>
20004566:	4a16      	ldr	r2, [pc, #88]	; (200045c0 <irq_remove_handler+0x1a4>)
20004568:	4916      	ldr	r1, [pc, #88]	; (200045c4 <irq_remove_handler+0x1a8>)
2000456a:	1ad2      	subs	r2, r2, r3
2000456c:	3a08      	subs	r2, #8
2000456e:	0250      	lsls	r0, r2, #9
20004570:	0d40      	lsrs	r0, r0, #21
20004572:	4301      	orrs	r1, r0
20004574:	8099      	strh	r1, [r3, #4]
20004576:	4914      	ldr	r1, [pc, #80]	; (200045c8 <irq_remove_handler+0x1ac>)
20004578:	0852      	lsrs	r2, r2, #1
2000457a:	430a      	orrs	r2, r1
2000457c:	80da      	strh	r2, [r3, #6]
2000457e:	e793      	b.n	200044a8 <irq_remove_handler+0x8c>
20004580:	2106      	movs	r1, #6
20004582:	5651      	ldrsb	r1, [r2, r1]
20004584:	0013      	movs	r3, r2
20004586:	2900      	cmp	r1, #0
20004588:	dab8      	bge.n	200044fc <irq_remove_handler+0xe0>
2000458a:	465a      	mov	r2, fp
2000458c:	2a00      	cmp	r2, #0
2000458e:	d1ea      	bne.n	20004566 <irq_remove_handler+0x14a>
20004590:	4645      	mov	r5, r8
20004592:	e7dc      	b.n	2000454e <irq_remove_handler+0x132>
20004594:	d0000124 	.word	0xd0000124
20004598:	e000ed00 	.word	0xe000ed00
2000459c:	100001cd 	.word	0x100001cd
200045a0:	2000b4a8 	.word	0x2000b4a8
200045a4:	e000e100 	.word	0xe000e100
200045a8:	e000e180 	.word	0xe000e180
200045ac:	e000e280 	.word	0xe000e280
200045b0:	200218cb 	.word	0x200218cb
200045b4:	ffffbd01 	.word	0xffffbd01
200045b8:	0000aaaa 	.word	0x0000aaaa
200045bc:	0000bd01 	.word	0x0000bd01
200045c0:	2000b4e2 	.word	0x2000b4e2
200045c4:	fffff000 	.word	0xfffff000
200045c8:	fffff800 	.word	0xfffff800

200045cc <irq_set_priority>:
200045cc:	2303      	movs	r3, #3
200045ce:	b510      	push	{r4, lr}
200045d0:	0004      	movs	r4, r0
200045d2:	4a07      	ldr	r2, [pc, #28]	; (200045f0 <irq_set_priority+0x24>)
200045d4:	4018      	ands	r0, r3
200045d6:	4694      	mov	ip, r2
200045d8:	00c0      	lsls	r0, r0, #3
200045da:	439c      	bics	r4, r3
200045dc:	33fc      	adds	r3, #252	; 0xfc
200045de:	4083      	lsls	r3, r0
200045e0:	4464      	add	r4, ip
200045e2:	6822      	ldr	r2, [r4, #0]
200045e4:	4081      	lsls	r1, r0
200045e6:	439a      	bics	r2, r3
200045e8:	0013      	movs	r3, r2
200045ea:	430b      	orrs	r3, r1
200045ec:	6023      	str	r3, [r4, #0]
200045ee:	bd10      	pop	{r4, pc}
200045f0:	e000e400 	.word	0xe000e400

200045f4 <irq_add_tail_to_free_list>:
200045f4:	b570      	push	{r4, r5, r6, lr}
200045f6:	f3ef 8105 	mrs	r1, IPSR
200045fa:	2401      	movs	r4, #1
200045fc:	4304      	orrs	r4, r0
200045fe:	f3ef 8c10 	mrs	ip, PRIMASK
20004602:	b672      	cpsid	i
20004604:	4a21      	ldr	r2, [pc, #132]	; (2000468c <irq_add_tail_to_free_list+0x98>)
20004606:	6813      	ldr	r3, [r2, #0]
20004608:	2b00      	cmp	r3, #0
2000460a:	d0fc      	beq.n	20004606 <irq_add_tail_to_free_list+0x12>
2000460c:	f3bf 8f5f 	dmb	sy
20004610:	4b1f      	ldr	r3, [pc, #124]	; (20004690 <irq_add_tail_to_free_list+0x9c>)
20004612:	0005      	movs	r5, r0
20004614:	4a1f      	ldr	r2, [pc, #124]	; (20004694 <irq_add_tail_to_free_list+0xa0>)
20004616:	1aed      	subs	r5, r5, r3
20004618:	416d      	adcs	r5, r5
2000461a:	436a      	muls	r2, r5
2000461c:	0d12      	lsrs	r2, r2, #20
2000461e:	4d1e      	ldr	r5, [pc, #120]	; (20004698 <irq_add_tail_to_free_list+0xa4>)
20004620:	0089      	lsls	r1, r1, #2
20004622:	68ae      	ldr	r6, [r5, #8]
20004624:	b252      	sxtb	r2, r2
20004626:	5876      	ldr	r6, [r6, r1]
20004628:	42a6      	cmp	r6, r4
2000462a:	d01c      	beq.n	20004666 <irq_add_tail_to_free_list+0x72>
2000462c:	2106      	movs	r1, #6
2000462e:	5659      	ldrsb	r1, [r3, r1]
20004630:	4291      	cmp	r1, r2
20004632:	d01c      	beq.n	2000466e <irq_add_tail_to_free_list+0x7a>
20004634:	2112      	movs	r1, #18
20004636:	5659      	ldrsb	r1, [r3, r1]
20004638:	4291      	cmp	r1, r2
2000463a:	d022      	beq.n	20004682 <irq_add_tail_to_free_list+0x8e>
2000463c:	211e      	movs	r1, #30
2000463e:	5659      	ldrsb	r1, [r3, r1]
20004640:	4291      	cmp	r1, r2
20004642:	d020      	beq.n	20004686 <irq_add_tail_to_free_list+0x92>
20004644:	212a      	movs	r1, #42	; 0x2a
20004646:	5659      	ldrsb	r1, [r3, r1]
20004648:	2403      	movs	r4, #3
2000464a:	4291      	cmp	r1, r2
2000464c:	d010      	beq.n	20004670 <irq_add_tail_to_free_list+0x7c>
2000464e:	4b13      	ldr	r3, [pc, #76]	; (2000469c <irq_add_tail_to_free_list+0xa8>)
20004650:	7819      	ldrb	r1, [r3, #0]
20004652:	701a      	strb	r2, [r3, #0]
20004654:	7181      	strb	r1, [r0, #6]
20004656:	f3bf 8f5f 	dmb	sy
2000465a:	2200      	movs	r2, #0
2000465c:	4b0b      	ldr	r3, [pc, #44]	; (2000468c <irq_add_tail_to_free_list+0x98>)
2000465e:	601a      	str	r2, [r3, #0]
20004660:	f38c 8810 	msr	PRIMASK, ip
20004664:	bd70      	pop	{r4, r5, r6, pc}
20004666:	68ab      	ldr	r3, [r5, #8]
20004668:	4c0d      	ldr	r4, [pc, #52]	; (200046a0 <irq_add_tail_to_free_list+0xac>)
2000466a:	505c      	str	r4, [r3, r1]
2000466c:	e7ef      	b.n	2000464e <irq_add_tail_to_free_list+0x5a>
2000466e:	2400      	movs	r4, #0
20004670:	0061      	lsls	r1, r4, #1
20004672:	1909      	adds	r1, r1, r4
20004674:	0089      	lsls	r1, r1, #2
20004676:	185b      	adds	r3, r3, r1
20004678:	21ff      	movs	r1, #255	; 0xff
2000467a:	7199      	strb	r1, [r3, #6]
2000467c:	4909      	ldr	r1, [pc, #36]	; (200046a4 <irq_add_tail_to_free_list+0xb0>)
2000467e:	8099      	strh	r1, [r3, #4]
20004680:	e7e5      	b.n	2000464e <irq_add_tail_to_free_list+0x5a>
20004682:	2401      	movs	r4, #1
20004684:	e7f4      	b.n	20004670 <irq_add_tail_to_free_list+0x7c>
20004686:	2402      	movs	r4, #2
20004688:	e7f2      	b.n	20004670 <irq_add_tail_to_free_list+0x7c>
2000468a:	46c0      	nop			; (mov r8, r8)
2000468c:	d0000124 	.word	0xd0000124
20004690:	2000b4a8 	.word	0x2000b4a8
20004694:	0000aaaa 	.word	0x0000aaaa
20004698:	e000ed00 	.word	0xe000ed00
2000469c:	200218cb 	.word	0x200218cb
200046a0:	100001cd 	.word	0x100001cd
200046a4:	ffffbd01 	.word	0xffffbd01

200046a8 <irq_init_priorities>:
200046a8:	4b05      	ldr	r3, [pc, #20]	; (200046c0 <irq_init_priorities+0x18>)
200046aa:	4a06      	ldr	r2, [pc, #24]	; (200046c4 <irq_init_priorities+0x1c>)
200046ac:	6013      	str	r3, [r2, #0]
200046ae:	4a06      	ldr	r2, [pc, #24]	; (200046c8 <irq_init_priorities+0x20>)
200046b0:	6013      	str	r3, [r2, #0]
200046b2:	6053      	str	r3, [r2, #4]
200046b4:	6093      	str	r3, [r2, #8]
200046b6:	60d3      	str	r3, [r2, #12]
200046b8:	6113      	str	r3, [r2, #16]
200046ba:	6153      	str	r3, [r2, #20]
200046bc:	6193      	str	r3, [r2, #24]
200046be:	4770      	bx	lr
200046c0:	80808080 	.word	0x80808080
200046c4:	e000e400 	.word	0xe000e400
200046c8:	e000e404 	.word	0xe000e404

200046cc <ph_merge_nodes>:
200046cc:	b570      	push	{r4, r5, r6, lr}
200046ce:	0005      	movs	r5, r0
200046d0:	0014      	movs	r4, r2
200046d2:	0016      	movs	r6, r2
200046d4:	2900      	cmp	r1, #0
200046d6:	d015      	beq.n	20004704 <ph_merge_nodes+0x38>
200046d8:	000c      	movs	r4, r1
200046da:	2a00      	cmp	r2, #0
200046dc:	d012      	beq.n	20004704 <ph_merge_nodes+0x38>
200046de:	6880      	ldr	r0, [r0, #8]
200046e0:	686b      	ldr	r3, [r5, #4]
200046e2:	4798      	blx	r3
200046e4:	6829      	ldr	r1, [r5, #0]
200046e6:	2800      	cmp	r0, #0
200046e8:	d00e      	beq.n	20004708 <ph_merge_nodes+0x3c>
200046ea:	0073      	lsls	r3, r6, #1
200046ec:	199b      	adds	r3, r3, r6
200046ee:	0062      	lsls	r2, r4, #1
200046f0:	3b03      	subs	r3, #3
200046f2:	1912      	adds	r2, r2, r4
200046f4:	18cb      	adds	r3, r1, r3
200046f6:	3a03      	subs	r2, #3
200046f8:	709c      	strb	r4, [r3, #2]
200046fa:	1888      	adds	r0, r1, r2
200046fc:	5c8a      	ldrb	r2, [r1, r2]
200046fe:	2a00      	cmp	r2, #0
20004700:	d115      	bne.n	2000472e <ph_merge_nodes+0x62>
20004702:	7006      	strb	r6, [r0, #0]
20004704:	0020      	movs	r0, r4
20004706:	bd70      	pop	{r4, r5, r6, pc}
20004708:	0063      	lsls	r3, r4, #1
2000470a:	191b      	adds	r3, r3, r4
2000470c:	0072      	lsls	r2, r6, #1
2000470e:	3b03      	subs	r3, #3
20004710:	1992      	adds	r2, r2, r6
20004712:	18cb      	adds	r3, r1, r3
20004714:	3a03      	subs	r2, #3
20004716:	709e      	strb	r6, [r3, #2]
20004718:	1888      	adds	r0, r1, r2
2000471a:	5c8a      	ldrb	r2, [r1, r2]
2000471c:	2a00      	cmp	r2, #0
2000471e:	d102      	bne.n	20004726 <ph_merge_nodes+0x5a>
20004720:	7004      	strb	r4, [r0, #0]
20004722:	0034      	movs	r4, r6
20004724:	e7ee      	b.n	20004704 <ph_merge_nodes+0x38>
20004726:	705a      	strb	r2, [r3, #1]
20004728:	7004      	strb	r4, [r0, #0]
2000472a:	0034      	movs	r4, r6
2000472c:	e7ea      	b.n	20004704 <ph_merge_nodes+0x38>
2000472e:	705a      	strb	r2, [r3, #1]
20004730:	7006      	strb	r6, [r0, #0]
20004732:	e7e7      	b.n	20004704 <ph_merge_nodes+0x38>

20004734 <ph_post_alloc_init>:
20004734:	b530      	push	{r4, r5, lr}
20004736:	6083      	str	r3, [r0, #8]
20004738:	2300      	movs	r3, #0
2000473a:	b2cc      	uxtb	r4, r1
2000473c:	7343      	strb	r3, [r0, #13]
2000473e:	3301      	adds	r3, #1
20004740:	7304      	strb	r4, [r0, #12]
20004742:	6042      	str	r2, [r0, #4]
20004744:	7383      	strb	r3, [r0, #14]
20004746:	73c4      	strb	r4, [r0, #15]
20004748:	000d      	movs	r5, r1
2000474a:	6800      	ldr	r0, [r0, #0]
2000474c:	2c01      	cmp	r4, #1
2000474e:	d906      	bls.n	2000475e <ph_post_alloc_init+0x2a>
20004750:	1c42      	adds	r2, r0, #1
20004752:	3301      	adds	r3, #1
20004754:	b2db      	uxtb	r3, r3
20004756:	7013      	strb	r3, [r2, #0]
20004758:	3203      	adds	r2, #3
2000475a:	429c      	cmp	r4, r3
2000475c:	d1f9      	bne.n	20004752 <ph_post_alloc_init+0x1e>
2000475e:	21ff      	movs	r1, #255	; 0xff
20004760:	4029      	ands	r1, r5
20004762:	004b      	lsls	r3, r1, #1
20004764:	1859      	adds	r1, r3, r1
20004766:	2300      	movs	r3, #0
20004768:	1840      	adds	r0, r0, r1
2000476a:	3803      	subs	r0, #3
2000476c:	7043      	strb	r3, [r0, #1]
2000476e:	bd30      	pop	{r4, r5, pc}

20004770 <ph_merge_two_pass>:
20004770:	b5f8      	push	{r3, r4, r5, r6, r7, lr}
20004772:	46ce      	mov	lr, r9
20004774:	4647      	mov	r7, r8
20004776:	0006      	movs	r6, r0
20004778:	000c      	movs	r4, r1
2000477a:	b580      	push	{r7, lr}
2000477c:	2900      	cmp	r1, #0
2000477e:	d007      	beq.n	20004790 <ph_merge_two_pass+0x20>
20004780:	004d      	lsls	r5, r1, #1
20004782:	6803      	ldr	r3, [r0, #0]
20004784:	186d      	adds	r5, r5, r1
20004786:	3d03      	subs	r5, #3
20004788:	195a      	adds	r2, r3, r5
2000478a:	7857      	ldrb	r7, [r2, #1]
2000478c:	2f00      	cmp	r7, #0
2000478e:	d104      	bne.n	2000479a <ph_merge_two_pass+0x2a>
20004790:	0020      	movs	r0, r4
20004792:	bcc0      	pop	{r6, r7}
20004794:	46b9      	mov	r9, r7
20004796:	46b0      	mov	r8, r6
20004798:	bdf8      	pop	{r3, r4, r5, r6, r7, pc}
2000479a:	0079      	lsls	r1, r7, #1
2000479c:	19c9      	adds	r1, r1, r7
2000479e:	3903      	subs	r1, #3
200047a0:	4688      	mov	r8, r1
200047a2:	4443      	add	r3, r8
200047a4:	7859      	ldrb	r1, [r3, #1]
200047a6:	4689      	mov	r9, r1
200047a8:	2100      	movs	r1, #0
200047aa:	7059      	strb	r1, [r3, #1]
200047ac:	7051      	strb	r1, [r2, #1]
200047ae:	6873      	ldr	r3, [r6, #4]
200047b0:	003a      	movs	r2, r7
200047b2:	0021      	movs	r1, r4
200047b4:	6880      	ldr	r0, [r0, #8]
200047b6:	4798      	blx	r3
200047b8:	6833      	ldr	r3, [r6, #0]
200047ba:	2800      	cmp	r0, #0
200047bc:	d014      	beq.n	200047e8 <ph_merge_two_pass+0x78>
200047be:	4642      	mov	r2, r8
200047c0:	189a      	adds	r2, r3, r2
200047c2:	7094      	strb	r4, [r2, #2]
200047c4:	1959      	adds	r1, r3, r5
200047c6:	5d5b      	ldrb	r3, [r3, r5]
200047c8:	2b00      	cmp	r3, #0
200047ca:	d000      	beq.n	200047ce <ph_merge_two_pass+0x5e>
200047cc:	7053      	strb	r3, [r2, #1]
200047ce:	700f      	strb	r7, [r1, #0]
200047d0:	0027      	movs	r7, r4
200047d2:	4649      	mov	r1, r9
200047d4:	0030      	movs	r0, r6
200047d6:	f7ff ffcb 	bl	20004770 <ph_merge_two_pass>
200047da:	0039      	movs	r1, r7
200047dc:	0002      	movs	r2, r0
200047de:	0030      	movs	r0, r6
200047e0:	f7ff ff74 	bl	200046cc <ph_merge_nodes>
200047e4:	0004      	movs	r4, r0
200047e6:	e7d3      	b.n	20004790 <ph_merge_two_pass+0x20>
200047e8:	4642      	mov	r2, r8
200047ea:	4641      	mov	r1, r8
200047ec:	195d      	adds	r5, r3, r5
200047ee:	70af      	strb	r7, [r5, #2]
200047f0:	189a      	adds	r2, r3, r2
200047f2:	5c5b      	ldrb	r3, [r3, r1]
200047f4:	2b00      	cmp	r3, #0
200047f6:	d000      	beq.n	200047fa <ph_merge_two_pass+0x8a>
200047f8:	706b      	strb	r3, [r5, #1]
200047fa:	7014      	strb	r4, [r2, #0]
200047fc:	e7e9      	b.n	200047d2 <ph_merge_two_pass+0x62>
200047fe:	46c0      	nop			; (mov r8, r8)

20004800 <ph_remove_any_head>:
20004800:	b5f0      	push	{r4, r5, r6, r7, lr}
20004802:	4657      	mov	r7, sl
20004804:	4645      	mov	r5, r8
20004806:	46de      	mov	lr, fp
20004808:	464e      	mov	r6, r9
2000480a:	b5e0      	push	{r5, r6, r7, lr}
2000480c:	000d      	movs	r5, r1
2000480e:	006b      	lsls	r3, r5, #1
20004810:	6801      	ldr	r1, [r0, #0]
20004812:	195b      	adds	r3, r3, r5
20004814:	1edf      	subs	r7, r3, #3
20004816:	0004      	movs	r4, r0
20004818:	5dc8      	ldrb	r0, [r1, r7]
2000481a:	b083      	sub	sp, #12
2000481c:	9201      	str	r2, [sp, #4]
2000481e:	19ca      	adds	r2, r1, r7
20004820:	2800      	cmp	r0, #0
20004822:	d050      	beq.n	200048c6 <ph_remove_any_head+0xc6>
20004824:	0043      	lsls	r3, r0, #1
20004826:	181b      	adds	r3, r3, r0
20004828:	3b03      	subs	r3, #3
2000482a:	18cb      	adds	r3, r1, r3
2000482c:	785e      	ldrb	r6, [r3, #1]
2000482e:	46b4      	mov	ip, r6
20004830:	2e00      	cmp	r6, #0
20004832:	d11a      	bne.n	2000486a <ph_remove_any_head+0x6a>
20004834:	9e01      	ldr	r6, [sp, #4]
20004836:	2e00      	cmp	r6, #0
20004838:	d042      	beq.n	200048c0 <ph_remove_any_head+0xc0>
2000483a:	7be6      	ldrb	r6, [r4, #15]
2000483c:	2e00      	cmp	r6, #0
2000483e:	d004      	beq.n	2000484a <ph_remove_any_head+0x4a>
20004840:	0073      	lsls	r3, r6, #1
20004842:	199b      	adds	r3, r3, r6
20004844:	18cb      	adds	r3, r1, r3
20004846:	3b03      	subs	r3, #3
20004848:	705d      	strb	r5, [r3, #1]
2000484a:	7ba3      	ldrb	r3, [r4, #14]
2000484c:	2b00      	cmp	r3, #0
2000484e:	d100      	bne.n	20004852 <ph_remove_any_head+0x52>
20004850:	73a5      	strb	r5, [r4, #14]
20004852:	73e5      	strb	r5, [r4, #15]
20004854:	2800      	cmp	r0, #0
20004856:	d12f      	bne.n	200048b8 <ph_remove_any_head+0xb8>
20004858:	2300      	movs	r3, #0
2000485a:	7053      	strb	r3, [r2, #1]
2000485c:	b003      	add	sp, #12
2000485e:	bcf0      	pop	{r4, r5, r6, r7}
20004860:	46bb      	mov	fp, r7
20004862:	46b2      	mov	sl, r6
20004864:	46a9      	mov	r9, r5
20004866:	46a0      	mov	r8, r4
20004868:	bdf0      	pop	{r4, r5, r6, r7, pc}
2000486a:	0072      	lsls	r2, r6, #1
2000486c:	4462      	add	r2, ip
2000486e:	3a03      	subs	r2, #3
20004870:	1889      	adds	r1, r1, r2
20004872:	784a      	ldrb	r2, [r1, #1]
20004874:	4690      	mov	r8, r2
20004876:	2200      	movs	r2, #0
20004878:	704a      	strb	r2, [r1, #1]
2000487a:	4691      	mov	r9, r2
2000487c:	705a      	strb	r2, [r3, #1]
2000487e:	0001      	movs	r1, r0
20004880:	0032      	movs	r2, r6
20004882:	0020      	movs	r0, r4
20004884:	f7ff ff22 	bl	200046cc <ph_merge_nodes>
20004888:	4643      	mov	r3, r8
2000488a:	4682      	mov	sl, r0
2000488c:	2b00      	cmp	r3, #0
2000488e:	d007      	beq.n	200048a0 <ph_remove_any_head+0xa0>
20004890:	005b      	lsls	r3, r3, #1
20004892:	6821      	ldr	r1, [r4, #0]
20004894:	4443      	add	r3, r8
20004896:	3b03      	subs	r3, #3
20004898:	18cb      	adds	r3, r1, r3
2000489a:	785a      	ldrb	r2, [r3, #1]
2000489c:	2a00      	cmp	r2, #0
2000489e:	d116      	bne.n	200048ce <ph_remove_any_head+0xce>
200048a0:	4642      	mov	r2, r8
200048a2:	4651      	mov	r1, sl
200048a4:	0020      	movs	r0, r4
200048a6:	f7ff ff11 	bl	200046cc <ph_merge_nodes>
200048aa:	6821      	ldr	r1, [r4, #0]
200048ac:	9b01      	ldr	r3, [sp, #4]
200048ae:	19ca      	adds	r2, r1, r7
200048b0:	2b00      	cmp	r3, #0
200048b2:	d1c2      	bne.n	2000483a <ph_remove_any_head+0x3a>
200048b4:	2800      	cmp	r0, #0
200048b6:	d0cf      	beq.n	20004858 <ph_remove_any_head+0x58>
200048b8:	0043      	lsls	r3, r0, #1
200048ba:	181b      	adds	r3, r3, r0
200048bc:	3b03      	subs	r3, #3
200048be:	18cb      	adds	r3, r1, r3
200048c0:	2100      	movs	r1, #0
200048c2:	7099      	strb	r1, [r3, #2]
200048c4:	e7c8      	b.n	20004858 <ph_remove_any_head+0x58>
200048c6:	9b01      	ldr	r3, [sp, #4]
200048c8:	2b00      	cmp	r3, #0
200048ca:	d1b6      	bne.n	2000483a <ph_remove_any_head+0x3a>
200048cc:	e7c4      	b.n	20004858 <ph_remove_any_head+0x58>
200048ce:	0050      	lsls	r0, r2, #1
200048d0:	1880      	adds	r0, r0, r2
200048d2:	3803      	subs	r0, #3
200048d4:	1809      	adds	r1, r1, r0
200048d6:	7848      	ldrb	r0, [r1, #1]
200048d8:	4683      	mov	fp, r0
200048da:	4648      	mov	r0, r9
200048dc:	7048      	strb	r0, [r1, #1]
200048de:	7058      	strb	r0, [r3, #1]
200048e0:	4641      	mov	r1, r8
200048e2:	0020      	movs	r0, r4
200048e4:	f7ff fef2 	bl	200046cc <ph_merge_nodes>
200048e8:	4659      	mov	r1, fp
200048ea:	4680      	mov	r8, r0
200048ec:	0020      	movs	r0, r4
200048ee:	f7ff ff3f 	bl	20004770 <ph_merge_two_pass>
200048f2:	4641      	mov	r1, r8
200048f4:	0002      	movs	r2, r0
200048f6:	0020      	movs	r0, r4
200048f8:	f7ff fee8 	bl	200046cc <ph_merge_nodes>
200048fc:	4680      	mov	r8, r0
200048fe:	e7cf      	b.n	200048a0 <ph_remove_any_head+0xa0>

20004900 <ph_remove_head>:
20004900:	b5f0      	push	{r4, r5, r6, r7, lr}
20004902:	4657      	mov	r7, sl
20004904:	4645      	mov	r5, r8
20004906:	46de      	mov	lr, fp
20004908:	464e      	mov	r6, r9
2000490a:	b5e0      	push	{r5, r6, r7, lr}
2000490c:	b083      	sub	sp, #12
2000490e:	9101      	str	r1, [sp, #4]
20004910:	7b45      	ldrb	r5, [r0, #13]
20004912:	0004      	movs	r4, r0
20004914:	006b      	lsls	r3, r5, #1
20004916:	6800      	ldr	r0, [r0, #0]
20004918:	195b      	adds	r3, r3, r5
2000491a:	1edf      	subs	r7, r3, #3
2000491c:	5dc1      	ldrb	r1, [r0, r7]
2000491e:	19c2      	adds	r2, r0, r7
20004920:	2900      	cmp	r1, #0
20004922:	d052      	beq.n	200049ca <ph_remove_head+0xca>
20004924:	004b      	lsls	r3, r1, #1
20004926:	185b      	adds	r3, r3, r1
20004928:	3b03      	subs	r3, #3
2000492a:	18c3      	adds	r3, r0, r3
2000492c:	785e      	ldrb	r6, [r3, #1]
2000492e:	46b4      	mov	ip, r6
20004930:	2e00      	cmp	r6, #0
20004932:	d11c      	bne.n	2000496e <ph_remove_head+0x6e>
20004934:	9e01      	ldr	r6, [sp, #4]
20004936:	2e00      	cmp	r6, #0
20004938:	d044      	beq.n	200049c4 <ph_remove_head+0xc4>
2000493a:	7be6      	ldrb	r6, [r4, #15]
2000493c:	2e00      	cmp	r6, #0
2000493e:	d004      	beq.n	2000494a <ph_remove_head+0x4a>
20004940:	0073      	lsls	r3, r6, #1
20004942:	199b      	adds	r3, r3, r6
20004944:	18c3      	adds	r3, r0, r3
20004946:	3b03      	subs	r3, #3
20004948:	705d      	strb	r5, [r3, #1]
2000494a:	7ba3      	ldrb	r3, [r4, #14]
2000494c:	2b00      	cmp	r3, #0
2000494e:	d100      	bne.n	20004952 <ph_remove_head+0x52>
20004950:	73a5      	strb	r5, [r4, #14]
20004952:	73e5      	strb	r5, [r4, #15]
20004954:	2900      	cmp	r1, #0
20004956:	d131      	bne.n	200049bc <ph_remove_head+0xbc>
20004958:	2300      	movs	r3, #0
2000495a:	0028      	movs	r0, r5
2000495c:	7053      	strb	r3, [r2, #1]
2000495e:	7361      	strb	r1, [r4, #13]
20004960:	b003      	add	sp, #12
20004962:	bcf0      	pop	{r4, r5, r6, r7}
20004964:	46bb      	mov	fp, r7
20004966:	46b2      	mov	sl, r6
20004968:	46a9      	mov	r9, r5
2000496a:	46a0      	mov	r8, r4
2000496c:	bdf0      	pop	{r4, r5, r6, r7, pc}
2000496e:	0072      	lsls	r2, r6, #1
20004970:	4462      	add	r2, ip
20004972:	3a03      	subs	r2, #3
20004974:	1880      	adds	r0, r0, r2
20004976:	7842      	ldrb	r2, [r0, #1]
20004978:	4690      	mov	r8, r2
2000497a:	2200      	movs	r2, #0
2000497c:	7042      	strb	r2, [r0, #1]
2000497e:	4691      	mov	r9, r2
20004980:	705a      	strb	r2, [r3, #1]
20004982:	0020      	movs	r0, r4
20004984:	0032      	movs	r2, r6
20004986:	f7ff fea1 	bl	200046cc <ph_merge_nodes>
2000498a:	4643      	mov	r3, r8
2000498c:	4682      	mov	sl, r0
2000498e:	2b00      	cmp	r3, #0
20004990:	d007      	beq.n	200049a2 <ph_remove_head+0xa2>
20004992:	005b      	lsls	r3, r3, #1
20004994:	6821      	ldr	r1, [r4, #0]
20004996:	4443      	add	r3, r8
20004998:	3b03      	subs	r3, #3
2000499a:	18cb      	adds	r3, r1, r3
2000499c:	785a      	ldrb	r2, [r3, #1]
2000499e:	2a00      	cmp	r2, #0
200049a0:	d117      	bne.n	200049d2 <ph_remove_head+0xd2>
200049a2:	4642      	mov	r2, r8
200049a4:	4651      	mov	r1, sl
200049a6:	0020      	movs	r0, r4
200049a8:	f7ff fe90 	bl	200046cc <ph_merge_nodes>
200049ac:	9b01      	ldr	r3, [sp, #4]
200049ae:	0001      	movs	r1, r0
200049b0:	6820      	ldr	r0, [r4, #0]
200049b2:	19c2      	adds	r2, r0, r7
200049b4:	2b00      	cmp	r3, #0
200049b6:	d1c0      	bne.n	2000493a <ph_remove_head+0x3a>
200049b8:	2900      	cmp	r1, #0
200049ba:	d0cd      	beq.n	20004958 <ph_remove_head+0x58>
200049bc:	004b      	lsls	r3, r1, #1
200049be:	185b      	adds	r3, r3, r1
200049c0:	3b03      	subs	r3, #3
200049c2:	18c3      	adds	r3, r0, r3
200049c4:	2000      	movs	r0, #0
200049c6:	7098      	strb	r0, [r3, #2]
200049c8:	e7c6      	b.n	20004958 <ph_remove_head+0x58>
200049ca:	9b01      	ldr	r3, [sp, #4]
200049cc:	2b00      	cmp	r3, #0
200049ce:	d1b4      	bne.n	2000493a <ph_remove_head+0x3a>
200049d0:	e7c2      	b.n	20004958 <ph_remove_head+0x58>
200049d2:	0050      	lsls	r0, r2, #1
200049d4:	1880      	adds	r0, r0, r2
200049d6:	3803      	subs	r0, #3
200049d8:	1809      	adds	r1, r1, r0
200049da:	7848      	ldrb	r0, [r1, #1]
200049dc:	4683      	mov	fp, r0
200049de:	4648      	mov	r0, r9
200049e0:	7048      	strb	r0, [r1, #1]
200049e2:	7058      	strb	r0, [r3, #1]
200049e4:	4641      	mov	r1, r8
200049e6:	0020      	movs	r0, r4
200049e8:	f7ff fe70 	bl	200046cc <ph_merge_nodes>
200049ec:	4659      	mov	r1, fp
200049ee:	4680      	mov	r8, r0
200049f0:	0020      	movs	r0, r4
200049f2:	f7ff febd 	bl	20004770 <ph_merge_two_pass>
200049f6:	4641      	mov	r1, r8
200049f8:	0002      	movs	r2, r0
200049fa:	0020      	movs	r0, r4
200049fc:	f7ff fe66 	bl	200046cc <ph_merge_nodes>
20004a00:	4680      	mov	r8, r0
20004a02:	e7ce      	b.n	200049a2 <ph_remove_head+0xa2>

20004a04 <ph_remove_and_free_node>:
20004a04:	b570      	push	{r4, r5, r6, lr}
20004a06:	0004      	movs	r4, r0
20004a08:	2900      	cmp	r1, #0
20004a0a:	d02c      	beq.n	20004a66 <ph_remove_and_free_node+0x62>
20004a0c:	7b43      	ldrb	r3, [r0, #13]
20004a0e:	428b      	cmp	r3, r1
20004a10:	d02e      	beq.n	20004a70 <ph_remove_and_free_node+0x6c>
20004a12:	6805      	ldr	r5, [r0, #0]
20004a14:	0048      	lsls	r0, r1, #1
20004a16:	1840      	adds	r0, r0, r1
20004a18:	3803      	subs	r0, #3
20004a1a:	1828      	adds	r0, r5, r0
20004a1c:	7882      	ldrb	r2, [r0, #2]
20004a1e:	2a00      	cmp	r2, #0
20004a20:	d021      	beq.n	20004a66 <ph_remove_and_free_node+0x62>
20004a22:	0053      	lsls	r3, r2, #1
20004a24:	189b      	adds	r3, r3, r2
20004a26:	3b03      	subs	r3, #3
20004a28:	5cea      	ldrb	r2, [r5, r3]
20004a2a:	18ee      	adds	r6, r5, r3
20004a2c:	428a      	cmp	r2, r1
20004a2e:	d102      	bne.n	20004a36 <ph_remove_and_free_node+0x32>
20004a30:	e01b      	b.n	20004a6a <ph_remove_and_free_node+0x66>
20004a32:	2a00      	cmp	r2, #0
20004a34:	d008      	beq.n	20004a48 <ph_remove_and_free_node+0x44>
20004a36:	0053      	lsls	r3, r2, #1
20004a38:	189b      	adds	r3, r3, r2
20004a3a:	3b03      	subs	r3, #3
20004a3c:	18eb      	adds	r3, r5, r3
20004a3e:	785a      	ldrb	r2, [r3, #1]
20004a40:	428a      	cmp	r2, r1
20004a42:	d1f6      	bne.n	20004a32 <ph_remove_and_free_node+0x2e>
20004a44:	7842      	ldrb	r2, [r0, #1]
20004a46:	705a      	strb	r2, [r3, #1]
20004a48:	2300      	movs	r3, #0
20004a4a:	2201      	movs	r2, #1
20004a4c:	7083      	strb	r3, [r0, #2]
20004a4e:	7043      	strb	r3, [r0, #1]
20004a50:	0020      	movs	r0, r4
20004a52:	f7ff fed5 	bl	20004800 <ph_remove_any_head>
20004a56:	7b61      	ldrb	r1, [r4, #13]
20004a58:	0002      	movs	r2, r0
20004a5a:	0020      	movs	r0, r4
20004a5c:	f7ff fe36 	bl	200046cc <ph_merge_nodes>
20004a60:	7360      	strb	r0, [r4, #13]
20004a62:	2001      	movs	r0, #1
20004a64:	e000      	b.n	20004a68 <ph_remove_and_free_node+0x64>
20004a66:	2000      	movs	r0, #0
20004a68:	bd70      	pop	{r4, r5, r6, pc}
20004a6a:	7843      	ldrb	r3, [r0, #1]
20004a6c:	7033      	strb	r3, [r6, #0]
20004a6e:	e7eb      	b.n	20004a48 <ph_remove_and_free_node+0x44>
20004a70:	2201      	movs	r2, #1
20004a72:	0019      	movs	r1, r3
20004a74:	f7ff fec4 	bl	20004800 <ph_remove_any_head>
20004a78:	7360      	strb	r0, [r4, #13]
20004a7a:	2001      	movs	r0, #1
20004a7c:	e7f4      	b.n	20004a68 <ph_remove_and_free_node+0x64>
20004a7e:	46c0      	nop			; (mov r8, r8)

20004a80 <gpio_set_function>:
20004a80:	4a09      	ldr	r2, [pc, #36]	; (20004aa8 <gpio_set_function+0x28>)
20004a82:	0083      	lsls	r3, r0, #2
20004a84:	4694      	mov	ip, r2
20004a86:	2240      	movs	r2, #64	; 0x40
20004a88:	4463      	add	r3, ip
20004a8a:	b510      	push	{r4, lr}
20004a8c:	681c      	ldr	r4, [r3, #0]
20004a8e:	00c0      	lsls	r0, r0, #3
20004a90:	4062      	eors	r2, r4
20004a92:	24c0      	movs	r4, #192	; 0xc0
20004a94:	4014      	ands	r4, r2
20004a96:	2280      	movs	r2, #128	; 0x80
20004a98:	0152      	lsls	r2, r2, #5
20004a9a:	4313      	orrs	r3, r2
20004a9c:	601c      	str	r4, [r3, #0]
20004a9e:	4b03      	ldr	r3, [pc, #12]	; (20004aac <gpio_set_function+0x2c>)
20004aa0:	469c      	mov	ip, r3
20004aa2:	4460      	add	r0, ip
20004aa4:	6041      	str	r1, [r0, #4]
20004aa6:	bd10      	pop	{r4, pc}
20004aa8:	4001c004 	.word	0x4001c004
20004aac:	40014000 	.word	0x40014000

20004ab0 <gpio_get_function>:
20004ab0:	4b03      	ldr	r3, [pc, #12]	; (20004ac0 <gpio_get_function+0x10>)
20004ab2:	00c0      	lsls	r0, r0, #3
20004ab4:	469c      	mov	ip, r3
20004ab6:	4460      	add	r0, ip
20004ab8:	6843      	ldr	r3, [r0, #4]
20004aba:	201f      	movs	r0, #31
20004abc:	4018      	ands	r0, r3
20004abe:	4770      	bx	lr
20004ac0:	40014000 	.word	0x40014000

20004ac4 <gpio_set_pulls>:
20004ac4:	4b0a      	ldr	r3, [pc, #40]	; (20004af0 <gpio_set_pulls+0x2c>)
20004ac6:	0080      	lsls	r0, r0, #2
20004ac8:	469c      	mov	ip, r3
20004aca:	2304      	movs	r3, #4
20004acc:	4460      	add	r0, ip
20004ace:	2900      	cmp	r1, #0
20004ad0:	d001      	beq.n	20004ad6 <gpio_set_pulls+0x12>
20004ad2:	230c      	movs	r3, #12
20004ad4:	2108      	movs	r1, #8
20004ad6:	2a00      	cmp	r2, #0
20004ad8:	d100      	bne.n	20004adc <gpio_set_pulls+0x18>
20004ada:	000b      	movs	r3, r1
20004adc:	6802      	ldr	r2, [r0, #0]
20004ade:	4053      	eors	r3, r2
20004ae0:	220c      	movs	r2, #12
20004ae2:	401a      	ands	r2, r3
20004ae4:	2380      	movs	r3, #128	; 0x80
20004ae6:	015b      	lsls	r3, r3, #5
20004ae8:	4318      	orrs	r0, r3
20004aea:	6002      	str	r2, [r0, #0]
20004aec:	4770      	bx	lr
20004aee:	46c0      	nop			; (mov r8, r8)
20004af0:	4001c004 	.word	0x4001c004

20004af4 <gpio_set_inover>:
20004af4:	4b07      	ldr	r3, [pc, #28]	; (20004b14 <gpio_set_inover+0x20>)
20004af6:	00c0      	lsls	r0, r0, #3
20004af8:	469c      	mov	ip, r3
20004afa:	4460      	add	r0, ip
20004afc:	6803      	ldr	r3, [r0, #0]
20004afe:	0409      	lsls	r1, r1, #16
20004b00:	4059      	eors	r1, r3
20004b02:	23c0      	movs	r3, #192	; 0xc0
20004b04:	029b      	lsls	r3, r3, #10
20004b06:	4019      	ands	r1, r3
20004b08:	2380      	movs	r3, #128	; 0x80
20004b0a:	015b      	lsls	r3, r3, #5
20004b0c:	4318      	orrs	r0, r3
20004b0e:	6001      	str	r1, [r0, #0]
20004b10:	4770      	bx	lr
20004b12:	46c0      	nop			; (mov r8, r8)
20004b14:	40014004 	.word	0x40014004

20004b18 <gpio_set_oeover>:
20004b18:	4b07      	ldr	r3, [pc, #28]	; (20004b38 <gpio_set_oeover+0x20>)
20004b1a:	00c0      	lsls	r0, r0, #3
20004b1c:	469c      	mov	ip, r3
20004b1e:	4460      	add	r0, ip
20004b20:	6803      	ldr	r3, [r0, #0]
20004b22:	0309      	lsls	r1, r1, #12
20004b24:	4059      	eors	r1, r3
20004b26:	23c0      	movs	r3, #192	; 0xc0
20004b28:	019b      	lsls	r3, r3, #6
20004b2a:	4019      	ands	r1, r3
20004b2c:	2380      	movs	r3, #128	; 0x80
20004b2e:	015b      	lsls	r3, r3, #5
20004b30:	4318      	orrs	r0, r3
20004b32:	6001      	str	r1, [r0, #0]
20004b34:	4770      	bx	lr
20004b36:	46c0      	nop			; (mov r8, r8)
20004b38:	40014004 	.word	0x40014004

20004b3c <gpio_init>:
20004b3c:	2301      	movs	r3, #1
20004b3e:	22d0      	movs	r2, #208	; 0xd0
20004b40:	4083      	lsls	r3, r0
20004b42:	0612      	lsls	r2, r2, #24
20004b44:	6293      	str	r3, [r2, #40]	; 0x28
20004b46:	6193      	str	r3, [r2, #24]
20004b48:	4a09      	ldr	r2, [pc, #36]	; (20004b70 <gpio_init+0x34>)
20004b4a:	0083      	lsls	r3, r0, #2
20004b4c:	4694      	mov	ip, r2
20004b4e:	2240      	movs	r2, #64	; 0x40
20004b50:	4463      	add	r3, ip
20004b52:	6819      	ldr	r1, [r3, #0]
20004b54:	00c0      	lsls	r0, r0, #3
20004b56:	404a      	eors	r2, r1
20004b58:	21c0      	movs	r1, #192	; 0xc0
20004b5a:	4011      	ands	r1, r2
20004b5c:	2280      	movs	r2, #128	; 0x80
20004b5e:	0152      	lsls	r2, r2, #5
20004b60:	4313      	orrs	r3, r2
20004b62:	6019      	str	r1, [r3, #0]
20004b64:	4b03      	ldr	r3, [pc, #12]	; (20004b74 <gpio_init+0x38>)
20004b66:	469c      	mov	ip, r3
20004b68:	2305      	movs	r3, #5
20004b6a:	4460      	add	r0, ip
20004b6c:	6043      	str	r3, [r0, #4]
20004b6e:	4770      	bx	lr
20004b70:	4001c004 	.word	0x4001c004
20004b74:	40014000 	.word	0x40014000

20004b78 <uart_init>:
20004b78:	b5f8      	push	{r3, r4, r5, r6, r7, lr}
20004b7a:	46ce      	mov	lr, r9
20004b7c:	4647      	mov	r7, r8
20004b7e:	0004      	movs	r4, r0
20004b80:	b580      	push	{r7, lr}
20004b82:	2006      	movs	r0, #6
20004b84:	000e      	movs	r6, r1
20004b86:	f000 fa23 	bl	20004fd0 <clock_get_hz>
20004b8a:	1e05      	subs	r5, r0, #0
20004b8c:	d051      	beq.n	20004c32 <uart_init+0xba>
20004b8e:	4b52      	ldr	r3, [pc, #328]	; (20004cd8 <uart_init+0x160>)
20004b90:	4952      	ldr	r1, [pc, #328]	; (20004cdc <uart_init+0x164>)
20004b92:	18e2      	adds	r2, r4, r3
20004b94:	4253      	negs	r3, r2
20004b96:	415a      	adcs	r2, r3
20004b98:	2380      	movs	r3, #128	; 0x80
20004b9a:	03db      	lsls	r3, r3, #15
20004b9c:	469c      	mov	ip, r3
20004b9e:	0592      	lsls	r2, r2, #22
20004ba0:	4b4f      	ldr	r3, [pc, #316]	; (20004ce0 <uart_init+0x168>)
20004ba2:	4462      	add	r2, ip
20004ba4:	601a      	str	r2, [r3, #0]
20004ba6:	4b4f      	ldr	r3, [pc, #316]	; (20004ce4 <uart_init+0x16c>)
20004ba8:	601a      	str	r2, [r3, #0]
20004baa:	0010      	movs	r0, r2
20004bac:	688b      	ldr	r3, [r1, #8]
20004bae:	4398      	bics	r0, r3
20004bb0:	d1fb      	bne.n	20004baa <uart_init+0x32>
20004bb2:	4b49      	ldr	r3, [pc, #292]	; (20004cd8 <uart_init+0x160>)
20004bb4:	2180      	movs	r1, #128	; 0x80
20004bb6:	18e3      	adds	r3, r4, r3
20004bb8:	425a      	negs	r2, r3
20004bba:	4153      	adcs	r3, r2
20004bbc:	4a4a      	ldr	r2, [pc, #296]	; (20004ce8 <uart_init+0x170>)
20004bbe:	005b      	lsls	r3, r3, #1
20004bc0:	0049      	lsls	r1, r1, #1
20004bc2:	5299      	strh	r1, [r3, r2]
20004bc4:	2006      	movs	r0, #6
20004bc6:	f000 fa03 	bl	20004fd0 <clock_get_hz>
20004bca:	0031      	movs	r1, r6
20004bcc:	00c0      	lsls	r0, r0, #3
20004bce:	f000 fb6d 	bl	200052ac <__wrap___aeabi_uidiv>
20004bd2:	09c3      	lsrs	r3, r0, #7
20004bd4:	d132      	bne.n	20004c3c <uart_init+0xc4>
20004bd6:	2240      	movs	r2, #64	; 0x40
20004bd8:	2101      	movs	r1, #1
20004bda:	4690      	mov	r8, r2
20004bdc:	6261      	str	r1, [r4, #36]	; 0x24
20004bde:	62a3      	str	r3, [r4, #40]	; 0x28
20004be0:	6b25      	ldr	r5, [r4, #48]	; 0x30
20004be2:	07eb      	lsls	r3, r5, #31
20004be4:	d436      	bmi.n	20004c54 <uart_init+0xdc>
20004be6:	0027      	movs	r7, r4
20004be8:	2680      	movs	r6, #128	; 0x80
20004bea:	6ae3      	ldr	r3, [r4, #44]	; 0x2c
20004bec:	2300      	movs	r3, #0
20004bee:	372c      	adds	r7, #44	; 0x2c
20004bf0:	0176      	lsls	r6, r6, #5
20004bf2:	433e      	orrs	r6, r7
20004bf4:	6033      	str	r3, [r6, #0]
20004bf6:	2006      	movs	r0, #6
20004bf8:	6325      	str	r5, [r4, #48]	; 0x30
20004bfa:	f000 f9e9 	bl	20004fd0 <clock_get_hz>
20004bfe:	4641      	mov	r1, r8
20004c00:	0080      	lsls	r0, r0, #2
20004c02:	f000 fb53 	bl	200052ac <__wrap___aeabi_uidiv>
20004c06:	6b23      	ldr	r3, [r4, #48]	; 0x30
20004c08:	0005      	movs	r5, r0
20004c0a:	4698      	mov	r8, r3
20004c0c:	07db      	lsls	r3, r3, #31
20004c0e:	d43b      	bmi.n	20004c88 <uart_init+0x110>
20004c10:	2260      	movs	r2, #96	; 0x60
20004c12:	6ae3      	ldr	r3, [r4, #44]	; 0x2c
20004c14:	405a      	eors	r2, r3
20004c16:	236e      	movs	r3, #110	; 0x6e
20004c18:	4013      	ands	r3, r2
20004c1a:	6033      	str	r3, [r6, #0]
20004c1c:	4643      	mov	r3, r8
20004c1e:	6323      	str	r3, [r4, #48]	; 0x30
20004c20:	2380      	movs	r3, #128	; 0x80
20004c22:	2210      	movs	r2, #16
20004c24:	019b      	lsls	r3, r3, #6
20004c26:	433b      	orrs	r3, r7
20004c28:	601a      	str	r2, [r3, #0]
20004c2a:	4b30      	ldr	r3, [pc, #192]	; (20004cec <uart_init+0x174>)
20004c2c:	6323      	str	r3, [r4, #48]	; 0x30
20004c2e:	2303      	movs	r3, #3
20004c30:	64a3      	str	r3, [r4, #72]	; 0x48
20004c32:	0028      	movs	r0, r5
20004c34:	bcc0      	pop	{r6, r7}
20004c36:	46b9      	mov	r9, r7
20004c38:	46b0      	mov	r8, r6
20004c3a:	bdf8      	pop	{r3, r4, r5, r6, r7, pc}
20004c3c:	4a2c      	ldr	r2, [pc, #176]	; (20004cf0 <uart_init+0x178>)
20004c3e:	4293      	cmp	r3, r2
20004c40:	d93f      	bls.n	20004cc2 <uart_init+0x14a>
20004c42:	2300      	movs	r3, #0
20004c44:	492b      	ldr	r1, [pc, #172]	; (20004cf4 <uart_init+0x17c>)
20004c46:	4a2c      	ldr	r2, [pc, #176]	; (20004cf8 <uart_init+0x180>)
20004c48:	6261      	str	r1, [r4, #36]	; 0x24
20004c4a:	62a3      	str	r3, [r4, #40]	; 0x28
20004c4c:	6b25      	ldr	r5, [r4, #48]	; 0x30
20004c4e:	4690      	mov	r8, r2
20004c50:	07eb      	lsls	r3, r5, #31
20004c52:	d5c8      	bpl.n	20004be6 <uart_init+0x6e>
20004c54:	0022      	movs	r2, r4
20004c56:	23c0      	movs	r3, #192	; 0xc0
20004c58:	3230      	adds	r2, #48	; 0x30
20004c5a:	019b      	lsls	r3, r3, #6
20004c5c:	4313      	orrs	r3, r2
20004c5e:	4a23      	ldr	r2, [pc, #140]	; (20004cec <uart_init+0x174>)
20004c60:	2006      	movs	r0, #6
20004c62:	601a      	str	r2, [r3, #0]
20004c64:	6a66      	ldr	r6, [r4, #36]	; 0x24
20004c66:	6aa2      	ldr	r2, [r4, #40]	; 0x28
20004c68:	01b6      	lsls	r6, r6, #6
20004c6a:	18b6      	adds	r6, r6, r2
20004c6c:	f000 f9b0 	bl	20004fd0 <clock_get_hz>
20004c70:	4922      	ldr	r1, [pc, #136]	; (20004cfc <uart_init+0x184>)
20004c72:	f000 fb1b 	bl	200052ac <__wrap___aeabi_uidiv>
20004c76:	02b6      	lsls	r6, r6, #10
20004c78:	0001      	movs	r1, r0
20004c7a:	0030      	movs	r0, r6
20004c7c:	f000 fb16 	bl	200052ac <__wrap___aeabi_uidiv>
20004c80:	2100      	movs	r1, #0
20004c82:	f7ff f8f3 	bl	20003e6c <busy_wait_us>
20004c86:	e7ae      	b.n	20004be6 <uart_init+0x6e>
20004c88:	0022      	movs	r2, r4
20004c8a:	23c0      	movs	r3, #192	; 0xc0
20004c8c:	3230      	adds	r2, #48	; 0x30
20004c8e:	019b      	lsls	r3, r3, #6
20004c90:	4313      	orrs	r3, r2
20004c92:	4a16      	ldr	r2, [pc, #88]	; (20004cec <uart_init+0x174>)
20004c94:	2006      	movs	r0, #6
20004c96:	601a      	str	r2, [r3, #0]
20004c98:	6a63      	ldr	r3, [r4, #36]	; 0x24
20004c9a:	6aa2      	ldr	r2, [r4, #40]	; 0x28
20004c9c:	019b      	lsls	r3, r3, #6
20004c9e:	4699      	mov	r9, r3
20004ca0:	4491      	add	r9, r2
20004ca2:	f000 f995 	bl	20004fd0 <clock_get_hz>
20004ca6:	464b      	mov	r3, r9
20004ca8:	4914      	ldr	r1, [pc, #80]	; (20004cfc <uart_init+0x184>)
20004caa:	029b      	lsls	r3, r3, #10
20004cac:	4699      	mov	r9, r3
20004cae:	f000 fafd 	bl	200052ac <__wrap___aeabi_uidiv>
20004cb2:	0001      	movs	r1, r0
20004cb4:	4648      	mov	r0, r9
20004cb6:	f000 faf9 	bl	200052ac <__wrap___aeabi_uidiv>
20004cba:	2100      	movs	r1, #0
20004cbc:	f7ff f8d6 	bl	20003e6c <busy_wait_us>
20004cc0:	e7a6      	b.n	20004c10 <uart_init+0x98>
20004cc2:	227f      	movs	r2, #127	; 0x7f
20004cc4:	0199      	lsls	r1, r3, #6
20004cc6:	4688      	mov	r8, r1
20004cc8:	4010      	ands	r0, r2
20004cca:	3001      	adds	r0, #1
20004ccc:	0840      	lsrs	r0, r0, #1
20004cce:	0019      	movs	r1, r3
20004cd0:	4480      	add	r8, r0
20004cd2:	0003      	movs	r3, r0
20004cd4:	e782      	b.n	20004bdc <uart_init+0x64>
20004cd6:	46c0      	nop			; (mov r8, r8)
20004cd8:	bffc8000 	.word	0xbffc8000
20004cdc:	4000c000 	.word	0x4000c000
20004ce0:	4000e000 	.word	0x4000e000
20004ce4:	4000f000 	.word	0x4000f000
20004ce8:	200117c8 	.word	0x200117c8
20004cec:	00000301 	.word	0x00000301
20004cf0:	0000fffe 	.word	0x0000fffe
20004cf4:	0000ffff 	.word	0x0000ffff
20004cf8:	003fffc0 	.word	0x003fffc0
20004cfc:	00000e4e 	.word	0x00000e4e

20004d00 <clocks_init>:
20004d00:	b530      	push	{r4, r5, lr}
20004d02:	200c      	movs	r0, #12
20004d04:	b083      	sub	sp, #12
20004d06:	f000 f9b9 	bl	2000507c <watchdog_start_tick>
20004d0a:	f7ff f9a7 	bl	2000405c <running_on_fpga>
20004d0e:	2800      	cmp	r0, #0
20004d10:	d00e      	beq.n	20004d30 <clocks_init+0x30>
20004d12:	4b99      	ldr	r3, [pc, #612]	; (20004f78 <clocks_init+0x278>)
20004d14:	4a99      	ldr	r2, [pc, #612]	; (20004f7c <clocks_init+0x27c>)
20004d16:	601a      	str	r2, [r3, #0]
20004d18:	605a      	str	r2, [r3, #4]
20004d1a:	609a      	str	r2, [r3, #8]
20004d1c:	60da      	str	r2, [r3, #12]
20004d1e:	611a      	str	r2, [r3, #16]
20004d20:	615a      	str	r2, [r3, #20]
20004d22:	619a      	str	r2, [r3, #24]
20004d24:	61da      	str	r2, [r3, #28]
20004d26:	621a      	str	r2, [r3, #32]
20004d28:	4a95      	ldr	r2, [pc, #596]	; (20004f80 <clocks_init+0x280>)
20004d2a:	625a      	str	r2, [r3, #36]	; 0x24
20004d2c:	b003      	add	sp, #12
20004d2e:	bd30      	pop	{r4, r5, pc}
20004d30:	4c94      	ldr	r4, [pc, #592]	; (20004f84 <clocks_init+0x284>)
20004d32:	67a0      	str	r0, [r4, #120]	; 0x78
20004d34:	f000 f9aa 	bl	2000508c <xosc_init>
20004d38:	2201      	movs	r2, #1
20004d3a:	4b93      	ldr	r3, [pc, #588]	; (20004f88 <clocks_init+0x288>)
20004d3c:	601a      	str	r2, [r3, #0]
20004d3e:	6c63      	ldr	r3, [r4, #68]	; 0x44
20004d40:	2b01      	cmp	r3, #1
20004d42:	d1fc      	bne.n	20004d3e <clocks_init+0x3e>
20004d44:	2203      	movs	r2, #3
20004d46:	4b91      	ldr	r3, [pc, #580]	; (20004f8c <clocks_init+0x28c>)
20004d48:	601a      	str	r2, [r3, #0]
20004d4a:	4a8e      	ldr	r2, [pc, #568]	; (20004f84 <clocks_init+0x284>)
20004d4c:	6b93      	ldr	r3, [r2, #56]	; 0x38
20004d4e:	2b01      	cmp	r3, #1
20004d50:	d1fc      	bne.n	20004d4c <clocks_init+0x4c>
20004d52:	3301      	adds	r3, #1
20004d54:	2101      	movs	r1, #1
20004d56:	4a8e      	ldr	r2, [pc, #568]	; (20004f90 <clocks_init+0x290>)
20004d58:	488e      	ldr	r0, [pc, #568]	; (20004f94 <clocks_init+0x294>)
20004d5a:	9300      	str	r3, [sp, #0]
20004d5c:	3304      	adds	r3, #4
20004d5e:	f000 f93d 	bl	20004fdc <pll_init>
20004d62:	2305      	movs	r3, #5
20004d64:	4a8c      	ldr	r2, [pc, #560]	; (20004f98 <clocks_init+0x298>)
20004d66:	9300      	str	r3, [sp, #0]
20004d68:	2101      	movs	r1, #1
20004d6a:	488c      	ldr	r0, [pc, #560]	; (20004f9c <clocks_init+0x29c>)
20004d6c:	f000 f936 	bl	20004fdc <pll_init>
20004d70:	4b8b      	ldr	r3, [pc, #556]	; (20004fa0 <clocks_init+0x2a0>)
20004d72:	685a      	ldr	r2, [r3, #4]
20004d74:	2aff      	cmp	r2, #255	; 0xff
20004d76:	d802      	bhi.n	20004d7e <clocks_init+0x7e>
20004d78:	2280      	movs	r2, #128	; 0x80
20004d7a:	0052      	lsls	r2, r2, #1
20004d7c:	605a      	str	r2, [r3, #4]
20004d7e:	2280      	movs	r2, #128	; 0x80
20004d80:	4c7d      	ldr	r4, [pc, #500]	; (20004f78 <clocks_init+0x278>)
20004d82:	4b82      	ldr	r3, [pc, #520]	; (20004f8c <clocks_init+0x28c>)
20004d84:	6921      	ldr	r1, [r4, #16]
20004d86:	0112      	lsls	r2, r2, #4
20004d88:	4d85      	ldr	r5, [pc, #532]	; (20004fa0 <clocks_init+0x2a0>)
20004d8a:	601a      	str	r2, [r3, #0]
20004d8c:	2900      	cmp	r1, #0
20004d8e:	d007      	beq.n	20004da0 <clocks_init+0xa0>
20004d90:	6960      	ldr	r0, [r4, #20]
20004d92:	f000 fa8b 	bl	200052ac <__wrap___aeabi_uidiv>
20004d96:	1c43      	adds	r3, r0, #1
20004d98:	0058      	lsls	r0, r3, #1
20004d9a:	18c0      	adds	r0, r0, r3
20004d9c:	3803      	subs	r0, #3
20004d9e:	d2fd      	bcs.n	20004d9c <clocks_init+0x9c>
20004da0:	21e0      	movs	r1, #224	; 0xe0
20004da2:	4b7f      	ldr	r3, [pc, #508]	; (20004fa0 <clocks_init+0x2a0>)
20004da4:	2002      	movs	r0, #2
20004da6:	681a      	ldr	r2, [r3, #0]
20004da8:	4011      	ands	r1, r2
20004daa:	2280      	movs	r2, #128	; 0x80
20004dac:	0152      	lsls	r2, r2, #5
20004dae:	432a      	orrs	r2, r5
20004db0:	6011      	str	r1, [r2, #0]
20004db2:	6819      	ldr	r1, [r3, #0]
20004db4:	4048      	eors	r0, r1
20004db6:	2103      	movs	r1, #3
20004db8:	4001      	ands	r1, r0
20004dba:	6011      	str	r1, [r2, #0]
20004dbc:	2104      	movs	r1, #4
20004dbe:	689a      	ldr	r2, [r3, #8]
20004dc0:	4211      	tst	r1, r2
20004dc2:	d0fc      	beq.n	20004dbe <clocks_init+0xbe>
20004dc4:	2280      	movs	r2, #128	; 0x80
20004dc6:	2180      	movs	r1, #128	; 0x80
20004dc8:	0192      	lsls	r2, r2, #6
20004dca:	432a      	orrs	r2, r5
20004dcc:	0109      	lsls	r1, r1, #4
20004dce:	6011      	str	r1, [r2, #0]
20004dd0:	2280      	movs	r2, #128	; 0x80
20004dd2:	0052      	lsls	r2, r2, #1
20004dd4:	605a      	str	r2, [r3, #4]
20004dd6:	4b73      	ldr	r3, [pc, #460]	; (20004fa4 <clocks_init+0x2a4>)
20004dd8:	6123      	str	r3, [r4, #16]
20004dda:	4b73      	ldr	r3, [pc, #460]	; (20004fa8 <clocks_init+0x2a8>)
20004ddc:	6859      	ldr	r1, [r3, #4]
20004dde:	29ff      	cmp	r1, #255	; 0xff
20004de0:	d800      	bhi.n	20004de4 <clocks_init+0xe4>
20004de2:	605a      	str	r2, [r3, #4]
20004de4:	2103      	movs	r1, #3
20004de6:	4a68      	ldr	r2, [pc, #416]	; (20004f88 <clocks_init+0x288>)
20004de8:	4b6f      	ldr	r3, [pc, #444]	; (20004fa8 <clocks_init+0x2a8>)
20004dea:	6011      	str	r1, [r2, #0]
20004dec:	3902      	subs	r1, #2
20004dee:	689a      	ldr	r2, [r3, #8]
20004df0:	4211      	tst	r1, r2
20004df2:	d0fc      	beq.n	20004dee <clocks_init+0xee>
20004df4:	20e0      	movs	r0, #224	; 0xe0
20004df6:	681a      	ldr	r2, [r3, #0]
20004df8:	4010      	ands	r0, r2
20004dfa:	2280      	movs	r2, #128	; 0x80
20004dfc:	0152      	lsls	r2, r2, #5
20004dfe:	431a      	orrs	r2, r3
20004e00:	6010      	str	r0, [r2, #0]
20004e02:	6818      	ldr	r0, [r3, #0]
20004e04:	4048      	eors	r0, r1
20004e06:	2103      	movs	r1, #3
20004e08:	4001      	ands	r1, r0
20004e0a:	2002      	movs	r0, #2
20004e0c:	6011      	str	r1, [r2, #0]
20004e0e:	4966      	ldr	r1, [pc, #408]	; (20004fa8 <clocks_init+0x2a8>)
20004e10:	688a      	ldr	r2, [r1, #8]
20004e12:	4210      	tst	r0, r2
20004e14:	d0fc      	beq.n	20004e10 <clocks_init+0x110>
20004e16:	2280      	movs	r2, #128	; 0x80
20004e18:	0192      	lsls	r2, r2, #6
20004e1a:	4313      	orrs	r3, r2
20004e1c:	2280      	movs	r2, #128	; 0x80
20004e1e:	0112      	lsls	r2, r2, #4
20004e20:	601a      	str	r2, [r3, #0]
20004e22:	2280      	movs	r2, #128	; 0x80
20004e24:	4b61      	ldr	r3, [pc, #388]	; (20004fac <clocks_init+0x2ac>)
20004e26:	0052      	lsls	r2, r2, #1
20004e28:	604a      	str	r2, [r1, #4]
20004e2a:	6163      	str	r3, [r4, #20]
20004e2c:	4b60      	ldr	r3, [pc, #384]	; (20004fb0 <clocks_init+0x2b0>)
20004e2e:	6859      	ldr	r1, [r3, #4]
20004e30:	29ff      	cmp	r1, #255	; 0xff
20004e32:	d800      	bhi.n	20004e36 <clocks_init+0x136>
20004e34:	605a      	str	r2, [r3, #4]
20004e36:	2280      	movs	r2, #128	; 0x80
20004e38:	4b5e      	ldr	r3, [pc, #376]	; (20004fb4 <clocks_init+0x2b4>)
20004e3a:	69e1      	ldr	r1, [r4, #28]
20004e3c:	0112      	lsls	r2, r2, #4
20004e3e:	4d5c      	ldr	r5, [pc, #368]	; (20004fb0 <clocks_init+0x2b0>)
20004e40:	601a      	str	r2, [r3, #0]
20004e42:	2900      	cmp	r1, #0
20004e44:	d007      	beq.n	20004e56 <clocks_init+0x156>
20004e46:	6960      	ldr	r0, [r4, #20]
20004e48:	f000 fa30 	bl	200052ac <__wrap___aeabi_uidiv>
20004e4c:	1c43      	adds	r3, r0, #1
20004e4e:	0058      	lsls	r0, r3, #1
20004e50:	18c0      	adds	r0, r0, r3
20004e52:	3803      	subs	r0, #3
20004e54:	d2fd      	bcs.n	20004e52 <clocks_init+0x152>
20004e56:	22e0      	movs	r2, #224	; 0xe0
20004e58:	4955      	ldr	r1, [pc, #340]	; (20004fb0 <clocks_init+0x2b0>)
20004e5a:	680b      	ldr	r3, [r1, #0]
20004e5c:	401a      	ands	r2, r3
20004e5e:	2380      	movs	r3, #128	; 0x80
20004e60:	015b      	lsls	r3, r3, #5
20004e62:	432b      	orrs	r3, r5
20004e64:	601a      	str	r2, [r3, #0]
20004e66:	2380      	movs	r3, #128	; 0x80
20004e68:	2280      	movs	r2, #128	; 0x80
20004e6a:	019b      	lsls	r3, r3, #6
20004e6c:	432b      	orrs	r3, r5
20004e6e:	0112      	lsls	r2, r2, #4
20004e70:	601a      	str	r2, [r3, #0]
20004e72:	2280      	movs	r2, #128	; 0x80
20004e74:	4b41      	ldr	r3, [pc, #260]	; (20004f7c <clocks_init+0x27c>)
20004e76:	0052      	lsls	r2, r2, #1
20004e78:	604a      	str	r2, [r1, #4]
20004e7a:	61e3      	str	r3, [r4, #28]
20004e7c:	4b4e      	ldr	r3, [pc, #312]	; (20004fb8 <clocks_init+0x2b8>)
20004e7e:	6859      	ldr	r1, [r3, #4]
20004e80:	29ff      	cmp	r1, #255	; 0xff
20004e82:	d800      	bhi.n	20004e86 <clocks_init+0x186>
20004e84:	605a      	str	r2, [r3, #4]
20004e86:	2280      	movs	r2, #128	; 0x80
20004e88:	4b4c      	ldr	r3, [pc, #304]	; (20004fbc <clocks_init+0x2bc>)
20004e8a:	6a21      	ldr	r1, [r4, #32]
20004e8c:	0112      	lsls	r2, r2, #4
20004e8e:	4d4a      	ldr	r5, [pc, #296]	; (20004fb8 <clocks_init+0x2b8>)
20004e90:	601a      	str	r2, [r3, #0]
20004e92:	2900      	cmp	r1, #0
20004e94:	d007      	beq.n	20004ea6 <clocks_init+0x1a6>
20004e96:	6960      	ldr	r0, [r4, #20]
20004e98:	f000 fa08 	bl	200052ac <__wrap___aeabi_uidiv>
20004e9c:	1c43      	adds	r3, r0, #1
20004e9e:	0058      	lsls	r0, r3, #1
20004ea0:	18c0      	adds	r0, r0, r3
20004ea2:	3803      	subs	r0, #3
20004ea4:	d2fd      	bcs.n	20004ea2 <clocks_init+0x1a2>
20004ea6:	22e0      	movs	r2, #224	; 0xe0
20004ea8:	4943      	ldr	r1, [pc, #268]	; (20004fb8 <clocks_init+0x2b8>)
20004eaa:	680b      	ldr	r3, [r1, #0]
20004eac:	401a      	ands	r2, r3
20004eae:	2380      	movs	r3, #128	; 0x80
20004eb0:	015b      	lsls	r3, r3, #5
20004eb2:	432b      	orrs	r3, r5
20004eb4:	601a      	str	r2, [r3, #0]
20004eb6:	2380      	movs	r3, #128	; 0x80
20004eb8:	2280      	movs	r2, #128	; 0x80
20004eba:	019b      	lsls	r3, r3, #6
20004ebc:	432b      	orrs	r3, r5
20004ebe:	0112      	lsls	r2, r2, #4
20004ec0:	601a      	str	r2, [r3, #0]
20004ec2:	2380      	movs	r3, #128	; 0x80
20004ec4:	2280      	movs	r2, #128	; 0x80
20004ec6:	005b      	lsls	r3, r3, #1
20004ec8:	604b      	str	r3, [r1, #4]
20004eca:	4b2c      	ldr	r3, [pc, #176]	; (20004f7c <clocks_init+0x27c>)
20004ecc:	02d2      	lsls	r2, r2, #11
20004ece:	6223      	str	r3, [r4, #32]
20004ed0:	4b3b      	ldr	r3, [pc, #236]	; (20004fc0 <clocks_init+0x2c0>)
20004ed2:	6859      	ldr	r1, [r3, #4]
20004ed4:	4291      	cmp	r1, r2
20004ed6:	d200      	bcs.n	20004eda <clocks_init+0x1da>
20004ed8:	605a      	str	r2, [r3, #4]
20004eda:	2280      	movs	r2, #128	; 0x80
20004edc:	4b39      	ldr	r3, [pc, #228]	; (20004fc4 <clocks_init+0x2c4>)
20004ede:	6a61      	ldr	r1, [r4, #36]	; 0x24
20004ee0:	0112      	lsls	r2, r2, #4
20004ee2:	4d37      	ldr	r5, [pc, #220]	; (20004fc0 <clocks_init+0x2c0>)
20004ee4:	601a      	str	r2, [r3, #0]
20004ee6:	2900      	cmp	r1, #0
20004ee8:	d007      	beq.n	20004efa <clocks_init+0x1fa>
20004eea:	6960      	ldr	r0, [r4, #20]
20004eec:	f000 f9de 	bl	200052ac <__wrap___aeabi_uidiv>
20004ef0:	1c43      	adds	r3, r0, #1
20004ef2:	0058      	lsls	r0, r3, #1
20004ef4:	18c0      	adds	r0, r0, r3
20004ef6:	3803      	subs	r0, #3
20004ef8:	d2fd      	bcs.n	20004ef6 <clocks_init+0x1f6>
20004efa:	22e0      	movs	r2, #224	; 0xe0
20004efc:	4930      	ldr	r1, [pc, #192]	; (20004fc0 <clocks_init+0x2c0>)
20004efe:	680b      	ldr	r3, [r1, #0]
20004f00:	401a      	ands	r2, r3
20004f02:	2380      	movs	r3, #128	; 0x80
20004f04:	015b      	lsls	r3, r3, #5
20004f06:	432b      	orrs	r3, r5
20004f08:	601a      	str	r2, [r3, #0]
20004f0a:	2380      	movs	r3, #128	; 0x80
20004f0c:	2280      	movs	r2, #128	; 0x80
20004f0e:	019b      	lsls	r3, r3, #6
20004f10:	432b      	orrs	r3, r5
20004f12:	0112      	lsls	r2, r2, #4
20004f14:	601a      	str	r2, [r3, #0]
20004f16:	2380      	movs	r3, #128	; 0x80
20004f18:	02db      	lsls	r3, r3, #11
20004f1a:	604b      	str	r3, [r1, #4]
20004f1c:	4b18      	ldr	r3, [pc, #96]	; (20004f80 <clocks_init+0x280>)
20004f1e:	6263      	str	r3, [r4, #36]	; 0x24
20004f20:	4b29      	ldr	r3, [pc, #164]	; (20004fc8 <clocks_init+0x2c8>)
20004f22:	685a      	ldr	r2, [r3, #4]
20004f24:	2aff      	cmp	r2, #255	; 0xff
20004f26:	d802      	bhi.n	20004f2e <clocks_init+0x22e>
20004f28:	2280      	movs	r2, #128	; 0x80
20004f2a:	0052      	lsls	r2, r2, #1
20004f2c:	605a      	str	r2, [r3, #4]
20004f2e:	2280      	movs	r2, #128	; 0x80
20004f30:	4b26      	ldr	r3, [pc, #152]	; (20004fcc <clocks_init+0x2cc>)
20004f32:	69a1      	ldr	r1, [r4, #24]
20004f34:	0112      	lsls	r2, r2, #4
20004f36:	4d24      	ldr	r5, [pc, #144]	; (20004fc8 <clocks_init+0x2c8>)
20004f38:	601a      	str	r2, [r3, #0]
20004f3a:	2900      	cmp	r1, #0
20004f3c:	d007      	beq.n	20004f4e <clocks_init+0x24e>
20004f3e:	6960      	ldr	r0, [r4, #20]
20004f40:	f000 f9b4 	bl	200052ac <__wrap___aeabi_uidiv>
20004f44:	1c43      	adds	r3, r0, #1
20004f46:	0058      	lsls	r0, r3, #1
20004f48:	18c0      	adds	r0, r0, r3
20004f4a:	3803      	subs	r0, #3
20004f4c:	d2fd      	bcs.n	20004f4a <clocks_init+0x24a>
20004f4e:	22e0      	movs	r2, #224	; 0xe0
20004f50:	491d      	ldr	r1, [pc, #116]	; (20004fc8 <clocks_init+0x2c8>)
20004f52:	680b      	ldr	r3, [r1, #0]
20004f54:	401a      	ands	r2, r3
20004f56:	2380      	movs	r3, #128	; 0x80
20004f58:	015b      	lsls	r3, r3, #5
20004f5a:	432b      	orrs	r3, r5
20004f5c:	601a      	str	r2, [r3, #0]
20004f5e:	2380      	movs	r3, #128	; 0x80
20004f60:	2280      	movs	r2, #128	; 0x80
20004f62:	019b      	lsls	r3, r3, #6
20004f64:	432b      	orrs	r3, r5
20004f66:	0112      	lsls	r2, r2, #4
20004f68:	601a      	str	r2, [r3, #0]
20004f6a:	2380      	movs	r3, #128	; 0x80
20004f6c:	005b      	lsls	r3, r3, #1
20004f6e:	604b      	str	r3, [r1, #4]
20004f70:	4b0e      	ldr	r3, [pc, #56]	; (20004fac <clocks_init+0x2ac>)
20004f72:	61a3      	str	r3, [r4, #24]
20004f74:	e6da      	b.n	20004d2c <clocks_init+0x2c>
20004f76:	46c0      	nop			; (mov r8, r8)
20004f78:	20011064 	.word	0x20011064
20004f7c:	02dc6c00 	.word	0x02dc6c00
20004f80:	0000b71b 	.word	0x0000b71b
20004f84:	40008000 	.word	0x40008000
20004f88:	4000b03c 	.word	0x4000b03c
20004f8c:	4000b030 	.word	0x4000b030
20004f90:	59682f00 	.word	0x59682f00
20004f94:	40028000 	.word	0x40028000
20004f98:	47868c00 	.word	0x47868c00
20004f9c:	4002c000 	.word	0x4002c000
20004fa0:	40008030 	.word	0x40008030
20004fa4:	00b71b00 	.word	0x00b71b00
20004fa8:	4000803c 	.word	0x4000803c
20004fac:	07735940 	.word	0x07735940
20004fb0:	40008054 	.word	0x40008054
20004fb4:	4000b054 	.word	0x4000b054
20004fb8:	40008060 	.word	0x40008060
20004fbc:	4000b060 	.word	0x4000b060
20004fc0:	4000806c 	.word	0x4000806c
20004fc4:	4000b06c 	.word	0x4000b06c
20004fc8:	40008048 	.word	0x40008048
20004fcc:	4000b048 	.word	0x4000b048

20004fd0 <clock_get_hz>:
20004fd0:	4b01      	ldr	r3, [pc, #4]	; (20004fd8 <clock_get_hz+0x8>)
20004fd2:	0080      	lsls	r0, r0, #2
20004fd4:	58c0      	ldr	r0, [r0, r3]
20004fd6:	4770      	bx	lr
20004fd8:	20011064 	.word	0x20011064

20004fdc <pll_init>:
20004fdc:	b5f8      	push	{r3, r4, r5, r6, r7, lr}
20004fde:	0004      	movs	r4, r0
20004fe0:	4821      	ldr	r0, [pc, #132]	; (20005068 <pll_init+0x8c>)
20004fe2:	001d      	movs	r5, r3
20004fe4:	0017      	movs	r7, r2
20004fe6:	000e      	movs	r6, r1
20004fe8:	f000 f960 	bl	200052ac <__wrap___aeabi_uidiv>
20004fec:	0001      	movs	r1, r0
20004fee:	0038      	movs	r0, r7
20004ff0:	f000 f95c 	bl	200052ac <__wrap___aeabi_uidiv>
20004ff4:	9b06      	ldr	r3, [sp, #24]
20004ff6:	0429      	lsls	r1, r5, #16
20004ff8:	031b      	lsls	r3, r3, #12
20004ffa:	4319      	orrs	r1, r3
20004ffc:	6823      	ldr	r3, [r4, #0]
20004ffe:	2b00      	cmp	r3, #0
20005000:	db20      	blt.n	20005044 <pll_init+0x68>
20005002:	4b1a      	ldr	r3, [pc, #104]	; (2000506c <pll_init+0x90>)
20005004:	4d1a      	ldr	r5, [pc, #104]	; (20005070 <pll_init+0x94>)
20005006:	18e2      	adds	r2, r4, r3
20005008:	4253      	negs	r3, r2
2000500a:	415a      	adcs	r2, r3
2000500c:	2380      	movs	r3, #128	; 0x80
2000500e:	015b      	lsls	r3, r3, #5
20005010:	469c      	mov	ip, r3
20005012:	0312      	lsls	r2, r2, #12
20005014:	4b17      	ldr	r3, [pc, #92]	; (20005074 <pll_init+0x98>)
20005016:	4462      	add	r2, ip
20005018:	601a      	str	r2, [r3, #0]
2000501a:	4b17      	ldr	r3, [pc, #92]	; (20005078 <pll_init+0x9c>)
2000501c:	601a      	str	r2, [r3, #0]
2000501e:	0017      	movs	r7, r2
20005020:	68ab      	ldr	r3, [r5, #8]
20005022:	439f      	bics	r7, r3
20005024:	d1fb      	bne.n	2000501e <pll_init+0x42>
20005026:	22c0      	movs	r2, #192	; 0xc0
20005028:	1d23      	adds	r3, r4, #4
2000502a:	0192      	lsls	r2, r2, #6
2000502c:	431a      	orrs	r2, r3
2000502e:	2321      	movs	r3, #33	; 0x21
20005030:	6026      	str	r6, [r4, #0]
20005032:	60a0      	str	r0, [r4, #8]
20005034:	6013      	str	r3, [r2, #0]
20005036:	6823      	ldr	r3, [r4, #0]
20005038:	2b00      	cmp	r3, #0
2000503a:	dafc      	bge.n	20005036 <pll_init+0x5a>
2000503c:	2308      	movs	r3, #8
2000503e:	60e1      	str	r1, [r4, #12]
20005040:	6013      	str	r3, [r2, #0]
20005042:	bdf8      	pop	{r3, r4, r5, r6, r7, pc}
20005044:	233f      	movs	r3, #63	; 0x3f
20005046:	6822      	ldr	r2, [r4, #0]
20005048:	4013      	ands	r3, r2
2000504a:	42b3      	cmp	r3, r6
2000504c:	d1d9      	bne.n	20005002 <pll_init+0x26>
2000504e:	68a3      	ldr	r3, [r4, #8]
20005050:	051b      	lsls	r3, r3, #20
20005052:	0d1b      	lsrs	r3, r3, #20
20005054:	4283      	cmp	r3, r0
20005056:	d1d4      	bne.n	20005002 <pll_init+0x26>
20005058:	22ee      	movs	r2, #238	; 0xee
2000505a:	68e3      	ldr	r3, [r4, #12]
2000505c:	02d2      	lsls	r2, r2, #11
2000505e:	4013      	ands	r3, r2
20005060:	428b      	cmp	r3, r1
20005062:	d1ce      	bne.n	20005002 <pll_init+0x26>
20005064:	e7ed      	b.n	20005042 <pll_init+0x66>
20005066:	46c0      	nop			; (mov r8, r8)
20005068:	00b71b00 	.word	0x00b71b00
2000506c:	bffd4000 	.word	0xbffd4000
20005070:	4000c000 	.word	0x4000c000
20005074:	4000e000 	.word	0x4000e000
20005078:	4000f000 	.word	0x4000f000

2000507c <watchdog_start_tick>:
2000507c:	2380      	movs	r3, #128	; 0x80
2000507e:	4a02      	ldr	r2, [pc, #8]	; (20005088 <watchdog_start_tick+0xc>)
20005080:	009b      	lsls	r3, r3, #2
20005082:	4303      	orrs	r3, r0
20005084:	62d3      	str	r3, [r2, #44]	; 0x2c
20005086:	4770      	bx	lr
20005088:	40058000 	.word	0x40058000

2000508c <xosc_init>:
2000508c:	23aa      	movs	r3, #170	; 0xaa
2000508e:	4a06      	ldr	r2, [pc, #24]	; (200050a8 <xosc_init+0x1c>)
20005090:	011b      	lsls	r3, r3, #4
20005092:	6013      	str	r3, [r2, #0]
20005094:	232f      	movs	r3, #47	; 0x2f
20005096:	4905      	ldr	r1, [pc, #20]	; (200050ac <xosc_init+0x20>)
20005098:	60d3      	str	r3, [r2, #12]
2000509a:	4b05      	ldr	r3, [pc, #20]	; (200050b0 <xosc_init+0x24>)
2000509c:	6019      	str	r1, [r3, #0]
2000509e:	6853      	ldr	r3, [r2, #4]
200050a0:	2b00      	cmp	r3, #0
200050a2:	dafc      	bge.n	2000509e <xosc_init+0x12>
200050a4:	4770      	bx	lr
200050a6:	46c0      	nop			; (mov r8, r8)
200050a8:	40024000 	.word	0x40024000
200050ac:	00fab000 	.word	0x00fab000
200050b0:	40026000 	.word	0x40026000

200050b4 <runtime_init>:
200050b4:	4b2c      	ldr	r3, [pc, #176]	; (20005168 <runtime_init+0xb4>)
200050b6:	4a2d      	ldr	r2, [pc, #180]	; (2000516c <runtime_init+0xb8>)
200050b8:	b570      	push	{r4, r5, r6, lr}
200050ba:	601a      	str	r2, [r3, #0]
200050bc:	4a2c      	ldr	r2, [pc, #176]	; (20005170 <runtime_init+0xbc>)
200050be:	4b2d      	ldr	r3, [pc, #180]	; (20005174 <runtime_init+0xc0>)
200050c0:	492d      	ldr	r1, [pc, #180]	; (20005178 <runtime_init+0xc4>)
200050c2:	601a      	str	r2, [r3, #0]
200050c4:	0014      	movs	r4, r2
200050c6:	688b      	ldr	r3, [r1, #8]
200050c8:	439c      	bics	r4, r3
200050ca:	d1fb      	bne.n	200050c4 <runtime_init+0x10>
200050cc:	4d2b      	ldr	r5, [pc, #172]	; (2000517c <runtime_init+0xc8>)
200050ce:	4e2c      	ldr	r6, [pc, #176]	; (20005180 <runtime_init+0xcc>)
200050d0:	42b5      	cmp	r5, r6
200050d2:	d208      	bcs.n	200050e6 <runtime_init+0x32>
200050d4:	3e01      	subs	r6, #1
200050d6:	1b76      	subs	r6, r6, r5
200050d8:	08b6      	lsrs	r6, r6, #2
200050da:	cd08      	ldmia	r5!, {r3}
200050dc:	4798      	blx	r3
200050de:	0023      	movs	r3, r4
200050e0:	3401      	adds	r4, #1
200050e2:	42b3      	cmp	r3, r6
200050e4:	d1f9      	bne.n	200050da <runtime_init+0x26>
200050e6:	f7ff fe0b 	bl	20004d00 <clocks_init>
200050ea:	4a26      	ldr	r2, [pc, #152]	; (20005184 <runtime_init+0xd0>)
200050ec:	4b21      	ldr	r3, [pc, #132]	; (20005174 <runtime_init+0xc0>)
200050ee:	601a      	str	r2, [r3, #0]
200050f0:	4a21      	ldr	r2, [pc, #132]	; (20005178 <runtime_init+0xc4>)
200050f2:	6893      	ldr	r3, [r2, #8]
200050f4:	43db      	mvns	r3, r3
200050f6:	01db      	lsls	r3, r3, #7
200050f8:	09dd      	lsrs	r5, r3, #7
200050fa:	2b00      	cmp	r3, #0
200050fc:	d1f9      	bne.n	200050f2 <runtime_init+0x3e>
200050fe:	2240      	movs	r2, #64	; 0x40
20005100:	4b21      	ldr	r3, [pc, #132]	; (20005188 <runtime_init+0xd4>)
20005102:	4c22      	ldr	r4, [pc, #136]	; (2000518c <runtime_init+0xd8>)
20005104:	4e22      	ldr	r6, [pc, #136]	; (20005190 <runtime_init+0xdc>)
20005106:	679a      	str	r2, [r3, #120]	; 0x78
20005108:	675a      	str	r2, [r3, #116]	; 0x74
2000510a:	671a      	str	r2, [r3, #112]	; 0x70
2000510c:	66da      	str	r2, [r3, #108]	; 0x6c
2000510e:	42b4      	cmp	r4, r6
20005110:	d208      	bcs.n	20005124 <runtime_init+0x70>
20005112:	6823      	ldr	r3, [r4, #0]
20005114:	0020      	movs	r0, r4
20005116:	2b00      	cmp	r3, #0
20005118:	d020      	beq.n	2000515c <runtime_init+0xa8>
2000511a:	340c      	adds	r4, #12
2000511c:	f7fe fb28 	bl	20003770 <recursive_mutex_init>
20005120:	42b4      	cmp	r4, r6
20005122:	d3f6      	bcc.n	20005112 <runtime_init+0x5e>
20005124:	4e1b      	ldr	r6, [pc, #108]	; (20005194 <runtime_init+0xe0>)
20005126:	4c1c      	ldr	r4, [pc, #112]	; (20005198 <runtime_init+0xe4>)
20005128:	22c0      	movs	r2, #192	; 0xc0
2000512a:	68a1      	ldr	r1, [r4, #8]
2000512c:	0030      	movs	r0, r6
2000512e:	f000 fbc5 	bl	200058bc <__wrap___aeabi_memcpy>
20005132:	60a6      	str	r6, [r4, #8]
20005134:	f7ff f810 	bl	20004158 <spin_locks_reset>
20005138:	f7ff fab6 	bl	200046a8 <irq_init_priorities>
2000513c:	f7fe fcc2 	bl	20003ac4 <alarm_pool_init_default>
20005140:	4c16      	ldr	r4, [pc, #88]	; (2000519c <runtime_init+0xe8>)
20005142:	4e17      	ldr	r6, [pc, #92]	; (200051a0 <runtime_init+0xec>)
20005144:	42b4      	cmp	r4, r6
20005146:	d208      	bcs.n	2000515a <runtime_init+0xa6>
20005148:	3e01      	subs	r6, #1
2000514a:	1b36      	subs	r6, r6, r4
2000514c:	08b6      	lsrs	r6, r6, #2
2000514e:	cc08      	ldmia	r4!, {r3}
20005150:	4798      	blx	r3
20005152:	002b      	movs	r3, r5
20005154:	3501      	adds	r5, #1
20005156:	429e      	cmp	r6, r3
20005158:	d1f9      	bne.n	2000514e <runtime_init+0x9a>
2000515a:	bd70      	pop	{r4, r5, r6, pc}
2000515c:	3408      	adds	r4, #8
2000515e:	f7fe faf9 	bl	20003754 <mutex_init>
20005162:	42b4      	cmp	r4, r6
20005164:	d3d5      	bcc.n	20005112 <runtime_init+0x5e>
20005166:	e7dd      	b.n	20005124 <runtime_init+0x70>
20005168:	4000e000 	.word	0x4000e000
2000516c:	fefbcdbf 	.word	0xfefbcdbf
20005170:	003c7ffe 	.word	0x003c7ffe
20005174:	4000f000 	.word	0x4000f000
20005178:	4000c000 	.word	0x4000c000
2000517c:	2000b564 	.word	0x2000b564
20005180:	2000b574 	.word	0x2000b574
20005184:	01ffffff 	.word	0x01ffffff
20005188:	4001f000 	.word	0x4001f000
2000518c:	2000b554 	.word	0x2000b554
20005190:	2000b564 	.word	0x2000b564
20005194:	20000000 	.word	0x20000000
20005198:	e000ed00 	.word	0xe000ed00
2000519c:	2000b574 	.word	0x2000b574
200051a0:	2000b580 	.word	0x2000b580

200051a4 <_exit>:
200051a4:	be00      	bkpt	0x0000
200051a6:	e7fd      	b.n	200051a4 <_exit>

200051a8 <exit>:
200051a8:	b510      	push	{r4, lr}
200051aa:	f7ff fffb 	bl	200051a4 <_exit>
200051ae:	46c0      	nop			; (mov r8, r8)

200051b0 <panic>:
200051b0:	b40f      	push	{r0, r1, r2, r3}
200051b2:	b500      	push	{lr}
200051b4:	4808      	ldr	r0, [pc, #32]	; (200051d8 <panic+0x28>)
200051b6:	b083      	sub	sp, #12
200051b8:	f000 fcb2 	bl	20005b20 <__wrap_puts>
200051bc:	9b04      	ldr	r3, [sp, #16]
200051be:	2b00      	cmp	r3, #0
200051c0:	d007      	beq.n	200051d2 <panic+0x22>
200051c2:	a905      	add	r1, sp, #20
200051c4:	0018      	movs	r0, r3
200051c6:	9101      	str	r1, [sp, #4]
200051c8:	f000 f81e 	bl	20005208 <weak_raw_vprintf>
200051cc:	4803      	ldr	r0, [pc, #12]	; (200051dc <panic+0x2c>)
200051ce:	f000 fca7 	bl	20005b20 <__wrap_puts>
200051d2:	2001      	movs	r0, #1
200051d4:	f7ff ffe6 	bl	200051a4 <_exit>
200051d8:	2000b174 	.word	0x2000b174
200051dc:	2000af7c 	.word	0x2000af7c

200051e0 <panic_unsupported>:
200051e0:	b510      	push	{r4, lr}
200051e2:	4801      	ldr	r0, [pc, #4]	; (200051e8 <panic_unsupported+0x8>)
200051e4:	f7ff ffe4 	bl	200051b0 <panic>
200051e8:	2000b184 	.word	0x2000b184

200051ec <hard_assertion_failure>:
200051ec:	b510      	push	{r4, lr}
200051ee:	4801      	ldr	r0, [pc, #4]	; (200051f4 <hard_assertion_failure+0x8>)
200051f0:	f7ff ffde 	bl	200051b0 <panic>
200051f4:	2000b194 	.word	0x2000b194

200051f8 <_out_char>:
200051f8:	b510      	push	{r4, lr}
200051fa:	2800      	cmp	r0, #0
200051fc:	d100      	bne.n	20005200 <_out_char+0x8>
200051fe:	bd10      	pop	{r4, pc}
20005200:	f000 fc42 	bl	20005a88 <__wrap_putchar>
20005204:	e7fb      	b.n	200051fe <_out_char+0x6>
20005206:	46c0      	nop			; (mov r8, r8)

20005208 <weak_raw_vprintf>:
20005208:	b510      	push	{r4, lr}
2000520a:	4a09      	ldr	r2, [pc, #36]	; (20005230 <weak_raw_vprintf+0x28>)
2000520c:	0003      	movs	r3, r0
2000520e:	6814      	ldr	r4, [r2, #0]
20005210:	b084      	sub	sp, #16
20005212:	2c00      	cmp	r4, #0
20005214:	d008      	beq.n	20005228 <weak_raw_vprintf+0x20>
20005216:	2201      	movs	r2, #1
20005218:	9100      	str	r1, [sp, #0]
2000521a:	4806      	ldr	r0, [pc, #24]	; (20005234 <weak_raw_vprintf+0x2c>)
2000521c:	4252      	negs	r2, r2
2000521e:	a903      	add	r1, sp, #12
20005220:	47a0      	blx	r4
20005222:	2001      	movs	r0, #1
20005224:	b004      	add	sp, #16
20005226:	bd10      	pop	{r4, pc}
20005228:	f000 fc7a 	bl	20005b20 <__wrap_puts>
2000522c:	2000      	movs	r0, #0
2000522e:	e7f9      	b.n	20005224 <weak_raw_vprintf+0x1c>
20005230:	200114e0 	.word	0x200114e0
20005234:	200051f9 	.word	0x200051f9

20005238 <__aeabi_bits_init>:
20005238:	4801      	ldr	r0, [pc, #4]	; (20005240 <__aeabi_bits_init+0x8>)
2000523a:	2104      	movs	r1, #4
2000523c:	4b01      	ldr	r3, [pc, #4]	; (20005244 <__aeabi_bits_init+0xc>)
2000523e:	4718      	bx	r3
20005240:	2000b4f0 	.word	0x2000b4f0
20005244:	20005269 	.word	0x20005269

20005248 <rom_func_lookup>:
20005248:	2314      	movs	r3, #20
2000524a:	b510      	push	{r4, lr}
2000524c:	0001      	movs	r1, r0
2000524e:	8818      	ldrh	r0, [r3, #0]
20005250:	3304      	adds	r3, #4
20005252:	881b      	ldrh	r3, [r3, #0]
20005254:	4798      	blx	r3
20005256:	bd10      	pop	{r4, pc}

20005258 <rom_data_lookup>:
20005258:	2316      	movs	r3, #22
2000525a:	b510      	push	{r4, lr}
2000525c:	0001      	movs	r1, r0
2000525e:	8818      	ldrh	r0, [r3, #0]
20005260:	3302      	adds	r3, #2
20005262:	881b      	ldrh	r3, [r3, #0]
20005264:	4798      	blx	r3
20005266:	bd10      	pop	{r4, pc}

20005268 <rom_funcs_lookup>:
20005268:	b5f8      	push	{r3, r4, r5, r6, r7, lr}
2000526a:	4647      	mov	r7, r8
2000526c:	46ce      	mov	lr, r9
2000526e:	b580      	push	{r7, lr}
20005270:	1e0f      	subs	r7, r1, #0
20005272:	d019      	beq.n	200052a8 <rom_funcs_lookup+0x40>
20005274:	2314      	movs	r3, #20
20005276:	4699      	mov	r9, r3
20005278:	3304      	adds	r3, #4
2000527a:	0004      	movs	r4, r0
2000527c:	2500      	movs	r5, #0
2000527e:	2601      	movs	r6, #1
20005280:	4698      	mov	r8, r3
20005282:	464b      	mov	r3, r9
20005284:	8818      	ldrh	r0, [r3, #0]
20005286:	4643      	mov	r3, r8
20005288:	6821      	ldr	r1, [r4, #0]
2000528a:	881b      	ldrh	r3, [r3, #0]
2000528c:	4798      	blx	r3
2000528e:	c401      	stmia	r4!, {r0}
20005290:	1e43      	subs	r3, r0, #1
20005292:	4198      	sbcs	r0, r3
20005294:	3501      	adds	r5, #1
20005296:	4240      	negs	r0, r0
20005298:	4006      	ands	r6, r0
2000529a:	42af      	cmp	r7, r5
2000529c:	d1f1      	bne.n	20005282 <rom_funcs_lookup+0x1a>
2000529e:	0030      	movs	r0, r6
200052a0:	bcc0      	pop	{r6, r7}
200052a2:	46b9      	mov	r9, r7
200052a4:	46b0      	mov	r8, r6
200052a6:	bdf8      	pop	{r3, r4, r5, r6, r7, pc}
200052a8:	2601      	movs	r6, #1
200052aa:	e7f8      	b.n	2000529e <rom_funcs_lookup+0x36>

200052ac <__wrap___aeabi_uidiv>:
200052ac:	4a11      	ldr	r2, [pc, #68]	; (200052f4 <divmod_u32u32_savestate+0x18>)
200052ae:	6f93      	ldr	r3, [r2, #120]	; 0x78
200052b0:	089b      	lsrs	r3, r3, #2
200052b2:	d213      	bcs.n	200052dc <divmod_u32u32_savestate>

200052b4 <divmod_u32u32_unsafe>:
200052b4:	6610      	str	r0, [r2, #96]	; 0x60
200052b6:	6651      	str	r1, [r2, #100]	; 0x64
200052b8:	2900      	cmp	r1, #0
200052ba:	d005      	beq.n	200052c8 <divmod_u32u32_unsafe+0x14>
200052bc:	e7ff      	b.n	200052be <divmod_u32u32_unsafe+0xa>
200052be:	e7ff      	b.n	200052c0 <divmod_u32u32_unsafe+0xc>
200052c0:	e7ff      	b.n	200052c2 <divmod_u32u32_unsafe+0xe>
200052c2:	6f51      	ldr	r1, [r2, #116]	; 0x74
200052c4:	6f10      	ldr	r0, [r2, #112]	; 0x70
200052c6:	4770      	bx	lr
200052c8:	b504      	push	{r2, lr}
200052ca:	2800      	cmp	r0, #0
200052cc:	d001      	beq.n	200052d2 <divmod_u32u32_unsafe+0x1e>
200052ce:	2000      	movs	r0, #0
200052d0:	43c0      	mvns	r0, r0
200052d2:	f004 ff5f 	bl	2000a194 <__aeabi_idiv0>
200052d6:	2100      	movs	r1, #0
200052d8:	bd04      	pop	{r2, pc}
200052da:	46c0      	nop			; (mov r8, r8)

200052dc <divmod_u32u32_savestate>:
200052dc:	b5f0      	push	{r4, r5, r6, r7, lr}
200052de:	6e14      	ldr	r4, [r2, #96]	; 0x60
200052e0:	6e55      	ldr	r5, [r2, #100]	; 0x64
200052e2:	6f57      	ldr	r7, [r2, #116]	; 0x74
200052e4:	6f16      	ldr	r6, [r2, #112]	; 0x70
200052e6:	f7ff ffe5 	bl	200052b4 <divmod_u32u32_unsafe>
200052ea:	6614      	str	r4, [r2, #96]	; 0x60
200052ec:	6655      	str	r5, [r2, #100]	; 0x64
200052ee:	6757      	str	r7, [r2, #116]	; 0x74
200052f0:	6716      	str	r6, [r2, #112]	; 0x70
200052f2:	bdf0      	pop	{r4, r5, r6, r7, pc}
200052f4:	d0000000 	.word	0xd0000000

200052f8 <__wrap___aeabi_ldivmod>:
200052f8:	4694      	mov	ip, r2
200052fa:	4a4a      	ldr	r2, [pc, #296]	; (20005424 <udiv0+0x1a>)
200052fc:	6f92      	ldr	r2, [r2, #120]	; 0x78
200052fe:	0892      	lsrs	r2, r2, #2
20005300:	4662      	mov	r2, ip
20005302:	d201      	bcs.n	20005308 <divmod_s64s64_savestate>
20005304:	e028      	b.n	20005358 <divmod_s64s64_unsafe>
20005306:	46c0      	nop			; (mov r8, r8)

20005308 <divmod_s64s64_savestate>:
20005308:	b5f0      	push	{r4, r5, r6, r7, lr}
2000530a:	4e46      	ldr	r6, [pc, #280]	; (20005424 <udiv0+0x1a>)
2000530c:	6e34      	ldr	r4, [r6, #96]	; 0x60
2000530e:	6e75      	ldr	r5, [r6, #100]	; 0x64
20005310:	6f77      	ldr	r7, [r6, #116]	; 0x74
20005312:	6f36      	ldr	r6, [r6, #112]	; 0x70
20005314:	f000 f820 	bl	20005358 <divmod_s64s64_unsafe>
20005318:	4694      	mov	ip, r2
2000531a:	4a42      	ldr	r2, [pc, #264]	; (20005424 <udiv0+0x1a>)
2000531c:	6614      	str	r4, [r2, #96]	; 0x60
2000531e:	6655      	str	r5, [r2, #100]	; 0x64
20005320:	6757      	str	r7, [r2, #116]	; 0x74
20005322:	6716      	str	r6, [r2, #112]	; 0x70
20005324:	4662      	mov	r2, ip
20005326:	bdf0      	pop	{r4, r5, r6, r7, pc}

20005328 <__wrap___aeabi_uldivmod>:
20005328:	4694      	mov	ip, r2
2000532a:	4a3e      	ldr	r2, [pc, #248]	; (20005424 <udiv0+0x1a>)
2000532c:	6f92      	ldr	r2, [r2, #120]	; 0x78
2000532e:	0892      	lsrs	r2, r2, #2
20005330:	4662      	mov	r2, ip
20005332:	d201      	bcs.n	20005338 <divmod_u64u64_savestate>
20005334:	e054      	b.n	200053e0 <divmod_u64u64_unsafe>
20005336:	46c0      	nop			; (mov r8, r8)

20005338 <divmod_u64u64_savestate>:
20005338:	b5f0      	push	{r4, r5, r6, r7, lr}
2000533a:	4e3a      	ldr	r6, [pc, #232]	; (20005424 <udiv0+0x1a>)
2000533c:	6e34      	ldr	r4, [r6, #96]	; 0x60
2000533e:	6e75      	ldr	r5, [r6, #100]	; 0x64
20005340:	6f77      	ldr	r7, [r6, #116]	; 0x74
20005342:	6f36      	ldr	r6, [r6, #112]	; 0x70
20005344:	f000 f84c 	bl	200053e0 <divmod_u64u64_unsafe>
20005348:	4694      	mov	ip, r2
2000534a:	4a36      	ldr	r2, [pc, #216]	; (20005424 <udiv0+0x1a>)
2000534c:	6614      	str	r4, [r2, #96]	; 0x60
2000534e:	6655      	str	r5, [r2, #100]	; 0x64
20005350:	6757      	str	r7, [r2, #116]	; 0x74
20005352:	6716      	str	r6, [r2, #112]	; 0x70
20005354:	4662      	mov	r2, ip
20005356:	bdf0      	pop	{r4, r5, r6, r7, pc}

20005358 <divmod_s64s64_unsafe>:
20005358:	2b00      	cmp	r3, #0
2000535a:	db24      	blt.n	200053a6 <l42_1+0x26>
2000535c:	d011      	beq.n	20005382 <l42_1+0x2>
2000535e:	2900      	cmp	r1, #0
20005360:	da3e      	bge.n	200053e0 <divmod_u64u64_unsafe>
20005362:	b500      	push	{lr}
20005364:	43c9      	mvns	r1, r1
20005366:	4240      	negs	r0, r0
20005368:	d100      	bne.n	2000536c <l40_1>
2000536a:	3101      	adds	r1, #1

2000536c <l40_1>:
2000536c:	f000 f838 	bl	200053e0 <divmod_u64u64_unsafe>
20005370:	43c9      	mvns	r1, r1
20005372:	4240      	negs	r0, r0
20005374:	d100      	bne.n	20005378 <l41_1>
20005376:	3101      	adds	r1, #1

20005378 <l41_1>:
20005378:	43db      	mvns	r3, r3
2000537a:	4252      	negs	r2, r2
2000537c:	d100      	bne.n	20005380 <l42_1>
2000537e:	3301      	adds	r3, #1

20005380 <l42_1>:
20005380:	bd00      	pop	{pc}
20005382:	2a00      	cmp	r2, #0
20005384:	d1eb      	bne.n	2000535e <divmod_s64s64_unsafe+0x6>
20005386:	2800      	cmp	r0, #0
20005388:	d101      	bne.n	2000538e <l42_1+0xe>
2000538a:	2900      	cmp	r1, #0
2000538c:	d005      	beq.n	2000539a <l42_1+0x1a>
2000538e:	2000      	movs	r0, #0
20005390:	0fc9      	lsrs	r1, r1, #31
20005392:	07c9      	lsls	r1, r1, #31
20005394:	d101      	bne.n	2000539a <l42_1+0x1a>
20005396:	43c0      	mvns	r0, r0
20005398:	0841      	lsrs	r1, r0, #1
2000539a:	b500      	push	{lr}
2000539c:	f004 fefa 	bl	2000a194 <__aeabi_idiv0>
200053a0:	2200      	movs	r2, #0
200053a2:	2300      	movs	r3, #0
200053a4:	bd00      	pop	{pc}
200053a6:	b500      	push	{lr}
200053a8:	2900      	cmp	r1, #0
200053aa:	db0a      	blt.n	200053c2 <l44_1+0x2>
200053ac:	43db      	mvns	r3, r3
200053ae:	4252      	negs	r2, r2
200053b0:	d100      	bne.n	200053b4 <l43_1>
200053b2:	3301      	adds	r3, #1

200053b4 <l43_1>:
200053b4:	f000 f814 	bl	200053e0 <divmod_u64u64_unsafe>
200053b8:	43c9      	mvns	r1, r1
200053ba:	4240      	negs	r0, r0
200053bc:	d100      	bne.n	200053c0 <l44_1>
200053be:	3101      	adds	r1, #1

200053c0 <l44_1>:
200053c0:	bd00      	pop	{pc}
200053c2:	43c9      	mvns	r1, r1
200053c4:	4240      	negs	r0, r0
200053c6:	d100      	bne.n	200053ca <l45_1>
200053c8:	3101      	adds	r1, #1

200053ca <l45_1>:
200053ca:	43db      	mvns	r3, r3
200053cc:	4252      	negs	r2, r2
200053ce:	d100      	bne.n	200053d2 <l46_1>
200053d0:	3301      	adds	r3, #1

200053d2 <l46_1>:
200053d2:	f000 f805 	bl	200053e0 <divmod_u64u64_unsafe>
200053d6:	43db      	mvns	r3, r3
200053d8:	4252      	negs	r2, r2
200053da:	d100      	bne.n	200053de <l47_1>
200053dc:	3301      	adds	r3, #1

200053de <l47_1>:
200053de:	bd00      	pop	{pc}

200053e0 <divmod_u64u64_unsafe>:
200053e0:	2900      	cmp	r1, #0
200053e2:	d123      	bne.n	2000542c <y64>
200053e4:	2b00      	cmp	r3, #0
200053e6:	d118      	bne.n	2000541a <udiv0+0x10>
200053e8:	2a00      	cmp	r2, #0
200053ea:	d00c      	beq.n	20005406 <divmod_u64u64_unsafe+0x26>
200053ec:	46bc      	mov	ip, r7
200053ee:	4f0d      	ldr	r7, [pc, #52]	; (20005424 <udiv0+0x1a>)
200053f0:	6638      	str	r0, [r7, #96]	; 0x60
200053f2:	667a      	str	r2, [r7, #100]	; 0x64
200053f4:	2100      	movs	r1, #0
200053f6:	2300      	movs	r3, #0
200053f8:	e7ff      	b.n	200053fa <divmod_u64u64_unsafe+0x1a>
200053fa:	e7ff      	b.n	200053fc <divmod_u64u64_unsafe+0x1c>
200053fc:	e7ff      	b.n	200053fe <divmod_u64u64_unsafe+0x1e>
200053fe:	6f7a      	ldr	r2, [r7, #116]	; 0x74
20005400:	6f38      	ldr	r0, [r7, #112]	; 0x70
20005402:	4667      	mov	r7, ip
20005404:	4770      	bx	lr
20005406:	2800      	cmp	r0, #0
20005408:	d001      	beq.n	2000540e <udiv0+0x4>

2000540a <udiv0>:
2000540a:	4807      	ldr	r0, [pc, #28]	; (20005428 <udiv0+0x1e>)
2000540c:	0001      	movs	r1, r0
2000540e:	b500      	push	{lr}
20005410:	f004 fec0 	bl	2000a194 <__aeabi_idiv0>
20005414:	2200      	movs	r2, #0
20005416:	2300      	movs	r3, #0
20005418:	bd00      	pop	{pc}
2000541a:	0002      	movs	r2, r0
2000541c:	000b      	movs	r3, r1
2000541e:	2000      	movs	r0, #0
20005420:	2100      	movs	r1, #0
20005422:	4770      	bx	lr
20005424:	d0000000 	.word	0xd0000000
20005428:	ffffffff 	.word	0xffffffff

2000542c <y64>:
2000542c:	2b00      	cmp	r3, #0
2000542e:	d000      	beq.n	20005432 <y64+0x6>
20005430:	e0bf      	b.n	200055b2 <y64_x48>
20005432:	0c13      	lsrs	r3, r2, #16
20005434:	d128      	bne.n	20005488 <y64_x32>
20005436:	2a00      	cmp	r2, #0
20005438:	d0e7      	beq.n	2000540a <udiv0>
2000543a:	b480      	push	{r7}
2000543c:	4f11      	ldr	r7, [pc, #68]	; (20005484 <y64+0x58>)
2000543e:	6639      	str	r1, [r7, #96]	; 0x60
20005440:	667a      	str	r2, [r7, #100]	; 0x64
20005442:	e7ff      	b.n	20005444 <y64+0x18>
20005444:	e7ff      	b.n	20005446 <y64+0x1a>
20005446:	b430      	push	{r4, r5}
20005448:	0c04      	lsrs	r4, r0, #16
2000544a:	6f7b      	ldr	r3, [r7, #116]	; 0x74
2000544c:	6f39      	ldr	r1, [r7, #112]	; 0x70
2000544e:	041b      	lsls	r3, r3, #16
20005450:	4323      	orrs	r3, r4
20005452:	663b      	str	r3, [r7, #96]	; 0x60
20005454:	667a      	str	r2, [r7, #100]	; 0x64
20005456:	e7ff      	b.n	20005458 <y64+0x2c>
20005458:	e7ff      	b.n	2000545a <y64+0x2e>
2000545a:	e7ff      	b.n	2000545c <y64+0x30>
2000545c:	46c0      	nop			; (mov r8, r8)
2000545e:	b284      	uxth	r4, r0
20005460:	6f7b      	ldr	r3, [r7, #116]	; 0x74
20005462:	6f3d      	ldr	r5, [r7, #112]	; 0x70
20005464:	041b      	lsls	r3, r3, #16
20005466:	4323      	orrs	r3, r4
20005468:	663b      	str	r3, [r7, #96]	; 0x60
2000546a:	667a      	str	r2, [r7, #100]	; 0x64
2000546c:	e7ff      	b.n	2000546e <y64+0x42>
2000546e:	e7ff      	b.n	20005470 <y64+0x44>
20005470:	46c0      	nop			; (mov r8, r8)
20005472:	2300      	movs	r3, #0
20005474:	042c      	lsls	r4, r5, #16
20005476:	0c2d      	lsrs	r5, r5, #16
20005478:	6f7a      	ldr	r2, [r7, #116]	; 0x74
2000547a:	6f38      	ldr	r0, [r7, #112]	; 0x70
2000547c:	1900      	adds	r0, r0, r4
2000547e:	4169      	adcs	r1, r5
20005480:	bcb0      	pop	{r4, r5, r7}
20005482:	4770      	bx	lr
20005484:	d0000000 	.word	0xd0000000

20005488 <y64_x32>:
20005488:	b5f0      	push	{r4, r5, r6, r7, lr}
2000548a:	4694      	mov	ip, r2
2000548c:	2500      	movs	r5, #0
2000548e:	0e14      	lsrs	r4, r2, #24
20005490:	d101      	bne.n	20005496 <y64_x32+0xe>
20005492:	0212      	lsls	r2, r2, #8
20005494:	3508      	adds	r5, #8
20005496:	0f14      	lsrs	r4, r2, #28
20005498:	d101      	bne.n	2000549e <y64_x32+0x16>
2000549a:	0112      	lsls	r2, r2, #4
2000549c:	3504      	adds	r5, #4
2000549e:	0f94      	lsrs	r4, r2, #30
200054a0:	d101      	bne.n	200054a6 <y64_x32+0x1e>
200054a2:	0092      	lsls	r2, r2, #2
200054a4:	3502      	adds	r5, #2
200054a6:	0fd4      	lsrs	r4, r2, #31
200054a8:	d101      	bne.n	200054ae <y64_x32+0x26>
200054aa:	0052      	lsls	r2, r2, #1
200054ac:	3501      	adds	r5, #1
200054ae:	0bd4      	lsrs	r4, r2, #15
200054b0:	3401      	adds	r4, #1
200054b2:	4f25      	ldr	r7, [pc, #148]	; (20005548 <y64_x32+0xc0>)
200054b4:	667c      	str	r4, [r7, #100]	; 0x64
200054b6:	4c25      	ldr	r4, [pc, #148]	; (2000554c <y64_x32+0xc4>)
200054b8:	663c      	str	r4, [r7, #96]	; 0x60
200054ba:	0c0e      	lsrs	r6, r1, #16
200054bc:	b293      	uxth	r3, r2
200054be:	e7ff      	b.n	200054c0 <y64_x32+0x38>
200054c0:	e7ff      	b.n	200054c2 <y64_x32+0x3a>
200054c2:	e7ff      	b.n	200054c4 <y64_x32+0x3c>
200054c4:	6f3c      	ldr	r4, [r7, #112]	; 0x70
200054c6:	4366      	muls	r6, r4
200054c8:	0c36      	lsrs	r6, r6, #16
200054ca:	0377      	lsls	r7, r6, #13
200054cc:	46be      	mov	lr, r7
200054ce:	4373      	muls	r3, r6
200054d0:	0bdf      	lsrs	r7, r3, #15
200054d2:	045b      	lsls	r3, r3, #17
200054d4:	1ac0      	subs	r0, r0, r3
200054d6:	41b9      	sbcs	r1, r7
200054d8:	0c13      	lsrs	r3, r2, #16
200054da:	4373      	muls	r3, r6
200054dc:	18db      	adds	r3, r3, r3
200054de:	1ac9      	subs	r1, r1, r3
200054e0:	08ce      	lsrs	r6, r1, #3
200054e2:	4366      	muls	r6, r4
200054e4:	0c36      	lsrs	r6, r6, #16
200054e6:	44b6      	add	lr, r6
200054e8:	b293      	uxth	r3, r2
200054ea:	4373      	muls	r3, r6
200054ec:	0f1f      	lsrs	r7, r3, #28
200054ee:	011b      	lsls	r3, r3, #4
200054f0:	1ac0      	subs	r0, r0, r3
200054f2:	41b9      	sbcs	r1, r7
200054f4:	0c13      	lsrs	r3, r2, #16
200054f6:	4373      	muls	r3, r6
200054f8:	0b1f      	lsrs	r7, r3, #12
200054fa:	051b      	lsls	r3, r3, #20
200054fc:	1ac0      	subs	r0, r0, r3
200054fe:	41b9      	sbcs	r1, r7
20005500:	0d86      	lsrs	r6, r0, #22
20005502:	028f      	lsls	r7, r1, #10
20005504:	433e      	orrs	r6, r7
20005506:	4366      	muls	r6, r4
20005508:	0c36      	lsrs	r6, r6, #16
2000550a:	2d09      	cmp	r5, #9
2000550c:	db24      	blt.n	20005558 <last0>
2000550e:	0a52      	lsrs	r2, r2, #9
20005510:	4372      	muls	r2, r6
20005512:	1a80      	subs	r0, r0, r2
20005514:	0377      	lsls	r7, r6, #13
20005516:	0a46      	lsrs	r6, r0, #9
20005518:	4366      	muls	r6, r4
2000551a:	0c36      	lsrs	r6, r6, #16
2000551c:	2316      	movs	r3, #22
2000551e:	1b5b      	subs	r3, r3, r5
20005520:	40de      	lsrs	r6, r3
20005522:	40df      	lsrs	r7, r3
20005524:	19bf      	adds	r7, r7, r6
20005526:	4664      	mov	r4, ip
20005528:	4366      	muls	r6, r4
2000552a:	1b82      	subs	r2, r0, r6
2000552c:	4670      	mov	r0, lr
2000552e:	3504      	adds	r5, #4
20005530:	3306      	adds	r3, #6
20005532:	0001      	movs	r1, r0
20005534:	40d9      	lsrs	r1, r3
20005536:	40a8      	lsls	r0, r5
20005538:	19c0      	adds	r0, r0, r7
2000553a:	d300      	bcc.n	2000553e <y64_x32+0xb6>
2000553c:	3101      	adds	r1, #1
2000553e:	42a2      	cmp	r2, r4
20005540:	d206      	bcs.n	20005550 <y64_x32+0xc8>
20005542:	2300      	movs	r3, #0
20005544:	bdf0      	pop	{r4, r5, r6, r7, pc}
20005546:	0000      	.short	0x0000
20005548:	d0000000 	.word	0xd0000000
2000554c:	ffffffff 	.word	0xffffffff
20005550:	1b12      	subs	r2, r2, r4
20005552:	3001      	adds	r0, #1
20005554:	d3f3      	bcc.n	2000553e <y64_x32+0xb6>
20005556:	e7f1      	b.n	2000553c <y64_x32+0xb4>

20005558 <last0>:
20005558:	2709      	movs	r7, #9
2000555a:	1b7f      	subs	r7, r7, r5
2000555c:	40fe      	lsrs	r6, r7
2000555e:	4664      	mov	r4, ip
20005560:	b2a2      	uxth	r2, r4
20005562:	4372      	muls	r2, r6
20005564:	1a80      	subs	r0, r0, r2
20005566:	d200      	bcs.n	2000556a <last0+0x12>
20005568:	3901      	subs	r1, #1
2000556a:	0c22      	lsrs	r2, r4, #16
2000556c:	4372      	muls	r2, r6
2000556e:	0c13      	lsrs	r3, r2, #16
20005570:	0412      	lsls	r2, r2, #16
20005572:	1a82      	subs	r2, r0, r2
20005574:	4199      	sbcs	r1, r3
20005576:	000b      	movs	r3, r1
20005578:	4670      	mov	r0, lr
2000557a:	3504      	adds	r5, #4
2000557c:	3713      	adds	r7, #19
2000557e:	0001      	movs	r1, r0
20005580:	40f9      	lsrs	r1, r7
20005582:	40a8      	lsls	r0, r5
20005584:	1980      	adds	r0, r0, r6
20005586:	d300      	bcc.n	2000558a <last0+0x32>
20005588:	3101      	adds	r1, #1
2000558a:	2b00      	cmp	r3, #0
2000558c:	d102      	bne.n	20005594 <last0+0x3c>
2000558e:	42a2      	cmp	r2, r4
20005590:	d20a      	bcs.n	200055a8 <last0+0x50>
20005592:	bdf0      	pop	{r4, r5, r6, r7, pc}
20005594:	3001      	adds	r0, #1
20005596:	d300      	bcc.n	2000559a <last0+0x42>
20005598:	3101      	adds	r1, #1
2000559a:	1b12      	subs	r2, r2, r4
2000559c:	d2fa      	bcs.n	20005594 <last0+0x3c>
2000559e:	3b01      	subs	r3, #1
200055a0:	d1f8      	bne.n	20005594 <last0+0x3c>
200055a2:	42a2      	cmp	r2, r4
200055a4:	d200      	bcs.n	200055a8 <last0+0x50>
200055a6:	bdf0      	pop	{r4, r5, r6, r7, pc}
200055a8:	3001      	adds	r0, #1
200055aa:	d300      	bcc.n	200055ae <last0+0x56>
200055ac:	3101      	adds	r1, #1
200055ae:	1b12      	subs	r2, r2, r4
200055b0:	e7f7      	b.n	200055a2 <last0+0x4a>

200055b2 <y64_x48>:
200055b2:	b5f0      	push	{r4, r5, r6, r7, lr}
200055b4:	0c1c      	lsrs	r4, r3, #16
200055b6:	d000      	beq.n	200055ba <y64_x48+0x8>
200055b8:	e080      	b.n	200056bc <y64_x64>
200055ba:	b40c      	push	{r2, r3}
200055bc:	2500      	movs	r5, #0
200055be:	0a1c      	lsrs	r4, r3, #8
200055c0:	d104      	bne.n	200055cc <y64_x48+0x1a>
200055c2:	021b      	lsls	r3, r3, #8
200055c4:	0e16      	lsrs	r6, r2, #24
200055c6:	4333      	orrs	r3, r6
200055c8:	0212      	lsls	r2, r2, #8
200055ca:	3508      	adds	r5, #8
200055cc:	0b1c      	lsrs	r4, r3, #12
200055ce:	d104      	bne.n	200055da <y64_x48+0x28>
200055d0:	011b      	lsls	r3, r3, #4
200055d2:	0f16      	lsrs	r6, r2, #28
200055d4:	4333      	orrs	r3, r6
200055d6:	0112      	lsls	r2, r2, #4
200055d8:	3504      	adds	r5, #4
200055da:	0b9c      	lsrs	r4, r3, #14
200055dc:	d104      	bne.n	200055e8 <y64_x48+0x36>
200055de:	009b      	lsls	r3, r3, #2
200055e0:	0f96      	lsrs	r6, r2, #30
200055e2:	4333      	orrs	r3, r6
200055e4:	0092      	lsls	r2, r2, #2
200055e6:	3502      	adds	r5, #2
200055e8:	0bdc      	lsrs	r4, r3, #15
200055ea:	d102      	bne.n	200055f2 <y64_x48+0x40>
200055ec:	1892      	adds	r2, r2, r2
200055ee:	415b      	adcs	r3, r3
200055f0:	3501      	adds	r5, #1
200055f2:	001c      	movs	r4, r3
200055f4:	1897      	adds	r7, r2, r2
200055f6:	4164      	adcs	r4, r4
200055f8:	3401      	adds	r4, #1
200055fa:	4f46      	ldr	r7, [pc, #280]	; (20005714 <y64_x64+0x58>)
200055fc:	667c      	str	r4, [r7, #100]	; 0x64
200055fe:	4c46      	ldr	r4, [pc, #280]	; (20005718 <y64_x64+0x5c>)
20005600:	663c      	str	r4, [r7, #96]	; 0x60
20005602:	0c0e      	lsrs	r6, r1, #16
20005604:	e7ff      	b.n	20005606 <y64_x48+0x54>
20005606:	e7ff      	b.n	20005608 <y64_x48+0x56>
20005608:	e7ff      	b.n	2000560a <y64_x48+0x58>
2000560a:	46c0      	nop			; (mov r8, r8)
2000560c:	6f3c      	ldr	r4, [r7, #112]	; 0x70
2000560e:	4366      	muls	r6, r4
20005610:	0c36      	lsrs	r6, r6, #16
20005612:	0377      	lsls	r7, r6, #13
20005614:	46be      	mov	lr, r7
20005616:	b297      	uxth	r7, r2
20005618:	4377      	muls	r7, r6
2000561a:	1bc0      	subs	r0, r0, r7
2000561c:	d200      	bcs.n	20005620 <y64_x48+0x6e>
2000561e:	3901      	subs	r1, #1
20005620:	1bc0      	subs	r0, r0, r7
20005622:	d200      	bcs.n	20005626 <y64_x48+0x74>
20005624:	3901      	subs	r1, #1
20005626:	b29f      	uxth	r7, r3
20005628:	4377      	muls	r7, r6
2000562a:	1bc9      	subs	r1, r1, r7
2000562c:	1bc9      	subs	r1, r1, r7
2000562e:	0c17      	lsrs	r7, r2, #16
20005630:	4377      	muls	r7, r6
20005632:	047e      	lsls	r6, r7, #17
20005634:	0bff      	lsrs	r7, r7, #15
20005636:	1b80      	subs	r0, r0, r6
20005638:	41b9      	sbcs	r1, r7
2000563a:	08ce      	lsrs	r6, r1, #3
2000563c:	4366      	muls	r6, r4
2000563e:	0c36      	lsrs	r6, r6, #16
20005640:	2d0c      	cmp	r5, #12
20005642:	db33      	blt.n	200056ac <last1>
20005644:	44b6      	add	lr, r6
20005646:	0b12      	lsrs	r2, r2, #12
20005648:	051f      	lsls	r7, r3, #20
2000564a:	433a      	orrs	r2, r7
2000564c:	0b1b      	lsrs	r3, r3, #12
2000564e:	b297      	uxth	r7, r2
20005650:	4377      	muls	r7, r6
20005652:	1bc0      	subs	r0, r0, r7
20005654:	d200      	bcs.n	20005658 <y64_x48+0xa6>
20005656:	3901      	subs	r1, #1
20005658:	b29f      	uxth	r7, r3
2000565a:	4377      	muls	r7, r6
2000565c:	1bc9      	subs	r1, r1, r7
2000565e:	0c17      	lsrs	r7, r2, #16
20005660:	4377      	muls	r7, r6
20005662:	043e      	lsls	r6, r7, #16
20005664:	0c3f      	lsrs	r7, r7, #16
20005666:	1b80      	subs	r0, r0, r6
20005668:	41b9      	sbcs	r1, r7
2000566a:	0d86      	lsrs	r6, r0, #22
2000566c:	028f      	lsls	r7, r1, #10
2000566e:	433e      	orrs	r6, r7
20005670:	4366      	muls	r6, r4
20005672:	2729      	movs	r7, #41	; 0x29
20005674:	1b7f      	subs	r7, r7, r5
20005676:	40fe      	lsrs	r6, r7
20005678:	3d0c      	subs	r5, #12
2000567a:	4677      	mov	r7, lr
2000567c:	40af      	lsls	r7, r5
2000567e:	19bf      	adds	r7, r7, r6
20005680:	bc30      	pop	{r4, r5}
20005682:	b2a2      	uxth	r2, r4
20005684:	b2ab      	uxth	r3, r5
20005686:	4372      	muls	r2, r6
20005688:	4373      	muls	r3, r6
2000568a:	1a80      	subs	r0, r0, r2
2000568c:	4199      	sbcs	r1, r3
2000568e:	0c22      	lsrs	r2, r4, #16
20005690:	4372      	muls	r2, r6
20005692:	0c13      	lsrs	r3, r2, #16
20005694:	0412      	lsls	r2, r2, #16
20005696:	1a80      	subs	r0, r0, r2
20005698:	4199      	sbcs	r1, r3
2000569a:	0002      	movs	r2, r0
2000569c:	000b      	movs	r3, r1
2000569e:	3701      	adds	r7, #1
200056a0:	1b00      	subs	r0, r0, r4
200056a2:	41a9      	sbcs	r1, r5
200056a4:	d2f9      	bcs.n	2000569a <y64_x48+0xe8>
200056a6:	1e78      	subs	r0, r7, #1
200056a8:	2100      	movs	r1, #0
200056aa:	bdf0      	pop	{r4, r5, r6, r7, pc}

200056ac <last1>:
200056ac:	270c      	movs	r7, #12
200056ae:	1b7f      	subs	r7, r7, r5
200056b0:	40fe      	lsrs	r6, r7
200056b2:	4677      	mov	r7, lr
200056b4:	0b7f      	lsrs	r7, r7, #13
200056b6:	40af      	lsls	r7, r5
200056b8:	19ff      	adds	r7, r7, r7
200056ba:	e7e0      	b.n	2000567e <y64_x48+0xcc>

200056bc <y64_x64>:
200056bc:	2400      	movs	r4, #0
200056be:	1c5d      	adds	r5, r3, #1
200056c0:	d007      	beq.n	200056d2 <y64_x64+0x16>
200056c2:	4f14      	ldr	r7, [pc, #80]	; (20005714 <y64_x64+0x58>)
200056c4:	667d      	str	r5, [r7, #100]	; 0x64
200056c6:	6639      	str	r1, [r7, #96]	; 0x60
200056c8:	e7ff      	b.n	200056ca <y64_x64+0xe>
200056ca:	e7ff      	b.n	200056cc <y64_x64+0x10>
200056cc:	e7ff      	b.n	200056ce <y64_x64+0x12>
200056ce:	e7ff      	b.n	200056d0 <y64_x64+0x14>
200056d0:	6f3c      	ldr	r4, [r7, #112]	; 0x70
200056d2:	b295      	uxth	r5, r2
200056d4:	b29e      	uxth	r6, r3
200056d6:	4365      	muls	r5, r4
200056d8:	4366      	muls	r6, r4
200056da:	1b40      	subs	r0, r0, r5
200056dc:	41b1      	sbcs	r1, r6
200056de:	0c15      	lsrs	r5, r2, #16
200056e0:	0c1e      	lsrs	r6, r3, #16
200056e2:	4365      	muls	r5, r4
200056e4:	4366      	muls	r6, r4
200056e6:	0436      	lsls	r6, r6, #16
200056e8:	0c2f      	lsrs	r7, r5, #16
200056ea:	433e      	orrs	r6, r7
200056ec:	042d      	lsls	r5, r5, #16
200056ee:	1b40      	subs	r0, r0, r5
200056f0:	41b1      	sbcs	r1, r6
200056f2:	4299      	cmp	r1, r3
200056f4:	d204      	bcs.n	20005700 <y64_x64+0x44>
200056f6:	0002      	movs	r2, r0
200056f8:	000b      	movs	r3, r1
200056fa:	0020      	movs	r0, r4
200056fc:	2100      	movs	r1, #0
200056fe:	bdf0      	pop	{r4, r5, r6, r7, pc}
20005700:	d101      	bne.n	20005706 <y64_x64+0x4a>
20005702:	4290      	cmp	r0, r2
20005704:	d3f7      	bcc.n	200056f6 <y64_x64+0x3a>
20005706:	1a80      	subs	r0, r0, r2
20005708:	4199      	sbcs	r1, r3
2000570a:	3401      	adds	r4, #1
2000570c:	4299      	cmp	r1, r3
2000570e:	d3f2      	bcc.n	200056f6 <y64_x64+0x3a>
20005710:	e7f6      	b.n	20005700 <y64_x64+0x44>
20005712:	0000      	.short	0x0000
20005714:	d0000000 	.word	0xd0000000
20005718:	ffffffff 	.word	0xffffffff

2000571c <__aeabi_double_init>:
2000571c:	2313      	movs	r3, #19
2000571e:	b570      	push	{r4, r5, r6, lr}
20005720:	781d      	ldrb	r5, [r3, #0]
20005722:	2d01      	cmp	r5, #1
20005724:	d015      	beq.n	20005752 <__aeabi_double_init+0x36>
20005726:	dd10      	ble.n	2000574a <__aeabi_double_init+0x2e>
20005728:	481c      	ldr	r0, [pc, #112]	; (2000579c <__aeabi_double_init+0x80>)
2000572a:	f7ff fd95 	bl	20005258 <rom_data_lookup>
2000572e:	4c1c      	ldr	r4, [pc, #112]	; (200057a0 <__aeabi_double_init+0x84>)
20005730:	0001      	movs	r1, r0
20005732:	2280      	movs	r2, #128	; 0x80
20005734:	0020      	movs	r0, r4
20005736:	f000 f8c1 	bl	200058bc <__wrap___aeabi_memcpy>
2000573a:	2d02      	cmp	r5, #2
2000573c:	d006      	beq.n	2000574c <__aeabi_double_init+0x30>
2000573e:	4819      	ldr	r0, [pc, #100]	; (200057a4 <__aeabi_double_init+0x88>)
20005740:	f7ff fd82 	bl	20005248 <rom_func_lookup>
20005744:	4b18      	ldr	r3, [pc, #96]	; (200057a8 <__aeabi_double_init+0x8c>)
20005746:	6018      	str	r0, [r3, #0]
20005748:	bd70      	pop	{r4, r5, r6, pc}
2000574a:	4c15      	ldr	r4, [pc, #84]	; (200057a0 <__aeabi_double_init+0x84>)
2000574c:	4b17      	ldr	r3, [pc, #92]	; (200057ac <__aeabi_double_init+0x90>)
2000574e:	64a3      	str	r3, [r4, #72]	; 0x48
20005750:	e7f5      	b.n	2000573e <__aeabi_double_init+0x22>
20005752:	4b16      	ldr	r3, [pc, #88]	; (200057ac <__aeabi_double_init+0x90>)
20005754:	4c12      	ldr	r4, [pc, #72]	; (200057a0 <__aeabi_double_init+0x84>)
20005756:	6023      	str	r3, [r4, #0]
20005758:	6063      	str	r3, [r4, #4]
2000575a:	60a3      	str	r3, [r4, #8]
2000575c:	60e3      	str	r3, [r4, #12]
2000575e:	6123      	str	r3, [r4, #16]
20005760:	6163      	str	r3, [r4, #20]
20005762:	61a3      	str	r3, [r4, #24]
20005764:	61e3      	str	r3, [r4, #28]
20005766:	6223      	str	r3, [r4, #32]
20005768:	6263      	str	r3, [r4, #36]	; 0x24
2000576a:	62a3      	str	r3, [r4, #40]	; 0x28
2000576c:	62e3      	str	r3, [r4, #44]	; 0x2c
2000576e:	6323      	str	r3, [r4, #48]	; 0x30
20005770:	6363      	str	r3, [r4, #52]	; 0x34
20005772:	63a3      	str	r3, [r4, #56]	; 0x38
20005774:	63e3      	str	r3, [r4, #60]	; 0x3c
20005776:	6423      	str	r3, [r4, #64]	; 0x40
20005778:	6463      	str	r3, [r4, #68]	; 0x44
2000577a:	64a3      	str	r3, [r4, #72]	; 0x48
2000577c:	64e3      	str	r3, [r4, #76]	; 0x4c
2000577e:	6523      	str	r3, [r4, #80]	; 0x50
20005780:	6563      	str	r3, [r4, #84]	; 0x54
20005782:	65a3      	str	r3, [r4, #88]	; 0x58
20005784:	65e3      	str	r3, [r4, #92]	; 0x5c
20005786:	6623      	str	r3, [r4, #96]	; 0x60
20005788:	6663      	str	r3, [r4, #100]	; 0x64
2000578a:	66a3      	str	r3, [r4, #104]	; 0x68
2000578c:	66e3      	str	r3, [r4, #108]	; 0x6c
2000578e:	6723      	str	r3, [r4, #112]	; 0x70
20005790:	6763      	str	r3, [r4, #116]	; 0x74
20005792:	67a3      	str	r3, [r4, #120]	; 0x78
20005794:	67e3      	str	r3, [r4, #124]	; 0x7c
20005796:	64a3      	str	r3, [r4, #72]	; 0x48
20005798:	e7d1      	b.n	2000573e <__aeabi_double_init+0x22>
2000579a:	46c0      	nop			; (mov r8, r8)
2000579c:	00004453 	.word	0x00004453
200057a0:	2000b680 	.word	0x2000b680
200057a4:	0000334c 	.word	0x0000334c
200057a8:	200117a4 	.word	0x200117a4
200057ac:	200057b1 	.word	0x200057b1

200057b0 <double_table_shim_on_use_helper>:
200057b0:	b507      	push	{r0, r1, r2, lr}
200057b2:	4660      	mov	r0, ip
200057b4:	8801      	ldrh	r1, [r0, #0]
200057b6:	0a0a      	lsrs	r2, r1, #8
200057b8:	3002      	adds	r0, #2
200057ba:	2adf      	cmp	r2, #223	; 0xdf
200057bc:	d1fa      	bne.n	200057b4 <double_table_shim_on_use_helper+0x4>
200057be:	b2c9      	uxtb	r1, r1
200057c0:	0882      	lsrs	r2, r0, #2
200057c2:	d304      	bcc.n	200057ce <double_table_shim_on_use_helper+0x1e>
200057c4:	8802      	ldrh	r2, [r0, #0]
200057c6:	8840      	ldrh	r0, [r0, #2]
200057c8:	0400      	lsls	r0, r0, #16
200057ca:	4310      	orrs	r0, r2
200057cc:	e000      	b.n	200057d0 <double_table_shim_on_use_helper+0x20>
200057ce:	6800      	ldr	r0, [r0, #0]
200057d0:	4a01      	ldr	r2, [pc, #4]	; (200057d8 <double_table_shim_on_use_helper+0x28>)
200057d2:	5050      	str	r0, [r2, r1]
200057d4:	9003      	str	r0, [sp, #12]
200057d6:	bd07      	pop	{r0, r1, r2, pc}
200057d8:	2000b680 	.word	0x2000b680

200057dc <__wrap___aeabi_lmul>:
200057dc:	4351      	muls	r1, r2
200057de:	4343      	muls	r3, r0
200057e0:	18c9      	adds	r1, r1, r3
200057e2:	468c      	mov	ip, r1
200057e4:	0c11      	lsrs	r1, r2, #16
200057e6:	b283      	uxth	r3, r0
200057e8:	434b      	muls	r3, r1
200057ea:	b410      	push	{r4}
200057ec:	0c04      	lsrs	r4, r0, #16
200057ee:	4361      	muls	r1, r4
200057f0:	b292      	uxth	r2, r2
200057f2:	b280      	uxth	r0, r0
200057f4:	4350      	muls	r0, r2
200057f6:	4362      	muls	r2, r4
200057f8:	041c      	lsls	r4, r3, #16
200057fa:	0c1b      	lsrs	r3, r3, #16
200057fc:	1900      	adds	r0, r0, r4
200057fe:	bc10      	pop	{r4}
20005800:	4159      	adcs	r1, r3
20005802:	0413      	lsls	r3, r2, #16
20005804:	0c12      	lsrs	r2, r2, #16
20005806:	18c0      	adds	r0, r0, r3
20005808:	4151      	adcs	r1, r2
2000580a:	4461      	add	r1, ip
2000580c:	4770      	bx	lr
	...

20005810 <__aeabi_float_init>:
20005810:	2313      	movs	r3, #19
20005812:	b510      	push	{r4, lr}
20005814:	4812      	ldr	r0, [pc, #72]	; (20005860 <__aeabi_float_init+0x50>)
20005816:	781c      	ldrb	r4, [r3, #0]
20005818:	f7ff fd1e 	bl	20005258 <rom_data_lookup>
2000581c:	0001      	movs	r1, r0
2000581e:	2c01      	cmp	r4, #1
20005820:	d00a      	beq.n	20005838 <__aeabi_float_init+0x28>
20005822:	dd03      	ble.n	2000582c <__aeabi_float_init+0x1c>
20005824:	2280      	movs	r2, #128	; 0x80
20005826:	480f      	ldr	r0, [pc, #60]	; (20005864 <__aeabi_float_init+0x54>)
20005828:	f000 f848 	bl	200058bc <__wrap___aeabi_memcpy>
2000582c:	480e      	ldr	r0, [pc, #56]	; (20005868 <__aeabi_float_init+0x58>)
2000582e:	f7ff fd0b 	bl	20005248 <rom_func_lookup>
20005832:	4b0e      	ldr	r3, [pc, #56]	; (2000586c <__aeabi_float_init+0x5c>)
20005834:	6018      	str	r0, [r3, #0]
20005836:	bd10      	pop	{r4, pc}
20005838:	4c0a      	ldr	r4, [pc, #40]	; (20005864 <__aeabi_float_init+0x54>)
2000583a:	2254      	movs	r2, #84	; 0x54
2000583c:	0020      	movs	r0, r4
2000583e:	f000 f83d 	bl	200058bc <__wrap___aeabi_memcpy>
20005842:	4b0b      	ldr	r3, [pc, #44]	; (20005870 <__aeabi_float_init+0x60>)
20005844:	6563      	str	r3, [r4, #84]	; 0x54
20005846:	65a3      	str	r3, [r4, #88]	; 0x58
20005848:	65e3      	str	r3, [r4, #92]	; 0x5c
2000584a:	6623      	str	r3, [r4, #96]	; 0x60
2000584c:	6663      	str	r3, [r4, #100]	; 0x64
2000584e:	66a3      	str	r3, [r4, #104]	; 0x68
20005850:	66e3      	str	r3, [r4, #108]	; 0x6c
20005852:	6723      	str	r3, [r4, #112]	; 0x70
20005854:	6763      	str	r3, [r4, #116]	; 0x74
20005856:	67a3      	str	r3, [r4, #120]	; 0x78
20005858:	67e3      	str	r3, [r4, #124]	; 0x7c
2000585a:	6223      	str	r3, [r4, #32]
2000585c:	61e3      	str	r3, [r4, #28]
2000585e:	e7e5      	b.n	2000582c <__aeabi_float_init+0x1c>
20005860:	00004653 	.word	0x00004653
20005864:	2000b780 	.word	0x2000b780
20005868:	0000334c 	.word	0x0000334c
2000586c:	200117a4 	.word	0x200117a4
20005870:	20005875 	.word	0x20005875

20005874 <float_table_shim_on_use_helper>:
20005874:	b507      	push	{r0, r1, r2, lr}
20005876:	4660      	mov	r0, ip
20005878:	8801      	ldrh	r1, [r0, #0]
2000587a:	0a0a      	lsrs	r2, r1, #8
2000587c:	3002      	adds	r0, #2
2000587e:	2adf      	cmp	r2, #223	; 0xdf
20005880:	d1fa      	bne.n	20005878 <float_table_shim_on_use_helper+0x4>
20005882:	b2c9      	uxtb	r1, r1
20005884:	0882      	lsrs	r2, r0, #2
20005886:	d304      	bcc.n	20005892 <float_table_shim_on_use_helper+0x1e>
20005888:	8802      	ldrh	r2, [r0, #0]
2000588a:	8840      	ldrh	r0, [r0, #2]
2000588c:	0400      	lsls	r0, r0, #16
2000588e:	4310      	orrs	r0, r2
20005890:	e000      	b.n	20005894 <float_table_shim_on_use_helper+0x20>
20005892:	6800      	ldr	r0, [r0, #0]
20005894:	4a01      	ldr	r2, [pc, #4]	; (2000589c <float_table_shim_on_use_helper+0x28>)
20005896:	5050      	str	r0, [r2, r1]
20005898:	9003      	str	r0, [sp, #12]
2000589a:	bd07      	pop	{r0, r1, r2, pc}
2000589c:	2000b780 	.word	0x2000b780

200058a0 <__aeabi_mem_init>:
200058a0:	4801      	ldr	r0, [pc, #4]	; (200058a8 <__aeabi_mem_init+0x8>)
200058a2:	2104      	movs	r1, #4
200058a4:	4b01      	ldr	r3, [pc, #4]	; (200058ac <__aeabi_mem_init+0xc>)
200058a6:	4718      	bx	r3
200058a8:	2000b500 	.word	0x2000b500
200058ac:	20005269 	.word	0x20005269

200058b0 <__wrap_memset>:
200058b0:	4b01      	ldr	r3, [pc, #4]	; (200058b8 <__wrap_memset+0x8>)
200058b2:	681b      	ldr	r3, [r3, #0]
200058b4:	4718      	bx	r3
200058b6:	0000      	.short	0x0000
200058b8:	2000b500 	.word	0x2000b500

200058bc <__wrap___aeabi_memcpy>:
200058bc:	4b01      	ldr	r3, [pc, #4]	; (200058c4 <__wrap___aeabi_memcpy+0x8>)
200058be:	685b      	ldr	r3, [r3, #4]
200058c0:	4718      	bx	r3
200058c2:	0000      	.short	0x0000
200058c4:	2000b500 	.word	0x2000b500

200058c8 <stdio_out_chars_no_crlf>:
200058c8:	0003      	movs	r3, r0
200058ca:	b510      	push	{r4, lr}
200058cc:	0008      	movs	r0, r1
200058ce:	0011      	movs	r1, r2
200058d0:	681b      	ldr	r3, [r3, #0]
200058d2:	4798      	blx	r3
200058d4:	bd10      	pop	{r4, pc}
200058d6:	46c0      	nop			; (mov r8, r8)

200058d8 <stdio_out_chars_crlf>:
200058d8:	b5f0      	push	{r4, r5, r6, r7, lr}
200058da:	4646      	mov	r6, r8
200058dc:	464f      	mov	r7, r9
200058de:	46d6      	mov	lr, sl
200058e0:	b5c0      	push	{r6, r7, lr}
200058e2:	7d43      	ldrb	r3, [r0, #21]
200058e4:	4680      	mov	r8, r0
200058e6:	000e      	movs	r6, r1
200058e8:	0017      	movs	r7, r2
200058ea:	2b00      	cmp	r3, #0
200058ec:	d046      	beq.n	2000597c <stdio_out_chars_crlf+0xa4>
200058ee:	2a00      	cmp	r2, #0
200058f0:	dd3f      	ble.n	20005972 <stdio_out_chars_crlf+0x9a>
200058f2:	1e4b      	subs	r3, r1, #1
200058f4:	4699      	mov	r9, r3
200058f6:	4b24      	ldr	r3, [pc, #144]	; (20005988 <stdio_out_chars_crlf+0xb0>)
200058f8:	2501      	movs	r5, #1
200058fa:	2400      	movs	r4, #0
200058fc:	2000      	movs	r0, #0
200058fe:	469a      	mov	sl, r3
20005900:	e00d      	b.n	2000591e <stdio_out_chars_crlf+0x46>
20005902:	464b      	mov	r3, r9
20005904:	5d1b      	ldrb	r3, [r3, r4]
20005906:	3b0d      	subs	r3, #13
20005908:	425a      	negs	r2, r3
2000590a:	4153      	adcs	r3, r2
2000590c:	5d32      	ldrb	r2, [r6, r4]
2000590e:	b2db      	uxtb	r3, r3
20005910:	2a0a      	cmp	r2, #10
20005912:	d00b      	beq.n	2000592c <stdio_out_chars_crlf+0x54>
20005914:	002b      	movs	r3, r5
20005916:	3401      	adds	r4, #1
20005918:	3501      	adds	r5, #1
2000591a:	429f      	cmp	r7, r3
2000591c:	dd1a      	ble.n	20005954 <stdio_out_chars_crlf+0x7c>
2000591e:	2c00      	cmp	r4, #0
20005920:	d1ef      	bne.n	20005902 <stdio_out_chars_crlf+0x2a>
20005922:	4643      	mov	r3, r8
20005924:	5d32      	ldrb	r2, [r6, r4]
20005926:	7d1b      	ldrb	r3, [r3, #20]
20005928:	2a0a      	cmp	r2, #10
2000592a:	d1f3      	bne.n	20005914 <stdio_out_chars_crlf+0x3c>
2000592c:	2b00      	cmp	r3, #0
2000592e:	d1f1      	bne.n	20005914 <stdio_out_chars_crlf+0x3c>
20005930:	42a0      	cmp	r0, r4
20005932:	da04      	bge.n	2000593e <stdio_out_chars_crlf+0x66>
20005934:	4643      	mov	r3, r8
20005936:	1a21      	subs	r1, r4, r0
20005938:	681b      	ldr	r3, [r3, #0]
2000593a:	1830      	adds	r0, r6, r0
2000593c:	4798      	blx	r3
2000593e:	4643      	mov	r3, r8
20005940:	4650      	mov	r0, sl
20005942:	681b      	ldr	r3, [r3, #0]
20005944:	2102      	movs	r1, #2
20005946:	4798      	blx	r3
20005948:	3401      	adds	r4, #1
2000594a:	0028      	movs	r0, r5
2000594c:	002b      	movs	r3, r5
2000594e:	3501      	adds	r5, #1
20005950:	429f      	cmp	r7, r3
20005952:	dce4      	bgt.n	2000591e <stdio_out_chars_crlf+0x46>
20005954:	4287      	cmp	r7, r0
20005956:	dd04      	ble.n	20005962 <stdio_out_chars_crlf+0x8a>
20005958:	4643      	mov	r3, r8
2000595a:	1a39      	subs	r1, r7, r0
2000595c:	681b      	ldr	r3, [r3, #0]
2000595e:	1830      	adds	r0, r6, r0
20005960:	4798      	blx	r3
20005962:	19f6      	adds	r6, r6, r7
20005964:	3e01      	subs	r6, #1
20005966:	7833      	ldrb	r3, [r6, #0]
20005968:	3b0d      	subs	r3, #13
2000596a:	425a      	negs	r2, r3
2000596c:	4153      	adcs	r3, r2
2000596e:	4642      	mov	r2, r8
20005970:	7513      	strb	r3, [r2, #20]
20005972:	bce0      	pop	{r5, r6, r7}
20005974:	46ba      	mov	sl, r7
20005976:	46b1      	mov	r9, r6
20005978:	46a8      	mov	r8, r5
2000597a:	bdf0      	pop	{r4, r5, r6, r7, pc}
2000597c:	6803      	ldr	r3, [r0, #0]
2000597e:	0011      	movs	r1, r2
20005980:	0030      	movs	r0, r6
20005982:	4798      	blx	r3
20005984:	e7f5      	b.n	20005972 <stdio_out_chars_crlf+0x9a>
20005986:	46c0      	nop			; (mov r8, r8)
20005988:	2000b204 	.word	0x2000b204

2000598c <stdio_put_string.isra.0>:
2000598c:	b5f0      	push	{r4, r5, r6, r7, lr}
2000598e:	46de      	mov	lr, fp
20005990:	4657      	mov	r7, sl
20005992:	464e      	mov	r6, r9
20005994:	4645      	mov	r5, r8
20005996:	b5e0      	push	{r5, r6, r7, lr}
20005998:	b085      	sub	sp, #20
2000599a:	0017      	movs	r7, r2
2000599c:	001c      	movs	r4, r3
2000599e:	0006      	movs	r6, r0
200059a0:	000d      	movs	r5, r1
200059a2:	f7fe fa59 	bl	20003e58 <time_us_64>
200059a6:	2300      	movs	r3, #0
200059a8:	4a30      	ldr	r2, [pc, #192]	; (20005a6c <stdio_put_string.isra.0+0xe0>)
200059aa:	1812      	adds	r2, r2, r0
200059ac:	414b      	adcs	r3, r1
200059ae:	2b00      	cmp	r3, #0
200059b0:	db58      	blt.n	20005a64 <stdio_put_string.isra.0+0xd8>
200059b2:	492f      	ldr	r1, [pc, #188]	; (20005a70 <stdio_put_string.isra.0+0xe4>)
200059b4:	0008      	movs	r0, r1
200059b6:	468a      	mov	sl, r1
200059b8:	f004 fc22 	bl	2000a200 <mutex_try_enter_block_until>
200059bc:	9001      	str	r0, [sp, #4]
200059be:	1c6b      	adds	r3, r5, #1
200059c0:	d103      	bne.n	200059ca <stdio_put_string.isra.0+0x3e>
200059c2:	0030      	movs	r0, r6
200059c4:	f004 fbe8 	bl	2000a198 <strlen>
200059c8:	0005      	movs	r5, r0
200059ca:	2c00      	cmp	r4, #0
200059cc:	d125      	bne.n	20005a1a <stdio_put_string.isra.0+0x8e>
200059ce:	4b29      	ldr	r3, [pc, #164]	; (20005a74 <stdio_put_string.isra.0+0xe8>)
200059d0:	4698      	mov	r8, r3
200059d2:	4b29      	ldr	r3, [pc, #164]	; (20005a78 <stdio_put_string.isra.0+0xec>)
200059d4:	681c      	ldr	r4, [r3, #0]
200059d6:	2c00      	cmp	r4, #0
200059d8:	d015      	beq.n	20005a06 <stdio_put_string.isra.0+0x7a>
200059da:	2f00      	cmp	r7, #0
200059dc:	d120      	bne.n	20005a20 <stdio_put_string.isra.0+0x94>
200059de:	4f27      	ldr	r7, [pc, #156]	; (20005a7c <stdio_put_string.isra.0+0xf0>)
200059e0:	e002      	b.n	200059e8 <stdio_put_string.isra.0+0x5c>
200059e2:	6924      	ldr	r4, [r4, #16]
200059e4:	2c00      	cmp	r4, #0
200059e6:	d00e      	beq.n	20005a06 <stdio_put_string.isra.0+0x7a>
200059e8:	6823      	ldr	r3, [r4, #0]
200059ea:	2b00      	cmp	r3, #0
200059ec:	d0f9      	beq.n	200059e2 <stdio_put_string.isra.0+0x56>
200059ee:	683b      	ldr	r3, [r7, #0]
200059f0:	2b00      	cmp	r3, #0
200059f2:	d001      	beq.n	200059f8 <stdio_put_string.isra.0+0x6c>
200059f4:	42a3      	cmp	r3, r4
200059f6:	d1f4      	bne.n	200059e2 <stdio_put_string.isra.0+0x56>
200059f8:	0020      	movs	r0, r4
200059fa:	002a      	movs	r2, r5
200059fc:	0031      	movs	r1, r6
200059fe:	47c0      	blx	r8
20005a00:	6924      	ldr	r4, [r4, #16]
20005a02:	2c00      	cmp	r4, #0
20005a04:	d1f0      	bne.n	200059e8 <stdio_put_string.isra.0+0x5c>
20005a06:	9b01      	ldr	r3, [sp, #4]
20005a08:	2b00      	cmp	r3, #0
20005a0a:	d127      	bne.n	20005a5c <stdio_put_string.isra.0+0xd0>
20005a0c:	b005      	add	sp, #20
20005a0e:	bcf0      	pop	{r4, r5, r6, r7}
20005a10:	46bb      	mov	fp, r7
20005a12:	46b2      	mov	sl, r6
20005a14:	46a9      	mov	r9, r5
20005a16:	46a0      	mov	r8, r4
20005a18:	bdf0      	pop	{r4, r5, r6, r7, pc}
20005a1a:	4b19      	ldr	r3, [pc, #100]	; (20005a80 <stdio_put_string.isra.0+0xf4>)
20005a1c:	4698      	mov	r8, r3
20005a1e:	e7d8      	b.n	200059d2 <stdio_put_string.isra.0+0x46>
20005a20:	4b16      	ldr	r3, [pc, #88]	; (20005a7c <stdio_put_string.isra.0+0xf0>)
20005a22:	4699      	mov	r9, r3
20005a24:	ab02      	add	r3, sp, #8
20005a26:	1ddf      	adds	r7, r3, #7
20005a28:	230a      	movs	r3, #10
20005a2a:	469b      	mov	fp, r3
20005a2c:	e002      	b.n	20005a34 <stdio_put_string.isra.0+0xa8>
20005a2e:	6924      	ldr	r4, [r4, #16]
20005a30:	2c00      	cmp	r4, #0
20005a32:	d0e8      	beq.n	20005a06 <stdio_put_string.isra.0+0x7a>
20005a34:	6823      	ldr	r3, [r4, #0]
20005a36:	2b00      	cmp	r3, #0
20005a38:	d0f9      	beq.n	20005a2e <stdio_put_string.isra.0+0xa2>
20005a3a:	464b      	mov	r3, r9
20005a3c:	681b      	ldr	r3, [r3, #0]
20005a3e:	2b00      	cmp	r3, #0
20005a40:	d001      	beq.n	20005a46 <stdio_put_string.isra.0+0xba>
20005a42:	42a3      	cmp	r3, r4
20005a44:	d1f3      	bne.n	20005a2e <stdio_put_string.isra.0+0xa2>
20005a46:	002a      	movs	r2, r5
20005a48:	0031      	movs	r1, r6
20005a4a:	0020      	movs	r0, r4
20005a4c:	47c0      	blx	r8
20005a4e:	465b      	mov	r3, fp
20005a50:	2201      	movs	r2, #1
20005a52:	0039      	movs	r1, r7
20005a54:	0020      	movs	r0, r4
20005a56:	703b      	strb	r3, [r7, #0]
20005a58:	47c0      	blx	r8
20005a5a:	e7e8      	b.n	20005a2e <stdio_put_string.isra.0+0xa2>
20005a5c:	4650      	mov	r0, sl
20005a5e:	f004 fc59 	bl	2000a314 <mutex_exit>
20005a62:	e7d3      	b.n	20005a0c <stdio_put_string.isra.0+0x80>
20005a64:	2201      	movs	r2, #1
20005a66:	4b07      	ldr	r3, [pc, #28]	; (20005a84 <stdio_put_string.isra.0+0xf8>)
20005a68:	4252      	negs	r2, r2
20005a6a:	e7a2      	b.n	200059b2 <stdio_put_string.isra.0+0x26>
20005a6c:	000f4240 	.word	0x000f4240
20005a70:	2000b55c 	.word	0x2000b55c
20005a74:	200058d9 	.word	0x200058d9
20005a78:	200110d0 	.word	0x200110d0
20005a7c:	200110d8 	.word	0x200110d8
20005a80:	200058c9 	.word	0x200058c9
20005a84:	7fffffff 	.word	0x7fffffff

20005a88 <__wrap_putchar>:
20005a88:	b5f0      	push	{r4, r5, r6, r7, lr}
20005a8a:	46ce      	mov	lr, r9
20005a8c:	4647      	mov	r7, r8
20005a8e:	b580      	push	{r7, lr}
20005a90:	b083      	sub	sp, #12
20005a92:	466b      	mov	r3, sp
20005a94:	0006      	movs	r6, r0
20005a96:	1ddd      	adds	r5, r3, #7
20005a98:	7028      	strb	r0, [r5, #0]
20005a9a:	f7fe f9dd 	bl	20003e58 <time_us_64>
20005a9e:	2300      	movs	r3, #0
20005aa0:	4a1a      	ldr	r2, [pc, #104]	; (20005b0c <__wrap_putchar+0x84>)
20005aa2:	1812      	adds	r2, r2, r0
20005aa4:	414b      	adcs	r3, r1
20005aa6:	2b00      	cmp	r3, #0
20005aa8:	db2b      	blt.n	20005b02 <__wrap_putchar+0x7a>
20005aaa:	4919      	ldr	r1, [pc, #100]	; (20005b10 <__wrap_putchar+0x88>)
20005aac:	0008      	movs	r0, r1
20005aae:	4688      	mov	r8, r1
20005ab0:	f004 fba6 	bl	2000a200 <mutex_try_enter_block_until>
20005ab4:	4b17      	ldr	r3, [pc, #92]	; (20005b14 <__wrap_putchar+0x8c>)
20005ab6:	4681      	mov	r9, r0
20005ab8:	681c      	ldr	r4, [r3, #0]
20005aba:	2c00      	cmp	r4, #0
20005abc:	d014      	beq.n	20005ae8 <__wrap_putchar+0x60>
20005abe:	4f16      	ldr	r7, [pc, #88]	; (20005b18 <__wrap_putchar+0x90>)
20005ac0:	e002      	b.n	20005ac8 <__wrap_putchar+0x40>
20005ac2:	6924      	ldr	r4, [r4, #16]
20005ac4:	2c00      	cmp	r4, #0
20005ac6:	d00f      	beq.n	20005ae8 <__wrap_putchar+0x60>
20005ac8:	6823      	ldr	r3, [r4, #0]
20005aca:	2b00      	cmp	r3, #0
20005acc:	d0f9      	beq.n	20005ac2 <__wrap_putchar+0x3a>
20005ace:	683b      	ldr	r3, [r7, #0]
20005ad0:	2b00      	cmp	r3, #0
20005ad2:	d001      	beq.n	20005ad8 <__wrap_putchar+0x50>
20005ad4:	42a3      	cmp	r3, r4
20005ad6:	d1f4      	bne.n	20005ac2 <__wrap_putchar+0x3a>
20005ad8:	0020      	movs	r0, r4
20005ada:	2201      	movs	r2, #1
20005adc:	0029      	movs	r1, r5
20005ade:	f7ff fefb 	bl	200058d8 <stdio_out_chars_crlf>
20005ae2:	6924      	ldr	r4, [r4, #16]
20005ae4:	2c00      	cmp	r4, #0
20005ae6:	d1ef      	bne.n	20005ac8 <__wrap_putchar+0x40>
20005ae8:	464b      	mov	r3, r9
20005aea:	2b00      	cmp	r3, #0
20005aec:	d105      	bne.n	20005afa <__wrap_putchar+0x72>
20005aee:	0030      	movs	r0, r6
20005af0:	b003      	add	sp, #12
20005af2:	bcc0      	pop	{r6, r7}
20005af4:	46b9      	mov	r9, r7
20005af6:	46b0      	mov	r8, r6
20005af8:	bdf0      	pop	{r4, r5, r6, r7, pc}
20005afa:	4640      	mov	r0, r8
20005afc:	f004 fc0a 	bl	2000a314 <mutex_exit>
20005b00:	e7f5      	b.n	20005aee <__wrap_putchar+0x66>
20005b02:	2201      	movs	r2, #1
20005b04:	4b05      	ldr	r3, [pc, #20]	; (20005b1c <__wrap_putchar+0x94>)
20005b06:	4252      	negs	r2, r2
20005b08:	e7cf      	b.n	20005aaa <__wrap_putchar+0x22>
20005b0a:	46c0      	nop			; (mov r8, r8)
20005b0c:	000f4240 	.word	0x000f4240
20005b10:	2000b55c 	.word	0x2000b55c
20005b14:	200110d0 	.word	0x200110d0
20005b18:	200110d8 	.word	0x200110d8
20005b1c:	7fffffff 	.word	0x7fffffff

20005b20 <__wrap_puts>:
20005b20:	b570      	push	{r4, r5, r6, lr}
20005b22:	0004      	movs	r4, r0
20005b24:	f004 fb38 	bl	2000a198 <strlen>
20005b28:	2300      	movs	r3, #0
20005b2a:	0001      	movs	r1, r0
20005b2c:	0005      	movs	r5, r0
20005b2e:	2201      	movs	r2, #1
20005b30:	0020      	movs	r0, r4
20005b32:	f7ff ff2b 	bl	2000598c <stdio_put_string.isra.0>
20005b36:	4b08      	ldr	r3, [pc, #32]	; (20005b58 <__wrap_puts+0x38>)
20005b38:	681c      	ldr	r4, [r3, #0]
20005b3a:	2c00      	cmp	r4, #0
20005b3c:	d006      	beq.n	20005b4c <__wrap_puts+0x2c>
20005b3e:	6863      	ldr	r3, [r4, #4]
20005b40:	2b00      	cmp	r3, #0
20005b42:	d005      	beq.n	20005b50 <__wrap_puts+0x30>
20005b44:	4798      	blx	r3
20005b46:	6924      	ldr	r4, [r4, #16]
20005b48:	2c00      	cmp	r4, #0
20005b4a:	d1f8      	bne.n	20005b3e <__wrap_puts+0x1e>
20005b4c:	0028      	movs	r0, r5
20005b4e:	bd70      	pop	{r4, r5, r6, pc}
20005b50:	6924      	ldr	r4, [r4, #16]
20005b52:	2c00      	cmp	r4, #0
20005b54:	d1f3      	bne.n	20005b3e <__wrap_puts+0x1e>
20005b56:	e7f9      	b.n	20005b4c <__wrap_puts+0x2c>
20005b58:	200110d0 	.word	0x200110d0

20005b5c <stdio_set_driver_enabled>:
20005b5c:	4a0a      	ldr	r2, [pc, #40]	; (20005b88 <stdio_set_driver_enabled+0x2c>)
20005b5e:	6813      	ldr	r3, [r2, #0]
20005b60:	2b00      	cmp	r3, #0
20005b62:	d105      	bne.n	20005b70 <stdio_set_driver_enabled+0x14>
20005b64:	e00c      	b.n	20005b80 <stdio_set_driver_enabled+0x24>
20005b66:	001a      	movs	r2, r3
20005b68:	691b      	ldr	r3, [r3, #16]
20005b6a:	3210      	adds	r2, #16
20005b6c:	2b00      	cmp	r3, #0
20005b6e:	d007      	beq.n	20005b80 <stdio_set_driver_enabled+0x24>
20005b70:	4298      	cmp	r0, r3
20005b72:	d1f8      	bne.n	20005b66 <stdio_set_driver_enabled+0xa>
20005b74:	2900      	cmp	r1, #0
20005b76:	d102      	bne.n	20005b7e <stdio_set_driver_enabled+0x22>
20005b78:	6903      	ldr	r3, [r0, #16]
20005b7a:	6013      	str	r3, [r2, #0]
20005b7c:	6101      	str	r1, [r0, #16]
20005b7e:	4770      	bx	lr
20005b80:	2900      	cmp	r1, #0
20005b82:	d0fc      	beq.n	20005b7e <stdio_set_driver_enabled+0x22>
20005b84:	6010      	str	r0, [r2, #0]
20005b86:	e7fa      	b.n	20005b7e <stdio_set_driver_enabled+0x22>
20005b88:	200110d0 	.word	0x200110d0

20005b8c <stdio_uart_out_chars>:
20005b8c:	b5f0      	push	{r4, r5, r6, r7, lr}
20005b8e:	1e0d      	subs	r5, r1, #0
20005b90:	dd15      	ble.n	20005bbe <stdio_uart_out_chars+0x32>
20005b92:	4b0e      	ldr	r3, [pc, #56]	; (20005bcc <stdio_uart_out_chars+0x40>)
20005b94:	270d      	movs	r7, #13
20005b96:	681a      	ldr	r2, [r3, #0]
20005b98:	4b0d      	ldr	r3, [pc, #52]	; (20005bd0 <stdio_uart_out_chars+0x44>)
20005b9a:	1945      	adds	r5, r0, r5
20005b9c:	18d3      	adds	r3, r2, r3
20005b9e:	4259      	negs	r1, r3
20005ba0:	414b      	adcs	r3, r1
20005ba2:	490c      	ldr	r1, [pc, #48]	; (20005bd4 <stdio_uart_out_chars+0x48>)
20005ba4:	005b      	lsls	r3, r3, #1
20005ba6:	5e5e      	ldrsh	r6, [r3, r1]
20005ba8:	2120      	movs	r1, #32
20005baa:	7804      	ldrb	r4, [r0, #0]
20005bac:	42a6      	cmp	r6, r4
20005bae:	d007      	beq.n	20005bc0 <stdio_uart_out_chars+0x34>
20005bb0:	6993      	ldr	r3, [r2, #24]
20005bb2:	4219      	tst	r1, r3
20005bb4:	d1fc      	bne.n	20005bb0 <stdio_uart_out_chars+0x24>
20005bb6:	3001      	adds	r0, #1
20005bb8:	6014      	str	r4, [r2, #0]
20005bba:	42a8      	cmp	r0, r5
20005bbc:	d1f5      	bne.n	20005baa <stdio_uart_out_chars+0x1e>
20005bbe:	bdf0      	pop	{r4, r5, r6, r7, pc}
20005bc0:	6993      	ldr	r3, [r2, #24]
20005bc2:	4219      	tst	r1, r3
20005bc4:	d1fc      	bne.n	20005bc0 <stdio_uart_out_chars+0x34>
20005bc6:	6017      	str	r7, [r2, #0]
20005bc8:	e7f2      	b.n	20005bb0 <stdio_uart_out_chars+0x24>
20005bca:	46c0      	nop			; (mov r8, r8)
20005bcc:	200117d0 	.word	0x200117d0
20005bd0:	bffc8000 	.word	0xbffc8000
20005bd4:	200117c8 	.word	0x200117c8

20005bd8 <stdio_uart_in_chars>:
20005bd8:	b530      	push	{r4, r5, lr}
20005bda:	0004      	movs	r4, r0
20005bdc:	1e0d      	subs	r5, r1, #0
20005bde:	dd26      	ble.n	20005c2e <stdio_uart_in_chars+0x56>
20005be0:	2000      	movs	r0, #0
20005be2:	2110      	movs	r1, #16
20005be4:	4b1b      	ldr	r3, [pc, #108]	; (20005c54 <stdio_uart_in_chars+0x7c>)
20005be6:	3c01      	subs	r4, #1
20005be8:	681a      	ldr	r2, [r3, #0]
20005bea:	6993      	ldr	r3, [r2, #24]
20005bec:	4219      	tst	r1, r3
20005bee:	d119      	bne.n	20005c24 <stdio_uart_in_chars+0x4c>
20005bf0:	3001      	adds	r0, #1
20005bf2:	6993      	ldr	r3, [r2, #24]
20005bf4:	4219      	tst	r1, r3
20005bf6:	d1fc      	bne.n	20005bf2 <stdio_uart_in_chars+0x1a>
20005bf8:	6813      	ldr	r3, [r2, #0]
20005bfa:	5423      	strb	r3, [r4, r0]
20005bfc:	4285      	cmp	r5, r0
20005bfe:	d1f4      	bne.n	20005bea <stdio_uart_in_chars+0x12>
20005c00:	4b15      	ldr	r3, [pc, #84]	; (20005c58 <stdio_uart_in_chars+0x80>)
20005c02:	681b      	ldr	r3, [r3, #0]
20005c04:	2b00      	cmp	r3, #0
20005c06:	d00c      	beq.n	20005c22 <stdio_uart_in_chars+0x4a>
20005c08:	2350      	movs	r3, #80	; 0x50
20005c0a:	6393      	str	r3, [r2, #56]	; 0x38
20005c0c:	6b51      	ldr	r1, [r2, #52]	; 0x34
20005c0e:	3b18      	subs	r3, #24
20005c10:	3234      	adds	r2, #52	; 0x34
20005c12:	400b      	ands	r3, r1
20005c14:	0011      	movs	r1, r2
20005c16:	2280      	movs	r2, #128	; 0x80
20005c18:	0152      	lsls	r2, r2, #5
20005c1a:	430a      	orrs	r2, r1
20005c1c:	6013      	str	r3, [r2, #0]
20005c1e:	2800      	cmp	r0, #0
20005c20:	d015      	beq.n	20005c4e <stdio_uart_in_chars+0x76>
20005c22:	bd30      	pop	{r4, r5, pc}
20005c24:	4b0c      	ldr	r3, [pc, #48]	; (20005c58 <stdio_uart_in_chars+0x80>)
20005c26:	681b      	ldr	r3, [r3, #0]
20005c28:	2b00      	cmp	r3, #0
20005c2a:	d1ed      	bne.n	20005c08 <stdio_uart_in_chars+0x30>
20005c2c:	e7f7      	b.n	20005c1e <stdio_uart_in_chars+0x46>
20005c2e:	4b0a      	ldr	r3, [pc, #40]	; (20005c58 <stdio_uart_in_chars+0x80>)
20005c30:	681b      	ldr	r3, [r3, #0]
20005c32:	2b00      	cmp	r3, #0
20005c34:	d00b      	beq.n	20005c4e <stdio_uart_in_chars+0x76>
20005c36:	2250      	movs	r2, #80	; 0x50
20005c38:	2138      	movs	r1, #56	; 0x38
20005c3a:	4b06      	ldr	r3, [pc, #24]	; (20005c54 <stdio_uart_in_chars+0x7c>)
20005c3c:	681b      	ldr	r3, [r3, #0]
20005c3e:	639a      	str	r2, [r3, #56]	; 0x38
20005c40:	6b5a      	ldr	r2, [r3, #52]	; 0x34
20005c42:	3334      	adds	r3, #52	; 0x34
20005c44:	4011      	ands	r1, r2
20005c46:	2280      	movs	r2, #128	; 0x80
20005c48:	0152      	lsls	r2, r2, #5
20005c4a:	4313      	orrs	r3, r2
20005c4c:	6019      	str	r1, [r3, #0]
20005c4e:	2003      	movs	r0, #3
20005c50:	4240      	negs	r0, r0
20005c52:	e7e6      	b.n	20005c22 <stdio_uart_in_chars+0x4a>
20005c54:	200117d0 	.word	0x200117d0
20005c58:	20011058 	.word	0x20011058

20005c5c <on_uart_rx>:
20005c5c:	4b06      	ldr	r3, [pc, #24]	; (20005c78 <on_uart_rx+0x1c>)
20005c5e:	b510      	push	{r4, lr}
20005c60:	681b      	ldr	r3, [r3, #0]
20005c62:	2b00      	cmp	r3, #0
20005c64:	d006      	beq.n	20005c74 <on_uart_rx+0x18>
20005c66:	2100      	movs	r1, #0
20005c68:	4a04      	ldr	r2, [pc, #16]	; (20005c7c <on_uart_rx+0x20>)
20005c6a:	6812      	ldr	r2, [r2, #0]
20005c6c:	6391      	str	r1, [r2, #56]	; 0x38
20005c6e:	4a04      	ldr	r2, [pc, #16]	; (20005c80 <on_uart_rx+0x24>)
20005c70:	6810      	ldr	r0, [r2, #0]
20005c72:	4798      	blx	r3
20005c74:	bd10      	pop	{r4, pc}
20005c76:	46c0      	nop			; (mov r8, r8)
20005c78:	20011058 	.word	0x20011058
20005c7c:	200117d0 	.word	0x200117d0
20005c80:	2001105c 	.word	0x2001105c

20005c84 <stdio_uart_set_chars_available_callback>:
20005c84:	4b1d      	ldr	r3, [pc, #116]	; (20005cfc <stdio_uart_set_chars_available_callback+0x78>)
20005c86:	b5f0      	push	{r4, r5, r6, r7, lr}
20005c88:	681a      	ldr	r2, [r3, #0]
20005c8a:	46c6      	mov	lr, r8
20005c8c:	4698      	mov	r8, r3
20005c8e:	4b1c      	ldr	r3, [pc, #112]	; (20005d00 <stdio_uart_set_chars_available_callback+0x7c>)
20005c90:	000e      	movs	r6, r1
20005c92:	18d3      	adds	r3, r2, r3
20005c94:	4259      	negs	r1, r3
20005c96:	414b      	adcs	r3, r1
20005c98:	4f1a      	ldr	r7, [pc, #104]	; (20005d04 <stdio_uart_set_chars_available_callback+0x80>)
20005c9a:	3314      	adds	r3, #20
20005c9c:	001c      	movs	r4, r3
20005c9e:	0005      	movs	r5, r0
20005ca0:	b500      	push	{lr}
20005ca2:	683b      	ldr	r3, [r7, #0]
20005ca4:	2800      	cmp	r0, #0
20005ca6:	d007      	beq.n	20005cb8 <stdio_uart_set_chars_available_callback+0x34>
20005ca8:	2b00      	cmp	r3, #0
20005caa:	d011      	beq.n	20005cd0 <stdio_uart_set_chars_available_callback+0x4c>
20005cac:	4b16      	ldr	r3, [pc, #88]	; (20005d08 <stdio_uart_set_chars_available_callback+0x84>)
20005cae:	603d      	str	r5, [r7, #0]
20005cb0:	601e      	str	r6, [r3, #0]
20005cb2:	bc80      	pop	{r7}
20005cb4:	46b8      	mov	r8, r7
20005cb6:	bdf0      	pop	{r4, r5, r6, r7, pc}
20005cb8:	2b00      	cmp	r3, #0
20005cba:	d0f7      	beq.n	20005cac <stdio_uart_set_chars_available_callback+0x28>
20005cbc:	6390      	str	r0, [r2, #56]	; 0x38
20005cbe:	2100      	movs	r1, #0
20005cc0:	0020      	movs	r0, r4
20005cc2:	f7fe fa73 	bl	200041ac <irq_set_enabled>
20005cc6:	0020      	movs	r0, r4
20005cc8:	4910      	ldr	r1, [pc, #64]	; (20005d0c <stdio_uart_set_chars_available_callback+0x88>)
20005cca:	f7fe fba7 	bl	2000441c <irq_remove_handler>
20005cce:	e7ed      	b.n	20005cac <stdio_uart_set_chars_available_callback+0x28>
20005cd0:	0020      	movs	r0, r4
20005cd2:	490e      	ldr	r1, [pc, #56]	; (20005d0c <stdio_uart_set_chars_available_callback+0x88>)
20005cd4:	f7fe fa84 	bl	200041e0 <irq_set_exclusive_handler>
20005cd8:	2101      	movs	r1, #1
20005cda:	0020      	movs	r0, r4
20005cdc:	f7fe fa66 	bl	200041ac <irq_set_enabled>
20005ce0:	4643      	mov	r3, r8
20005ce2:	2250      	movs	r2, #80	; 0x50
20005ce4:	2138      	movs	r1, #56	; 0x38
20005ce6:	681b      	ldr	r3, [r3, #0]
20005ce8:	639a      	str	r2, [r3, #56]	; 0x38
20005cea:	6b5a      	ldr	r2, [r3, #52]	; 0x34
20005cec:	3334      	adds	r3, #52	; 0x34
20005cee:	4011      	ands	r1, r2
20005cf0:	2280      	movs	r2, #128	; 0x80
20005cf2:	0152      	lsls	r2, r2, #5
20005cf4:	4313      	orrs	r3, r2
20005cf6:	6019      	str	r1, [r3, #0]
20005cf8:	e7d8      	b.n	20005cac <stdio_uart_set_chars_available_callback+0x28>
20005cfa:	46c0      	nop			; (mov r8, r8)
20005cfc:	200117d0 	.word	0x200117d0
20005d00:	bffc8000 	.word	0xbffc8000
20005d04:	20011058 	.word	0x20011058
20005d08:	2001105c 	.word	0x2001105c
20005d0c:	20005c5d 	.word	0x20005c5d

20005d10 <stdio_uart_init>:
20005d10:	4b0c      	ldr	r3, [pc, #48]	; (20005d44 <stdio_uart_init+0x34>)
20005d12:	b510      	push	{r4, lr}
20005d14:	781b      	ldrb	r3, [r3, #0]
20005d16:	4b0c      	ldr	r3, [pc, #48]	; (20005d48 <stdio_uart_init+0x38>)
20005d18:	4c0c      	ldr	r4, [pc, #48]	; (20005d4c <stdio_uart_init+0x3c>)
20005d1a:	781b      	ldrb	r3, [r3, #0]
20005d1c:	4b0c      	ldr	r3, [pc, #48]	; (20005d50 <stdio_uart_init+0x40>)
20005d1e:	2102      	movs	r1, #2
20005d20:	2000      	movs	r0, #0
20005d22:	6023      	str	r3, [r4, #0]
20005d24:	f7fe feac 	bl	20004a80 <gpio_set_function>
20005d28:	2102      	movs	r1, #2
20005d2a:	2001      	movs	r0, #1
20005d2c:	f7fe fea8 	bl	20004a80 <gpio_set_function>
20005d30:	21e1      	movs	r1, #225	; 0xe1
20005d32:	6820      	ldr	r0, [r4, #0]
20005d34:	0249      	lsls	r1, r1, #9
20005d36:	f7fe ff1f 	bl	20004b78 <uart_init>
20005d3a:	2101      	movs	r1, #1
20005d3c:	4805      	ldr	r0, [pc, #20]	; (20005d54 <stdio_uart_init+0x44>)
20005d3e:	f7ff ff0d 	bl	20005b5c <stdio_set_driver_enabled>
20005d42:	bd10      	pop	{r4, pc}
20005d44:	100002fc 	.word	0x100002fc
20005d48:	10000300 	.word	0x10000300
20005d4c:	200117d0 	.word	0x200117d0
20005d50:	40034000 	.word	0x40034000
20005d54:	2000b510 	.word	0x2000b510

20005d58 <stdio_uart_init_full>:
20005d58:	b570      	push	{r4, r5, r6, lr}
20005d5a:	4e0c      	ldr	r6, [pc, #48]	; (20005d8c <stdio_uart_init_full+0x34>)
20005d5c:	000d      	movs	r5, r1
20005d5e:	001c      	movs	r4, r3
20005d60:	6030      	str	r0, [r6, #0]
20005d62:	2a00      	cmp	r2, #0
20005d64:	db03      	blt.n	20005d6e <stdio_uart_init_full+0x16>
20005d66:	2102      	movs	r1, #2
20005d68:	0010      	movs	r0, r2
20005d6a:	f7fe fe89 	bl	20004a80 <gpio_set_function>
20005d6e:	2c00      	cmp	r4, #0
20005d70:	db03      	blt.n	20005d7a <stdio_uart_init_full+0x22>
20005d72:	2102      	movs	r1, #2
20005d74:	0020      	movs	r0, r4
20005d76:	f7fe fe83 	bl	20004a80 <gpio_set_function>
20005d7a:	0029      	movs	r1, r5
20005d7c:	6830      	ldr	r0, [r6, #0]
20005d7e:	f7fe fefb 	bl	20004b78 <uart_init>
20005d82:	2101      	movs	r1, #1
20005d84:	4802      	ldr	r0, [pc, #8]	; (20005d90 <stdio_uart_init_full+0x38>)
20005d86:	f7ff fee9 	bl	20005b5c <stdio_set_driver_enabled>
20005d8a:	bd70      	pop	{r4, r5, r6, pc}
20005d8c:	200117d0 	.word	0x200117d0
20005d90:	2000b510 	.word	0x2000b510

20005d94 <_retrieve_unique_id_on_boot>:
20005d94:	b510      	push	{r4, lr}
20005d96:	4802      	ldr	r0, [pc, #8]	; (20005da0 <_retrieve_unique_id_on_boot+0xc>)
20005d98:	f000 f80c 	bl	20005db4 <flash_get_unique_id>
20005d9c:	bd10      	pop	{r4, pc}
20005d9e:	46c0      	nop			; (mov r8, r8)
20005da0:	2001179c 	.word	0x2001179c

20005da4 <pico_get_unique_board_id>:
20005da4:	b510      	push	{r4, lr}
20005da6:	2208      	movs	r2, #8
20005da8:	4901      	ldr	r1, [pc, #4]	; (20005db0 <pico_get_unique_board_id+0xc>)
20005daa:	f7ff fd87 	bl	200058bc <__wrap___aeabi_memcpy>
20005dae:	bd10      	pop	{r4, pc}
20005db0:	2001179c 	.word	0x2001179c

20005db4 <flash_get_unique_id>:
20005db4:	b530      	push	{r4, r5, lr}
20005db6:	2500      	movs	r5, #0
20005db8:	b089      	sub	sp, #36	; 0x24
20005dba:	0004      	movs	r4, r0
20005dbc:	2209      	movs	r2, #9
20005dbe:	2100      	movs	r1, #0
20005dc0:	a801      	add	r0, sp, #4
20005dc2:	9500      	str	r5, [sp, #0]
20005dc4:	f7ff fd74 	bl	200058b0 <__wrap_memset>
20005dc8:	2209      	movs	r2, #9
20005dca:	2100      	movs	r1, #0
20005dcc:	a805      	add	r0, sp, #20
20005dce:	9504      	str	r5, [sp, #16]
20005dd0:	f7ff fd6e 	bl	200058b0 <__wrap_memset>
20005dd4:	234b      	movs	r3, #75	; 0x4b
20005dd6:	466a      	mov	r2, sp
20005dd8:	4668      	mov	r0, sp
20005dda:	7013      	strb	r3, [r2, #0]
20005ddc:	a904      	add	r1, sp, #16
20005dde:	220d      	movs	r2, #13
20005de0:	f004 fae4 	bl	2000a3ac <flash_do_cmd>
20005de4:	2115      	movs	r1, #21
20005de6:	2208      	movs	r2, #8
20005de8:	0020      	movs	r0, r4
20005dea:	4469      	add	r1, sp
20005dec:	f7ff fd66 	bl	200058bc <__wrap___aeabi_memcpy>
20005df0:	b009      	add	sp, #36	; 0x24
20005df2:	bd30      	pop	{r4, r5, pc}

20005df4 <dcd_int_enable>:
20005df4:	b510      	push	{r4, lr}
20005df6:	2101      	movs	r1, #1
20005df8:	2005      	movs	r0, #5
20005dfa:	f7fe f9d7 	bl	200041ac <irq_set_enabled>
20005dfe:	bd10      	pop	{r4, pc}

20005e00 <dcd_set_address>:
20005e00:	b510      	push	{r4, lr}
20005e02:	2200      	movs	r2, #0
20005e04:	2100      	movs	r1, #0
20005e06:	4802      	ldr	r0, [pc, #8]	; (20005e10 <dcd_set_address+0x10>)
20005e08:	f000 f95a 	bl	200060c0 <hw_endpoint_xfer_start>
20005e0c:	bd10      	pop	{r4, pc}
20005e0e:	46c0      	nop			; (mov r8, r8)
20005e10:	20011100 	.word	0x20011100

20005e14 <dcd_connect>:
20005e14:	2280      	movs	r2, #128	; 0x80
20005e16:	4b02      	ldr	r3, [pc, #8]	; (20005e20 <dcd_connect+0xc>)
20005e18:	0252      	lsls	r2, r2, #9
20005e1a:	64da      	str	r2, [r3, #76]	; 0x4c
20005e1c:	4770      	bx	lr
20005e1e:	46c0      	nop			; (mov r8, r8)
20005e20:	50112000 	.word	0x50112000

20005e24 <dcd_init>:
20005e24:	b5f0      	push	{r4, r5, r6, r7, lr}
20005e26:	46c6      	mov	lr, r8
20005e28:	b500      	push	{lr}
20005e2a:	0006      	movs	r6, r0
20005e2c:	f000 f922 	bl	20006074 <rp2040_usb_init>
20005e30:	230c      	movs	r3, #12
20005e32:	4d1b      	ldr	r5, [pc, #108]	; (20005ea0 <dcd_init+0x7c>)
20005e34:	22ff      	movs	r2, #255	; 0xff
20005e36:	67ab      	str	r3, [r5, #120]	; 0x78
20005e38:	2005      	movs	r0, #5
20005e3a:	491a      	ldr	r1, [pc, #104]	; (20005ea4 <dcd_init+0x80>)
20005e3c:	f7fe f9fa 	bl	20004234 <irq_add_shared_handler>
20005e40:	2340      	movs	r3, #64	; 0x40
20005e42:	4698      	mov	r8, r3
20005e44:	4c18      	ldr	r4, [pc, #96]	; (20005ea8 <dcd_init+0x84>)
20005e46:	2240      	movs	r2, #64	; 0x40
20005e48:	2100      	movs	r1, #0
20005e4a:	0020      	movs	r0, r4
20005e4c:	f7ff fd30 	bl	200058b0 <__wrap_memset>
20005e50:	4643      	mov	r3, r8
20005e52:	2701      	movs	r7, #1
20005e54:	8323      	strh	r3, [r4, #24]
20005e56:	2121      	movs	r1, #33	; 0x21
20005e58:	2300      	movs	r3, #0
20005e5a:	4a14      	ldr	r2, [pc, #80]	; (20005eac <dcd_init+0x88>)
20005e5c:	7067      	strb	r7, [r4, #1]
20005e5e:	60a2      	str	r2, [r4, #8]
20005e60:	6013      	str	r3, [r2, #0]
20005e62:	5463      	strb	r3, [r4, r1]
20005e64:	315f      	adds	r1, #95	; 0x5f
20005e66:	8461      	strh	r1, [r4, #34]	; 0x22
20005e68:	4641      	mov	r1, r8
20005e6a:	8721      	strh	r1, [r4, #56]	; 0x38
20005e6c:	3905      	subs	r1, #5
20005e6e:	5463      	strb	r3, [r4, r1]
20005e70:	4a0f      	ldr	r2, [pc, #60]	; (20005eb0 <dcd_init+0x8c>)
20005e72:	4910      	ldr	r1, [pc, #64]	; (20005eb4 <dcd_init+0x90>)
20005e74:	6063      	str	r3, [r4, #4]
20005e76:	60e2      	str	r2, [r4, #12]
20005e78:	62a1      	str	r1, [r4, #40]	; 0x28
20005e7a:	600b      	str	r3, [r1, #0]
20005e7c:	6263      	str	r3, [r4, #36]	; 0x24
20005e7e:	62e2      	str	r2, [r4, #44]	; 0x2c
20005e80:	f004 faf6 	bl	2000a470 <reset_non_control_endpoints>
20005e84:	2380      	movs	r3, #128	; 0x80
20005e86:	059b      	lsls	r3, r3, #22
20005e88:	642f      	str	r7, [r5, #64]	; 0x40
20005e8a:	64eb      	str	r3, [r5, #76]	; 0x4c
20005e8c:	2390      	movs	r3, #144	; 0x90
20005e8e:	4a0a      	ldr	r2, [pc, #40]	; (20005eb8 <dcd_init+0x94>)
20005e90:	0030      	movs	r0, r6
20005e92:	50ea      	str	r2, [r5, r3]
20005e94:	f7ff ffbe 	bl	20005e14 <dcd_connect>
20005e98:	bc80      	pop	{r7}
20005e9a:	46b8      	mov	r8, r7
20005e9c:	bdf0      	pop	{r4, r5, r6, r7, pc}
20005e9e:	46c0      	nop			; (mov r8, r8)
20005ea0:	50110000 	.word	0x50110000
20005ea4:	2000a5d5 	.word	0x2000a5d5
20005ea8:	200110e0 	.word	0x200110e0
20005eac:	50100084 	.word	0x50100084
20005eb0:	50100100 	.word	0x50100100
20005eb4:	50100080 	.word	0x50100080
20005eb8:	0001d010 	.word	0x0001d010

20005ebc <dcd_edpt0_status_complete>:
20005ebc:	780b      	ldrb	r3, [r1, #0]
20005ebe:	065b      	lsls	r3, r3, #25
20005ec0:	d102      	bne.n	20005ec8 <dcd_edpt0_status_complete+0xc>
20005ec2:	784b      	ldrb	r3, [r1, #1]
20005ec4:	2b05      	cmp	r3, #5
20005ec6:	d000      	beq.n	20005eca <dcd_edpt0_status_complete+0xe>
20005ec8:	4770      	bx	lr
20005eca:	788a      	ldrb	r2, [r1, #2]
20005ecc:	4b01      	ldr	r3, [pc, #4]	; (20005ed4 <dcd_edpt0_status_complete+0x18>)
20005ece:	601a      	str	r2, [r3, #0]
20005ed0:	e7fa      	b.n	20005ec8 <dcd_edpt0_status_complete+0xc>
20005ed2:	46c0      	nop			; (mov r8, r8)
20005ed4:	50110000 	.word	0x50110000

20005ed8 <dcd_edpt_open>:
20005ed8:	b5f0      	push	{r4, r5, r6, r7, lr}
20005eda:	46c6      	mov	lr, r8
20005edc:	b500      	push	{lr}
20005ede:	794b      	ldrb	r3, [r1, #5]
20005ee0:	790c      	ldrb	r4, [r1, #4]
20005ee2:	021b      	lsls	r3, r3, #8
20005ee4:	7888      	ldrb	r0, [r1, #2]
20005ee6:	4323      	orrs	r3, r4
20005ee8:	78cc      	ldrb	r4, [r1, #3]
20005eea:	217f      	movs	r1, #127	; 0x7f
20005eec:	07a4      	lsls	r4, r4, #30
20005eee:	4001      	ands	r1, r0
20005ef0:	09c5      	lsrs	r5, r0, #7
20005ef2:	0fa2      	lsrs	r2, r4, #30
20005ef4:	004f      	lsls	r7, r1, #1
20005ef6:	0014      	movs	r4, r2
20005ef8:	4e32      	ldr	r6, [pc, #200]	; (20005fc4 <dcd_edpt_open+0xec>)
20005efa:	197a      	adds	r2, r7, r5
20005efc:	0152      	lsls	r2, r2, #5
20005efe:	18b2      	adds	r2, r6, r2
20005f00:	7090      	strb	r0, [r2, #2]
20005f02:	2001      	movs	r0, #1
20005f04:	4068      	eors	r0, r5
20005f06:	7050      	strb	r0, [r2, #1]
20005f08:	2000      	movs	r0, #0
20005f0a:	055b      	lsls	r3, r3, #21
20005f0c:	0d5b      	lsrs	r3, r3, #21
20005f0e:	70d0      	strb	r0, [r2, #3]
20005f10:	8313      	strh	r3, [r2, #24]
20005f12:	76d4      	strb	r4, [r2, #27]
20005f14:	4680      	mov	r8, r0
20005f16:	00ca      	lsls	r2, r1, #3
20005f18:	2d01      	cmp	r5, #1
20005f1a:	d033      	beq.n	20005f84 <dcd_edpt_open+0xac>
20005f1c:	482a      	ldr	r0, [pc, #168]	; (20005fc8 <dcd_edpt_open+0xf0>)
20005f1e:	4684      	mov	ip, r0
20005f20:	0188      	lsls	r0, r1, #6
20005f22:	4462      	add	r2, ip
20005f24:	4684      	mov	ip, r0
20005f26:	44b4      	add	ip, r6
20005f28:	4660      	mov	r0, ip
20005f2a:	6082      	str	r2, [r0, #8]
20005f2c:	4640      	mov	r0, r8
20005f2e:	6010      	str	r0, [r2, #0]
20005f30:	2900      	cmp	r1, #0
20005f32:	d033      	beq.n	20005f9c <dcd_edpt_open+0xc4>
20005f34:	4a25      	ldr	r2, [pc, #148]	; (20005fcc <dcd_edpt_open+0xf4>)
20005f36:	00c9      	lsls	r1, r1, #3
20005f38:	4690      	mov	r8, r2
20005f3a:	4662      	mov	r2, ip
20005f3c:	4441      	add	r1, r8
20005f3e:	6051      	str	r1, [r2, #4]
20005f40:	223f      	movs	r2, #63	; 0x3f
20005f42:	333f      	adds	r3, #63	; 0x3f
20005f44:	4393      	bics	r3, r2
20005f46:	2c02      	cmp	r4, #2
20005f48:	d100      	bne.n	20005f4c <dcd_edpt_open+0x74>
20005f4a:	005b      	lsls	r3, r3, #1
20005f4c:	4820      	ldr	r0, [pc, #128]	; (20005fd0 <dcd_edpt_open+0xf8>)
20005f4e:	197a      	adds	r2, r7, r5
20005f50:	6801      	ldr	r1, [r0, #0]
20005f52:	0152      	lsls	r2, r2, #5
20005f54:	18b2      	adds	r2, r6, r2
20005f56:	60d1      	str	r1, [r2, #12]
20005f58:	4a1e      	ldr	r2, [pc, #120]	; (20005fd4 <dcd_edpt_open+0xfc>)
20005f5a:	18cb      	adds	r3, r1, r3
20005f5c:	6003      	str	r3, [r0, #0]
20005f5e:	4051      	eors	r1, r2
20005f60:	4053      	eors	r3, r2
20005f62:	2280      	movs	r2, #128	; 0x80
20005f64:	4688      	mov	r8, r1
20005f66:	0152      	lsls	r2, r2, #5
20005f68:	4293      	cmp	r3, r2
20005f6a:	d828      	bhi.n	20005fbe <dcd_edpt_open+0xe6>
20005f6c:	4643      	mov	r3, r8
20005f6e:	06a4      	lsls	r4, r4, #26
20005f70:	431c      	orrs	r4, r3
20005f72:	2380      	movs	r3, #128	; 0x80
20005f74:	197f      	adds	r7, r7, r5
20005f76:	017f      	lsls	r7, r7, #5
20005f78:	061b      	lsls	r3, r3, #24
20005f7a:	19f6      	adds	r6, r6, r7
20005f7c:	431c      	orrs	r4, r3
20005f7e:	6873      	ldr	r3, [r6, #4]
20005f80:	601c      	str	r4, [r3, #0]
20005f82:	e011      	b.n	20005fa8 <dcd_edpt_open+0xd0>
20005f84:	4814      	ldr	r0, [pc, #80]	; (20005fd8 <dcd_edpt_open+0x100>)
20005f86:	4684      	mov	ip, r0
20005f88:	0188      	lsls	r0, r1, #6
20005f8a:	4462      	add	r2, ip
20005f8c:	4684      	mov	ip, r0
20005f8e:	44b4      	add	ip, r6
20005f90:	4660      	mov	r0, ip
20005f92:	6282      	str	r2, [r0, #40]	; 0x28
20005f94:	4640      	mov	r0, r8
20005f96:	6010      	str	r0, [r2, #0]
20005f98:	2900      	cmp	r1, #0
20005f9a:	d109      	bne.n	20005fb0 <dcd_edpt_open+0xd8>
20005f9c:	2300      	movs	r3, #0
20005f9e:	016d      	lsls	r5, r5, #5
20005fa0:	1976      	adds	r6, r6, r5
20005fa2:	6073      	str	r3, [r6, #4]
20005fa4:	4b0d      	ldr	r3, [pc, #52]	; (20005fdc <dcd_edpt_open+0x104>)
20005fa6:	60f3      	str	r3, [r6, #12]
20005fa8:	2001      	movs	r0, #1
20005faa:	bc80      	pop	{r7}
20005fac:	46b8      	mov	r8, r7
20005fae:	bdf0      	pop	{r4, r5, r6, r7, pc}
20005fb0:	4a08      	ldr	r2, [pc, #32]	; (20005fd4 <dcd_edpt_open+0xfc>)
20005fb2:	00c9      	lsls	r1, r1, #3
20005fb4:	4690      	mov	r8, r2
20005fb6:	4662      	mov	r2, ip
20005fb8:	4441      	add	r1, r8
20005fba:	6251      	str	r1, [r2, #36]	; 0x24
20005fbc:	e7c0      	b.n	20005f40 <dcd_edpt_open+0x68>
20005fbe:	f7ff f915 	bl	200051ec <hard_assertion_failure>
20005fc2:	e7d3      	b.n	20005f6c <dcd_edpt_open+0x94>
20005fc4:	200110e0 	.word	0x200110e0
20005fc8:	50100084 	.word	0x50100084
20005fcc:	50100004 	.word	0x50100004
20005fd0:	200114e4 	.word	0x200114e4
20005fd4:	50100000 	.word	0x50100000
20005fd8:	50100080 	.word	0x50100080
20005fdc:	50100100 	.word	0x50100100

20005fe0 <dcd_edpt_close_all>:
20005fe0:	b510      	push	{r4, lr}
20005fe2:	f004 fa45 	bl	2000a470 <reset_non_control_endpoints>
20005fe6:	bd10      	pop	{r4, pc}

20005fe8 <dcd_edpt_xfer>:
20005fe8:	b510      	push	{r4, lr}
20005fea:	207f      	movs	r0, #127	; 0x7f
20005fec:	000c      	movs	r4, r1
20005fee:	4020      	ands	r0, r4
20005ff0:	0040      	lsls	r0, r0, #1
20005ff2:	09e4      	lsrs	r4, r4, #7
20005ff4:	0011      	movs	r1, r2
20005ff6:	1900      	adds	r0, r0, r4
20005ff8:	001a      	movs	r2, r3
20005ffa:	4b03      	ldr	r3, [pc, #12]	; (20006008 <dcd_edpt_xfer+0x20>)
20005ffc:	0140      	lsls	r0, r0, #5
20005ffe:	18c0      	adds	r0, r0, r3
20006000:	f000 f85e 	bl	200060c0 <hw_endpoint_xfer_start>
20006004:	2001      	movs	r0, #1
20006006:	bd10      	pop	{r4, pc}
20006008:	200110e0 	.word	0x200110e0

2000600c <dcd_edpt_stall>:
2000600c:	227f      	movs	r2, #127	; 0x7f
2000600e:	0013      	movs	r3, r2
20006010:	b510      	push	{r4, lr}
20006012:	400b      	ands	r3, r1
20006014:	420a      	tst	r2, r1
20006016:	d00b      	beq.n	20006030 <dcd_edpt_stall+0x24>
20006018:	09c9      	lsrs	r1, r1, #7
2000601a:	2280      	movs	r2, #128	; 0x80
2000601c:	0058      	lsls	r0, r3, #1
2000601e:	1840      	adds	r0, r0, r1
20006020:	4906      	ldr	r1, [pc, #24]	; (2000603c <dcd_edpt_stall+0x30>)
20006022:	0140      	lsls	r0, r0, #5
20006024:	1840      	adds	r0, r0, r1
20006026:	0112      	lsls	r2, r2, #4
20006028:	2100      	movs	r1, #0
2000602a:	f004 fde9 	bl	2000ac00 <_hw_endpoint_buffer_control_update32>
2000602e:	bd10      	pop	{r4, pc}
20006030:	2202      	movs	r2, #2
20006032:	4803      	ldr	r0, [pc, #12]	; (20006040 <dcd_edpt_stall+0x34>)
20006034:	09c9      	lsrs	r1, r1, #7
20006036:	1a52      	subs	r2, r2, r1
20006038:	6682      	str	r2, [r0, #104]	; 0x68
2000603a:	e7ee      	b.n	2000601a <dcd_edpt_stall+0xe>
2000603c:	200110e0 	.word	0x200110e0
20006040:	50112000 	.word	0x50112000

20006044 <dcd_edpt_clear_stall>:
20006044:	227f      	movs	r2, #127	; 0x7f
20006046:	0010      	movs	r0, r2
20006048:	b510      	push	{r4, lr}
2000604a:	4008      	ands	r0, r1
2000604c:	420a      	tst	r2, r1
2000604e:	d100      	bne.n	20006052 <dcd_edpt_clear_stall+0xe>
20006050:	bd10      	pop	{r4, pc}
20006052:	2300      	movs	r3, #0
20006054:	09c9      	lsrs	r1, r1, #7
20006056:	0040      	lsls	r0, r0, #1
20006058:	1840      	adds	r0, r0, r1
2000605a:	4904      	ldr	r1, [pc, #16]	; (2000606c <dcd_edpt_clear_stall+0x28>)
2000605c:	0140      	lsls	r0, r0, #5
2000605e:	1808      	adds	r0, r1, r0
20006060:	2200      	movs	r2, #0
20006062:	4903      	ldr	r1, [pc, #12]	; (20006070 <dcd_edpt_clear_stall+0x2c>)
20006064:	70c3      	strb	r3, [r0, #3]
20006066:	f004 fdcb 	bl	2000ac00 <_hw_endpoint_buffer_control_update32>
2000606a:	e7f1      	b.n	20006050 <dcd_edpt_clear_stall+0xc>
2000606c:	200110e0 	.word	0x200110e0
20006070:	fffff7ff 	.word	0xfffff7ff

20006074 <rp2040_usb_init>:
20006074:	2280      	movs	r2, #128	; 0x80
20006076:	4b0d      	ldr	r3, [pc, #52]	; (200060ac <rp2040_usb_init+0x38>)
20006078:	0452      	lsls	r2, r2, #17
2000607a:	b510      	push	{r4, lr}
2000607c:	601a      	str	r2, [r3, #0]
2000607e:	4b0c      	ldr	r3, [pc, #48]	; (200060b0 <rp2040_usb_init+0x3c>)
20006080:	490c      	ldr	r1, [pc, #48]	; (200060b4 <rp2040_usb_init+0x40>)
20006082:	601a      	str	r2, [r3, #0]
20006084:	0010      	movs	r0, r2
20006086:	688b      	ldr	r3, [r1, #8]
20006088:	4398      	bics	r0, r3
2000608a:	d1fb      	bne.n	20006084 <rp2040_usb_init+0x10>
2000608c:	4c0a      	ldr	r4, [pc, #40]	; (200060b8 <rp2040_usb_init+0x44>)
2000608e:	229c      	movs	r2, #156	; 0x9c
20006090:	2100      	movs	r1, #0
20006092:	0020      	movs	r0, r4
20006094:	f7ff fc0c 	bl	200058b0 <__wrap_memset>
20006098:	2280      	movs	r2, #128	; 0x80
2000609a:	2100      	movs	r1, #0
2000609c:	0152      	lsls	r2, r2, #5
2000609e:	4807      	ldr	r0, [pc, #28]	; (200060bc <rp2040_usb_init+0x48>)
200060a0:	f7ff fc06 	bl	200058b0 <__wrap_memset>
200060a4:	2309      	movs	r3, #9
200060a6:	6763      	str	r3, [r4, #116]	; 0x74
200060a8:	bd10      	pop	{r4, pc}
200060aa:	46c0      	nop			; (mov r8, r8)
200060ac:	4000e000 	.word	0x4000e000
200060b0:	4000f000 	.word	0x4000f000
200060b4:	4000c000 	.word	0x4000c000
200060b8:	50110000 	.word	0x50110000
200060bc:	50100000 	.word	0x50100000

200060c0 <hw_endpoint_xfer_start>:
200060c0:	b570      	push	{r4, r5, r6, lr}
200060c2:	7e83      	ldrb	r3, [r0, #26]
200060c4:	0004      	movs	r4, r0
200060c6:	000d      	movs	r5, r1
200060c8:	0016      	movs	r6, r2
200060ca:	2b00      	cmp	r3, #0
200060cc:	d117      	bne.n	200060fe <hw_endpoint_xfer_start+0x3e>
200060ce:	2300      	movs	r3, #0
200060d0:	82e3      	strh	r3, [r4, #22]
200060d2:	3301      	adds	r3, #1
200060d4:	0020      	movs	r0, r4
200060d6:	82a6      	strh	r6, [r4, #20]
200060d8:	76a3      	strb	r3, [r4, #26]
200060da:	6125      	str	r5, [r4, #16]
200060dc:	f004 fcea 	bl	2000aab4 <e15_is_bulkin_ep>
200060e0:	2800      	cmp	r0, #0
200060e2:	d004      	beq.n	200060ee <hw_endpoint_xfer_start+0x2e>
200060e4:	2180      	movs	r1, #128	; 0x80
200060e6:	2390      	movs	r3, #144	; 0x90
200060e8:	4a08      	ldr	r2, [pc, #32]	; (2000610c <hw_endpoint_xfer_start+0x4c>)
200060ea:	0289      	lsls	r1, r1, #10
200060ec:	50d1      	str	r1, [r2, r3]
200060ee:	0020      	movs	r0, r4
200060f0:	f004 fcf4 	bl	2000aadc <e15_is_critical_frame_period>
200060f4:	2800      	cmp	r0, #0
200060f6:	d005      	beq.n	20006104 <hw_endpoint_xfer_start+0x44>
200060f8:	2301      	movs	r3, #1
200060fa:	7723      	strb	r3, [r4, #28]
200060fc:	bd70      	pop	{r4, r5, r6, pc}
200060fe:	f004 fd79 	bl	2000abf4 <hw_endpoint_reset_transfer>
20006102:	e7e4      	b.n	200060ce <hw_endpoint_xfer_start+0xe>
20006104:	0020      	movs	r0, r4
20006106:	f004 fda7 	bl	2000ac58 <hw_endpoint_start_next_buffer>
2000610a:	e7f7      	b.n	200060fc <hw_endpoint_xfer_start+0x3c>
2000610c:	50112000 	.word	0x50112000

20006110 <configuration_reset>:
20006110:	b5f0      	push	{r4, r5, r6, r7, lr}
20006112:	46c6      	mov	lr, r8
20006114:	b500      	push	{lr}
20006116:	4e24      	ldr	r6, [pc, #144]	; (200061a8 <configuration_reset+0x98>)
20006118:	4a24      	ldr	r2, [pc, #144]	; (200061ac <configuration_reset+0x9c>)
2000611a:	0005      	movs	r5, r0
2000611c:	2400      	movs	r4, #0
2000611e:	7833      	ldrb	r3, [r6, #0]
20006120:	4f23      	ldr	r7, [pc, #140]	; (200061b0 <configuration_reset+0xa0>)
20006122:	2a00      	cmp	r2, #0
20006124:	d032      	beq.n	2000618c <configuration_reset+0x7c>
20006126:	4a23      	ldr	r2, [pc, #140]	; (200061b4 <configuration_reset+0xa4>)
20006128:	4690      	mov	r8, r2
2000612a:	42a3      	cmp	r3, r4
2000612c:	d824      	bhi.n	20006178 <configuration_reset+0x68>
2000612e:	1ae3      	subs	r3, r4, r3
20006130:	b2db      	uxtb	r3, r3
20006132:	2b02      	cmp	r3, #2
20006134:	d81d      	bhi.n	20006172 <configuration_reset+0x62>
20006136:	005a      	lsls	r2, r3, #1
20006138:	18d3      	adds	r3, r2, r3
2000613a:	00db      	lsls	r3, r3, #3
2000613c:	18fb      	adds	r3, r7, r3
2000613e:	685b      	ldr	r3, [r3, #4]
20006140:	0028      	movs	r0, r5
20006142:	4798      	blx	r3
20006144:	7833      	ldrb	r3, [r6, #0]
20006146:	3401      	adds	r4, #1
20006148:	b2e4      	uxtb	r4, r4
2000614a:	1c9a      	adds	r2, r3, #2
2000614c:	42a2      	cmp	r2, r4
2000614e:	daec      	bge.n	2000612a <configuration_reset+0x1a>
20006150:	4c19      	ldr	r4, [pc, #100]	; (200061b8 <configuration_reset+0xa8>)
20006152:	2253      	movs	r2, #83	; 0x53
20006154:	2100      	movs	r1, #0
20006156:	0020      	movs	r0, r4
20006158:	f7ff fbaa 	bl	200058b0 <__wrap_memset>
2000615c:	2210      	movs	r2, #16
2000615e:	21ff      	movs	r1, #255	; 0xff
20006160:	1ce0      	adds	r0, r4, #3
20006162:	f7ff fba5 	bl	200058b0 <__wrap_memset>
20006166:	0020      	movs	r0, r4
20006168:	2220      	movs	r2, #32
2000616a:	21ff      	movs	r1, #255	; 0xff
2000616c:	3013      	adds	r0, #19
2000616e:	f7ff fb9f 	bl	200058b0 <__wrap_memset>
20006172:	bc80      	pop	{r7}
20006174:	46b8      	mov	r8, r7
20006176:	bdf0      	pop	{r4, r5, r6, r7, pc}
20006178:	4642      	mov	r2, r8
2000617a:	6812      	ldr	r2, [r2, #0]
2000617c:	0063      	lsls	r3, r4, #1
2000617e:	4694      	mov	ip, r2
20006180:	191b      	adds	r3, r3, r4
20006182:	00db      	lsls	r3, r3, #3
20006184:	4463      	add	r3, ip
20006186:	2b00      	cmp	r3, #0
20006188:	d1d9      	bne.n	2000613e <configuration_reset+0x2e>
2000618a:	e7f2      	b.n	20006172 <configuration_reset+0x62>
2000618c:	2400      	movs	r4, #0
2000618e:	687b      	ldr	r3, [r7, #4]
20006190:	0028      	movs	r0, r5
20006192:	4798      	blx	r3
20006194:	7833      	ldrb	r3, [r6, #0]
20006196:	3401      	adds	r4, #1
20006198:	3302      	adds	r3, #2
2000619a:	3718      	adds	r7, #24
2000619c:	429c      	cmp	r4, r3
2000619e:	dcd7      	bgt.n	20006150 <configuration_reset+0x40>
200061a0:	2c03      	cmp	r4, #3
200061a2:	d0e6      	beq.n	20006172 <configuration_reset+0x62>
200061a4:	e7f3      	b.n	2000618e <configuration_reset+0x7e>
200061a6:	46c0      	nop			; (mov r8, r8)
200061a8:	200218c5 	.word	0x200218c5
200061ac:	20002d09 	.word	0x20002d09
200061b0:	2000b334 	.word	0x2000b334
200061b4:	2000baf8 	.word	0x2000baf8
200061b8:	2000cd70 	.word	0x2000cd70

200061bc <tud_mounted>:
200061bc:	4b02      	ldr	r3, [pc, #8]	; (200061c8 <tud_mounted+0xc>)
200061be:	7858      	ldrb	r0, [r3, #1]
200061c0:	1e43      	subs	r3, r0, #1
200061c2:	4198      	sbcs	r0, r3
200061c4:	b2c0      	uxtb	r0, r0
200061c6:	4770      	bx	lr
200061c8:	2000cd70 	.word	0x2000cd70

200061cc <tud_suspended>:
200061cc:	4b02      	ldr	r3, [pc, #8]	; (200061d8 <tud_suspended+0xc>)
200061ce:	7818      	ldrb	r0, [r3, #0]
200061d0:	0740      	lsls	r0, r0, #29
200061d2:	0fc0      	lsrs	r0, r0, #31
200061d4:	4770      	bx	lr
200061d6:	46c0      	nop			; (mov r8, r8)
200061d8:	2000cd70 	.word	0x2000cd70

200061dc <tud_inited>:
200061dc:	4b03      	ldr	r3, [pc, #12]	; (200061ec <tud_inited+0x10>)
200061de:	7818      	ldrb	r0, [r3, #0]
200061e0:	38ff      	subs	r0, #255	; 0xff
200061e2:	1e43      	subs	r3, r0, #1
200061e4:	4198      	sbcs	r0, r3
200061e6:	b2c0      	uxtb	r0, r0
200061e8:	4770      	bx	lr
200061ea:	46c0      	nop			; (mov r8, r8)
200061ec:	2000b54c 	.word	0x2000b54c

200061f0 <tud_init>:
200061f0:	b5f8      	push	{r3, r4, r5, r6, r7, lr}
200061f2:	46ce      	mov	lr, r9
200061f4:	4647      	mov	r7, r8
200061f6:	b580      	push	{r7, lr}
200061f8:	4e34      	ldr	r6, [pc, #208]	; (200062cc <tud_init+0xdc>)
200061fa:	0005      	movs	r5, r0
200061fc:	7833      	ldrb	r3, [r6, #0]
200061fe:	2001      	movs	r0, #1
20006200:	2bff      	cmp	r3, #255	; 0xff
20006202:	d003      	beq.n	2000620c <tud_init+0x1c>
20006204:	bcc0      	pop	{r6, r7}
20006206:	46b9      	mov	r9, r7
20006208:	46b0      	mov	r8, r6
2000620a:	bdf8      	pop	{r3, r4, r5, r6, r7, pc}
2000620c:	2253      	movs	r2, #83	; 0x53
2000620e:	2100      	movs	r1, #0
20006210:	482f      	ldr	r0, [pc, #188]	; (200062d0 <tud_init+0xe0>)
20006212:	f7ff fb4d 	bl	200058b0 <__wrap_memset>
20006216:	4c2f      	ldr	r4, [pc, #188]	; (200062d4 <tud_init+0xe4>)
20006218:	0020      	movs	r0, r4
2000621a:	f7fd fa9b 	bl	20003754 <mutex_init>
2000621e:	4b2e      	ldr	r3, [pc, #184]	; (200062d8 <tud_init+0xe8>)
20006220:	601c      	str	r4, [r3, #0]
20006222:	4c2e      	ldr	r4, [pc, #184]	; (200062dc <tud_init+0xec>)
20006224:	0020      	movs	r0, r4
20006226:	3014      	adds	r0, #20
20006228:	f7fd fab2 	bl	20003790 <critical_section_init>
2000622c:	0020      	movs	r0, r4
2000622e:	f001 fda3 	bl	20007d78 <tu_fifo_clear>
20006232:	4b2b      	ldr	r3, [pc, #172]	; (200062e0 <tud_init+0xf0>)
20006234:	4f2b      	ldr	r7, [pc, #172]	; (200062e4 <tud_init+0xf4>)
20006236:	601c      	str	r4, [r3, #0]
20006238:	4b2b      	ldr	r3, [pc, #172]	; (200062e8 <tud_init+0xf8>)
2000623a:	4698      	mov	r8, r3
2000623c:	2b00      	cmp	r3, #0
2000623e:	d004      	beq.n	2000624a <tud_init+0x5a>
20006240:	0038      	movs	r0, r7
20006242:	f7fc fd61 	bl	20002d08 <usbd_app_driver_get_cb>
20006246:	4b29      	ldr	r3, [pc, #164]	; (200062ec <tud_init+0xfc>)
20006248:	6018      	str	r0, [r3, #0]
2000624a:	4642      	mov	r2, r8
2000624c:	2400      	movs	r4, #0
2000624e:	783b      	ldrb	r3, [r7, #0]
20006250:	2a00      	cmp	r2, #0
20006252:	d01e      	beq.n	20006292 <tud_init+0xa2>
20006254:	4a26      	ldr	r2, [pc, #152]	; (200062f0 <tud_init+0x100>)
20006256:	4690      	mov	r8, r2
20006258:	4a24      	ldr	r2, [pc, #144]	; (200062ec <tud_init+0xfc>)
2000625a:	4691      	mov	r9, r2
2000625c:	42a3      	cmp	r3, r4
2000625e:	d82a      	bhi.n	200062b6 <tud_init+0xc6>
20006260:	1ae3      	subs	r3, r4, r3
20006262:	b2db      	uxtb	r3, r3
20006264:	2b02      	cmp	r3, #2
20006266:	d824      	bhi.n	200062b2 <tud_init+0xc2>
20006268:	005a      	lsls	r2, r3, #1
2000626a:	18d3      	adds	r3, r2, r3
2000626c:	00db      	lsls	r3, r3, #3
2000626e:	4443      	add	r3, r8
20006270:	681b      	ldr	r3, [r3, #0]
20006272:	4798      	blx	r3
20006274:	783b      	ldrb	r3, [r7, #0]
20006276:	3401      	adds	r4, #1
20006278:	b2e4      	uxtb	r4, r4
2000627a:	1c9a      	adds	r2, r3, #2
2000627c:	42a2      	cmp	r2, r4
2000627e:	daed      	bge.n	2000625c <tud_init+0x6c>
20006280:	0028      	movs	r0, r5
20006282:	7035      	strb	r5, [r6, #0]
20006284:	f7ff fdce 	bl	20005e24 <dcd_init>
20006288:	0028      	movs	r0, r5
2000628a:	f7ff fdb3 	bl	20005df4 <dcd_int_enable>
2000628e:	2001      	movs	r0, #1
20006290:	e7b8      	b.n	20006204 <tud_init+0x14>
20006292:	4b17      	ldr	r3, [pc, #92]	; (200062f0 <tud_init+0x100>)
20006294:	2400      	movs	r4, #0
20006296:	4698      	mov	r8, r3
20006298:	4643      	mov	r3, r8
2000629a:	681b      	ldr	r3, [r3, #0]
2000629c:	4798      	blx	r3
2000629e:	2318      	movs	r3, #24
200062a0:	469c      	mov	ip, r3
200062a2:	783b      	ldrb	r3, [r7, #0]
200062a4:	3401      	adds	r4, #1
200062a6:	3302      	adds	r3, #2
200062a8:	44e0      	add	r8, ip
200062aa:	429c      	cmp	r4, r3
200062ac:	dce8      	bgt.n	20006280 <tud_init+0x90>
200062ae:	2c03      	cmp	r4, #3
200062b0:	d1f2      	bne.n	20006298 <tud_init+0xa8>
200062b2:	2000      	movs	r0, #0
200062b4:	e7a6      	b.n	20006204 <tud_init+0x14>
200062b6:	464a      	mov	r2, r9
200062b8:	6812      	ldr	r2, [r2, #0]
200062ba:	0063      	lsls	r3, r4, #1
200062bc:	4694      	mov	ip, r2
200062be:	191b      	adds	r3, r3, r4
200062c0:	00db      	lsls	r3, r3, #3
200062c2:	4463      	add	r3, ip
200062c4:	2b00      	cmp	r3, #0
200062c6:	d1d3      	bne.n	20006270 <tud_init+0x80>
200062c8:	2000      	movs	r0, #0
200062ca:	e79b      	b.n	20006204 <tud_init+0x14>
200062cc:	2000b54c 	.word	0x2000b54c
200062d0:	2000cd70 	.word	0x2000cd70
200062d4:	2000cd28 	.word	0x2000cd28
200062d8:	2000cdc4 	.word	0x2000cdc4
200062dc:	2000b530 	.word	0x2000b530
200062e0:	2000cdc8 	.word	0x2000cdc8
200062e4:	200218c5 	.word	0x200218c5
200062e8:	20002d09 	.word	0x20002d09
200062ec:	2000baf8 	.word	0x2000baf8
200062f0:	2000b334 	.word	0x2000b334

200062f4 <tud_task_event_ready>:
200062f4:	b510      	push	{r4, lr}
200062f6:	f001 fa77 	bl	200077e8 <tusb_inited>
200062fa:	2800      	cmp	r0, #0
200062fc:	d006      	beq.n	2000630c <tud_task_event_ready+0x18>
200062fe:	4b04      	ldr	r3, [pc, #16]	; (20006310 <tud_task_event_ready+0x1c>)
20006300:	6818      	ldr	r0, [r3, #0]
20006302:	f001 fb5d 	bl	200079c0 <tu_fifo_empty>
20006306:	2301      	movs	r3, #1
20006308:	4058      	eors	r0, r3
2000630a:	b2c0      	uxtb	r0, r0
2000630c:	bd10      	pop	{r4, pc}
2000630e:	46c0      	nop			; (mov r8, r8)
20006310:	2000cdc8 	.word	0x2000cdc8

20006314 <tud_task_ext>:
20006314:	b5f0      	push	{r4, r5, r6, r7, lr}
20006316:	46de      	mov	lr, fp
20006318:	4657      	mov	r7, sl
2000631a:	464e      	mov	r6, r9
2000631c:	4645      	mov	r5, r8
2000631e:	b5e0      	push	{r5, r6, r7, lr}
20006320:	b08f      	sub	sp, #60	; 0x3c
20006322:	f001 fa61 	bl	200077e8 <tusb_inited>
20006326:	2800      	cmp	r0, #0
20006328:	d100      	bne.n	2000632c <tud_task_ext+0x18>
2000632a:	e0c8      	b.n	200064be <tud_task_ext+0x1aa>
2000632c:	4bc8      	ldr	r3, [pc, #800]	; (20006650 <tud_task_ext+0x33c>)
2000632e:	4fc9      	ldr	r7, [pc, #804]	; (20006654 <tud_task_ext+0x340>)
20006330:	4699      	mov	r9, r3
20006332:	2318      	movs	r3, #24
20006334:	469a      	mov	sl, r3
20006336:	3b05      	subs	r3, #5
20006338:	469b      	mov	fp, r3
2000633a:	4dc7      	ldr	r5, [pc, #796]	; (20006658 <tud_task_ext+0x344>)
2000633c:	ac0b      	add	r4, sp, #44	; 0x2c
2000633e:	44bb      	add	fp, r7
20006340:	682e      	ldr	r6, [r5, #0]
20006342:	6972      	ldr	r2, [r6, #20]
20006344:	f3ef 8110 	mrs	r1, PRIMASK
20006348:	b672      	cpsid	i
2000634a:	6813      	ldr	r3, [r2, #0]
2000634c:	2b00      	cmp	r3, #0
2000634e:	d0fc      	beq.n	2000634a <tud_task_ext+0x36>
20006350:	f3bf 8f5f 	dmb	sy
20006354:	61b1      	str	r1, [r6, #24]
20006356:	0030      	movs	r0, r6
20006358:	0021      	movs	r1, r4
2000635a:	f001 fb4f 	bl	200079fc <tu_fifo_read>
2000635e:	6972      	ldr	r2, [r6, #20]
20006360:	69b3      	ldr	r3, [r6, #24]
20006362:	f3bf 8f5f 	dmb	sy
20006366:	2100      	movs	r1, #0
20006368:	6011      	str	r1, [r2, #0]
2000636a:	f383 8810 	msr	PRIMASK, r3
2000636e:	2800      	cmp	r0, #0
20006370:	d100      	bne.n	20006374 <tud_task_ext+0x60>
20006372:	e0a4      	b.n	200064be <tud_task_ext+0x1aa>
20006374:	7863      	ldrb	r3, [r4, #1]
20006376:	2b08      	cmp	r3, #8
20006378:	d8e2      	bhi.n	20006340 <tud_task_ext+0x2c>
2000637a:	464a      	mov	r2, r9
2000637c:	009b      	lsls	r3, r3, #2
2000637e:	58d3      	ldr	r3, [r2, r3]
20006380:	469f      	mov	pc, r3
20006382:	6863      	ldr	r3, [r4, #4]
20006384:	2b00      	cmp	r3, #0
20006386:	d0db      	beq.n	20006340 <tud_task_ext+0x2c>
20006388:	68a0      	ldr	r0, [r4, #8]
2000638a:	4798      	blx	r3
2000638c:	e7d8      	b.n	20006340 <tud_task_ext+0x2c>
2000638e:	227f      	movs	r2, #127	; 0x7f
20006390:	7921      	ldrb	r1, [r4, #4]
20006392:	4bb0      	ldr	r3, [pc, #704]	; (20006654 <tud_task_ext+0x340>)
20006394:	400a      	ands	r2, r1
20006396:	0056      	lsls	r6, r2, #1
20006398:	199b      	adds	r3, r3, r6
2000639a:	4698      	mov	r8, r3
2000639c:	09c8      	lsrs	r0, r1, #7
2000639e:	4480      	add	r8, r0
200063a0:	4640      	mov	r0, r8
200063a2:	2301      	movs	r3, #1
200063a4:	3030      	adds	r0, #48	; 0x30
200063a6:	78c6      	ldrb	r6, [r0, #3]
200063a8:	439e      	bics	r6, r3
200063aa:	70c6      	strb	r6, [r0, #3]
200063ac:	78c6      	ldrb	r6, [r0, #3]
200063ae:	3303      	adds	r3, #3
200063b0:	439e      	bics	r6, r3
200063b2:	70c6      	strb	r6, [r0, #3]
200063b4:	2a00      	cmp	r2, #0
200063b6:	d100      	bne.n	200063ba <tud_task_ext+0xa6>
200063b8:	e088      	b.n	200064cc <tud_task_ext+0x1b8>
200063ba:	4643      	mov	r3, r8
200063bc:	4aa7      	ldr	r2, [pc, #668]	; (2000665c <tud_task_ext+0x348>)
200063be:	7cdb      	ldrb	r3, [r3, #19]
200063c0:	2a00      	cmp	r2, #0
200063c2:	d005      	beq.n	200063d0 <tud_task_ext+0xbc>
200063c4:	4aa6      	ldr	r2, [pc, #664]	; (20006660 <tud_task_ext+0x34c>)
200063c6:	7812      	ldrb	r2, [r2, #0]
200063c8:	4293      	cmp	r3, r2
200063ca:	d370      	bcc.n	200064ae <tud_task_ext+0x19a>
200063cc:	1a9b      	subs	r3, r3, r2
200063ce:	b2db      	uxtb	r3, r3
200063d0:	2b02      	cmp	r3, #2
200063d2:	d874      	bhi.n	200064be <tud_task_ext+0x1aa>
200063d4:	005a      	lsls	r2, r3, #1
200063d6:	18d2      	adds	r2, r2, r3
200063d8:	4ba2      	ldr	r3, [pc, #648]	; (20006664 <tud_task_ext+0x350>)
200063da:	00d2      	lsls	r2, r2, #3
200063dc:	189b      	adds	r3, r3, r2
200063de:	691e      	ldr	r6, [r3, #16]
200063e0:	7962      	ldrb	r2, [r4, #5]
200063e2:	7820      	ldrb	r0, [r4, #0]
200063e4:	68a3      	ldr	r3, [r4, #8]
200063e6:	47b0      	blx	r6
200063e8:	e7aa      	b.n	20006340 <tud_task_ext+0x2c>
200063ea:	2201      	movs	r2, #1
200063ec:	783b      	ldrb	r3, [r7, #0]
200063ee:	2001      	movs	r0, #1
200063f0:	4313      	orrs	r3, r2
200063f2:	703b      	strb	r3, [r7, #0]
200063f4:	2333      	movs	r3, #51	; 0x33
200063f6:	2104      	movs	r1, #4
200063f8:	5cfa      	ldrb	r2, [r7, r3]
200063fa:	4382      	bics	r2, r0
200063fc:	54fa      	strb	r2, [r7, r3]
200063fe:	5cfa      	ldrb	r2, [r7, r3]
20006400:	438a      	bics	r2, r1
20006402:	54fa      	strb	r2, [r7, r3]
20006404:	3301      	adds	r3, #1
20006406:	5cfa      	ldrb	r2, [r7, r3]
20006408:	4382      	bics	r2, r0
2000640a:	54fa      	strb	r2, [r7, r3]
2000640c:	5cfa      	ldrb	r2, [r7, r3]
2000640e:	2000      	movs	r0, #0
20006410:	438a      	bics	r2, r1
20006412:	54fa      	strb	r2, [r7, r3]
20006414:	7823      	ldrb	r3, [r4, #0]
20006416:	4698      	mov	r8, r3
20006418:	f000 fc74 	bl	20006d04 <usbd_control_set_complete_callback>
2000641c:	2260      	movs	r2, #96	; 0x60
2000641e:	7923      	ldrb	r3, [r4, #4]
20006420:	401a      	ands	r2, r3
20006422:	2a60      	cmp	r2, #96	; 0x60
20006424:	d00a      	beq.n	2000643c <tud_task_ext+0x128>
20006426:	2a40      	cmp	r2, #64	; 0x40
20006428:	d056      	beq.n	200064d8 <tud_task_ext+0x1c4>
2000642a:	06db      	lsls	r3, r3, #27
2000642c:	0edb      	lsrs	r3, r3, #27
2000642e:	2b01      	cmp	r3, #1
20006430:	d100      	bne.n	20006434 <tud_task_ext+0x120>
20006432:	e099      	b.n	20006568 <tud_task_ext+0x254>
20006434:	2b02      	cmp	r3, #2
20006436:	d068      	beq.n	2000650a <tud_task_ext+0x1f6>
20006438:	2b00      	cmp	r3, #0
2000643a:	d05b      	beq.n	200064f4 <tud_task_ext+0x1e0>
2000643c:	7820      	ldrb	r0, [r4, #0]
2000643e:	2100      	movs	r1, #0
20006440:	f7ff fde4 	bl	2000600c <dcd_edpt_stall>
20006444:	2180      	movs	r1, #128	; 0x80
20006446:	7820      	ldrb	r0, [r4, #0]
20006448:	f7ff fde0 	bl	2000600c <dcd_edpt_stall>
2000644c:	e778      	b.n	20006340 <tud_task_ext+0x2c>
2000644e:	4b81      	ldr	r3, [pc, #516]	; (20006654 <tud_task_ext+0x340>)
20006450:	781b      	ldrb	r3, [r3, #0]
20006452:	07db      	lsls	r3, r3, #31
20006454:	d400      	bmi.n	20006458 <tud_task_ext+0x144>
20006456:	e773      	b.n	20006340 <tud_task_ext+0x2c>
20006458:	4b83      	ldr	r3, [pc, #524]	; (20006668 <tud_task_ext+0x354>)
2000645a:	2b00      	cmp	r3, #0
2000645c:	d100      	bne.n	20006460 <tud_task_ext+0x14c>
2000645e:	e76f      	b.n	20006340 <tud_task_ext+0x2c>
20006460:	e000      	b.n	20006464 <tud_task_ext+0x150>
20006462:	bf00      	nop
20006464:	e76c      	b.n	20006340 <tud_task_ext+0x2c>
20006466:	4b7b      	ldr	r3, [pc, #492]	; (20006654 <tud_task_ext+0x340>)
20006468:	781a      	ldrb	r2, [r3, #0]
2000646a:	07d2      	lsls	r2, r2, #31
2000646c:	d400      	bmi.n	20006470 <tud_task_ext+0x15c>
2000646e:	e767      	b.n	20006340 <tud_task_ext+0x2c>
20006470:	4a7e      	ldr	r2, [pc, #504]	; (2000666c <tud_task_ext+0x358>)
20006472:	2a00      	cmp	r2, #0
20006474:	d100      	bne.n	20006478 <tud_task_ext+0x164>
20006476:	e763      	b.n	20006340 <tud_task_ext+0x2c>
20006478:	7818      	ldrb	r0, [r3, #0]
2000647a:	0700      	lsls	r0, r0, #28
2000647c:	0fc0      	lsrs	r0, r0, #31
2000647e:	e000      	b.n	20006482 <tud_task_ext+0x16e>
20006480:	bf00      	nop
20006482:	e75d      	b.n	20006340 <tud_task_ext+0x2c>
20006484:	7820      	ldrb	r0, [r4, #0]
20006486:	f7ff fe43 	bl	20006110 <configuration_reset>
2000648a:	f000 fc31 	bl	20006cf0 <usbd_control_reset>
2000648e:	4b78      	ldr	r3, [pc, #480]	; (20006670 <tud_task_ext+0x35c>)
20006490:	2b00      	cmp	r3, #0
20006492:	d100      	bne.n	20006496 <tud_task_ext+0x182>
20006494:	e754      	b.n	20006340 <tud_task_ext+0x2c>
20006496:	e000      	b.n	2000649a <tud_task_ext+0x186>
20006498:	bf00      	nop
2000649a:	e751      	b.n	20006340 <tud_task_ext+0x2c>
2000649c:	7820      	ldrb	r0, [r4, #0]
2000649e:	f7ff fe37 	bl	20006110 <configuration_reset>
200064a2:	f000 fc25 	bl	20006cf0 <usbd_control_reset>
200064a6:	7922      	ldrb	r2, [r4, #4]
200064a8:	4b6a      	ldr	r3, [pc, #424]	; (20006654 <tud_task_ext+0x340>)
200064aa:	709a      	strb	r2, [r3, #2]
200064ac:	e748      	b.n	20006340 <tud_task_ext+0x2c>
200064ae:	005a      	lsls	r2, r3, #1
200064b0:	18d2      	adds	r2, r2, r3
200064b2:	4b70      	ldr	r3, [pc, #448]	; (20006674 <tud_task_ext+0x360>)
200064b4:	00d2      	lsls	r2, r2, #3
200064b6:	681b      	ldr	r3, [r3, #0]
200064b8:	189b      	adds	r3, r3, r2
200064ba:	2b00      	cmp	r3, #0
200064bc:	d18f      	bne.n	200063de <tud_task_ext+0xca>
200064be:	b00f      	add	sp, #60	; 0x3c
200064c0:	bcf0      	pop	{r4, r5, r6, r7}
200064c2:	46bb      	mov	fp, r7
200064c4:	46b2      	mov	sl, r6
200064c6:	46a9      	mov	r9, r5
200064c8:	46a0      	mov	r8, r4
200064ca:	bdf0      	pop	{r4, r5, r6, r7, pc}
200064cc:	7962      	ldrb	r2, [r4, #5]
200064ce:	7820      	ldrb	r0, [r4, #0]
200064d0:	68a3      	ldr	r3, [r4, #8]
200064d2:	f000 fc2b 	bl	20006d2c <usbd_control_xfer_cb>
200064d6:	e733      	b.n	20006340 <tud_task_ext+0x2c>
200064d8:	4867      	ldr	r0, [pc, #412]	; (20006678 <tud_task_ext+0x364>)
200064da:	2800      	cmp	r0, #0
200064dc:	d0ae      	beq.n	2000643c <tud_task_ext+0x128>
200064de:	f000 fc11 	bl	20006d04 <usbd_control_set_complete_callback>
200064e2:	2101      	movs	r1, #1
200064e4:	4640      	mov	r0, r8
200064e6:	aa0c      	add	r2, sp, #48	; 0x30
200064e8:	f7fc fa0c 	bl	20002904 <tud_vendor_control_xfer_cb>
200064ec:	2800      	cmp	r0, #0
200064ee:	d000      	beq.n	200064f2 <tud_task_ext+0x1de>
200064f0:	e726      	b.n	20006340 <tud_task_ext+0x2c>
200064f2:	e7a3      	b.n	2000643c <tud_task_ext+0x128>
200064f4:	2a20      	cmp	r2, #32
200064f6:	d071      	beq.n	200065dc <tud_task_ext+0x2c8>
200064f8:	2a00      	cmp	r2, #0
200064fa:	d19f      	bne.n	2000643c <tud_task_ext+0x128>
200064fc:	7963      	ldrb	r3, [r4, #5]
200064fe:	2b09      	cmp	r3, #9
20006500:	d89c      	bhi.n	2000643c <tud_task_ext+0x128>
20006502:	4a5e      	ldr	r2, [pc, #376]	; (2000667c <tud_task_ext+0x368>)
20006504:	009b      	lsls	r3, r3, #2
20006506:	58d3      	ldr	r3, [r2, r3]
20006508:	469f      	mov	pc, r3
2000650a:	2370      	movs	r3, #112	; 0x70
2000650c:	7a21      	ldrb	r1, [r4, #8]
2000650e:	420b      	tst	r3, r1
20006510:	d194      	bne.n	2000643c <tud_task_ext+0x128>
20006512:	330f      	adds	r3, #15
20006514:	400b      	ands	r3, r1
20006516:	005b      	lsls	r3, r3, #1
20006518:	18f8      	adds	r0, r7, r3
2000651a:	09ce      	lsrs	r6, r1, #7
2000651c:	9300      	str	r3, [sp, #0]
2000651e:	4b4f      	ldr	r3, [pc, #316]	; (2000665c <tud_task_ext+0x348>)
20006520:	1980      	adds	r0, r0, r6
20006522:	7cc0      	ldrb	r0, [r0, #19]
20006524:	2b00      	cmp	r3, #0
20006526:	d006      	beq.n	20006536 <tud_task_ext+0x222>
20006528:	4b4d      	ldr	r3, [pc, #308]	; (20006660 <tud_task_ext+0x34c>)
2000652a:	781b      	ldrb	r3, [r3, #0]
2000652c:	4298      	cmp	r0, r3
2000652e:	d200      	bcs.n	20006532 <tud_task_ext+0x21e>
20006530:	e0b0      	b.n	20006694 <tud_task_ext+0x380>
20006532:	1ac0      	subs	r0, r0, r3
20006534:	b2c0      	uxtb	r0, r0
20006536:	2802      	cmp	r0, #2
20006538:	d86a      	bhi.n	20006610 <tud_task_ext+0x2fc>
2000653a:	0043      	lsls	r3, r0, #1
2000653c:	469c      	mov	ip, r3
2000653e:	4b49      	ldr	r3, [pc, #292]	; (20006664 <tud_task_ext+0x350>)
20006540:	4460      	add	r0, ip
20006542:	00c0      	lsls	r0, r0, #3
20006544:	469c      	mov	ip, r3
20006546:	0003      	movs	r3, r0
20006548:	4463      	add	r3, ip
2000654a:	9301      	str	r3, [sp, #4]
2000654c:	2a00      	cmp	r2, #0
2000654e:	d064      	beq.n	2000661a <tud_task_ext+0x306>
20006550:	9e01      	ldr	r6, [sp, #4]
20006552:	68f3      	ldr	r3, [r6, #12]
20006554:	0018      	movs	r0, r3
20006556:	9300      	str	r3, [sp, #0]
20006558:	f000 fbd4 	bl	20006d04 <usbd_control_set_complete_callback>
2000655c:	2101      	movs	r1, #1
2000655e:	4640      	mov	r0, r8
20006560:	68f3      	ldr	r3, [r6, #12]
20006562:	aa0c      	add	r2, sp, #48	; 0x30
20006564:	4798      	blx	r3
20006566:	e7c1      	b.n	200064ec <tud_task_ext+0x1d8>
20006568:	7a23      	ldrb	r3, [r4, #8]
2000656a:	2b0f      	cmp	r3, #15
2000656c:	d900      	bls.n	20006570 <tud_task_ext+0x25c>
2000656e:	e765      	b.n	2000643c <tud_task_ext+0x128>
20006570:	4a3a      	ldr	r2, [pc, #232]	; (2000665c <tud_task_ext+0x348>)
20006572:	18fb      	adds	r3, r7, r3
20006574:	78db      	ldrb	r3, [r3, #3]
20006576:	2a00      	cmp	r2, #0
20006578:	d006      	beq.n	20006588 <tud_task_ext+0x274>
2000657a:	4a39      	ldr	r2, [pc, #228]	; (20006660 <tud_task_ext+0x34c>)
2000657c:	7812      	ldrb	r2, [r2, #0]
2000657e:	4293      	cmp	r3, r2
20006580:	d200      	bcs.n	20006584 <tud_task_ext+0x270>
20006582:	e07d      	b.n	20006680 <tud_task_ext+0x36c>
20006584:	1a9b      	subs	r3, r3, r2
20006586:	b2db      	uxtb	r3, r3
20006588:	2b02      	cmp	r3, #2
2000658a:	d900      	bls.n	2000658e <tud_task_ext+0x27a>
2000658c:	e756      	b.n	2000643c <tud_task_ext+0x128>
2000658e:	005e      	lsls	r6, r3, #1
20006590:	18f3      	adds	r3, r6, r3
20006592:	4e34      	ldr	r6, [pc, #208]	; (20006664 <tud_task_ext+0x350>)
20006594:	00db      	lsls	r3, r3, #3
20006596:	18f6      	adds	r6, r6, r3
20006598:	68f0      	ldr	r0, [r6, #12]
2000659a:	f000 fbb3 	bl	20006d04 <usbd_control_set_complete_callback>
2000659e:	2101      	movs	r1, #1
200065a0:	4640      	mov	r0, r8
200065a2:	68f3      	ldr	r3, [r6, #12]
200065a4:	aa0c      	add	r2, sp, #48	; 0x30
200065a6:	4798      	blx	r3
200065a8:	2800      	cmp	r0, #0
200065aa:	d000      	beq.n	200065ae <tud_task_ext+0x29a>
200065ac:	e6c8      	b.n	20006340 <tud_task_ext+0x2c>
200065ae:	2260      	movs	r2, #96	; 0x60
200065b0:	0016      	movs	r6, r2
200065b2:	7923      	ldrb	r3, [r4, #4]
200065b4:	401e      	ands	r6, r3
200065b6:	421a      	tst	r2, r3
200065b8:	d000      	beq.n	200065bc <tud_task_ext+0x2a8>
200065ba:	e73f      	b.n	2000643c <tud_task_ext+0x128>
200065bc:	7963      	ldrb	r3, [r4, #5]
200065be:	3b0a      	subs	r3, #10
200065c0:	2b01      	cmp	r3, #1
200065c2:	d900      	bls.n	200065c6 <tud_task_ext+0x2b2>
200065c4:	e73a      	b.n	2000643c <tud_task_ext+0x128>
200065c6:	f000 fb9d 	bl	20006d04 <usbd_control_set_complete_callback>
200065ca:	7963      	ldrb	r3, [r4, #5]
200065cc:	2b0a      	cmp	r3, #10
200065ce:	d100      	bne.n	200065d2 <tud_task_ext+0x2be>
200065d0:	e155      	b.n	2000687e <tud_task_ext+0x56a>
200065d2:	4640      	mov	r0, r8
200065d4:	a90c      	add	r1, sp, #48	; 0x30
200065d6:	f000 fb15 	bl	20006c04 <tud_control_status>
200065da:	e6b1      	b.n	20006340 <tud_task_ext+0x2c>
200065dc:	7a23      	ldrb	r3, [r4, #8]
200065de:	2b0f      	cmp	r3, #15
200065e0:	d900      	bls.n	200065e4 <tud_task_ext+0x2d0>
200065e2:	e72b      	b.n	2000643c <tud_task_ext+0x128>
200065e4:	4a1d      	ldr	r2, [pc, #116]	; (2000665c <tud_task_ext+0x348>)
200065e6:	18fb      	adds	r3, r7, r3
200065e8:	78db      	ldrb	r3, [r3, #3]
200065ea:	2a00      	cmp	r2, #0
200065ec:	d006      	beq.n	200065fc <tud_task_ext+0x2e8>
200065ee:	4a1c      	ldr	r2, [pc, #112]	; (20006660 <tud_task_ext+0x34c>)
200065f0:	7812      	ldrb	r2, [r2, #0]
200065f2:	4293      	cmp	r3, r2
200065f4:	d200      	bcs.n	200065f8 <tud_task_ext+0x2e4>
200065f6:	e117      	b.n	20006828 <tud_task_ext+0x514>
200065f8:	1a9b      	subs	r3, r3, r2
200065fa:	b2db      	uxtb	r3, r3
200065fc:	2b02      	cmp	r3, #2
200065fe:	d900      	bls.n	20006602 <tud_task_ext+0x2ee>
20006600:	e71c      	b.n	2000643c <tud_task_ext+0x128>
20006602:	005e      	lsls	r6, r3, #1
20006604:	18f3      	adds	r3, r6, r3
20006606:	4e17      	ldr	r6, [pc, #92]	; (20006664 <tud_task_ext+0x350>)
20006608:	00db      	lsls	r3, r3, #3
2000660a:	18f6      	adds	r6, r6, r3
2000660c:	68f0      	ldr	r0, [r6, #12]
2000660e:	e7a3      	b.n	20006558 <tud_task_ext+0x244>
20006610:	2a00      	cmp	r2, #0
20006612:	d000      	beq.n	20006616 <tud_task_ext+0x302>
20006614:	e712      	b.n	2000643c <tud_task_ext+0x128>
20006616:	2300      	movs	r3, #0
20006618:	9301      	str	r3, [sp, #4]
2000661a:	7960      	ldrb	r0, [r4, #5]
2000661c:	2302      	movs	r3, #2
2000661e:	0002      	movs	r2, r0
20006620:	9002      	str	r0, [sp, #8]
20006622:	439a      	bics	r2, r3
20006624:	2a01      	cmp	r2, #1
20006626:	d100      	bne.n	2000662a <tud_task_ext+0x316>
20006628:	e0db      	b.n	200067e2 <tud_task_ext+0x4ce>
2000662a:	2800      	cmp	r0, #0
2000662c:	d000      	beq.n	20006630 <tud_task_ext+0x31c>
2000662e:	e705      	b.n	2000643c <tud_task_ext+0x128>
20006630:	9b00      	ldr	r3, [sp, #0]
20006632:	aa0a      	add	r2, sp, #40	; 0x28
20006634:	18fb      	adds	r3, r7, r3
20006636:	199e      	adds	r6, r3, r6
20006638:	3630      	adds	r6, #48	; 0x30
2000663a:	78f3      	ldrb	r3, [r6, #3]
2000663c:	3202      	adds	r2, #2
2000663e:	079b      	lsls	r3, r3, #30
20006640:	0fdb      	lsrs	r3, r3, #31
20006642:	8013      	strh	r3, [r2, #0]
20006644:	4640      	mov	r0, r8
20006646:	2302      	movs	r3, #2
20006648:	a90c      	add	r1, sp, #48	; 0x30
2000664a:	f000 faf3 	bl	20006c34 <tud_control_xfer>
2000664e:	e677      	b.n	20006340 <tud_task_ext+0x2c>
20006650:	2000b2a8 	.word	0x2000b2a8
20006654:	2000cd70 	.word	0x2000cd70
20006658:	2000cdc8 	.word	0x2000cdc8
2000665c:	20002d09 	.word	0x20002d09
20006660:	200218c5 	.word	0x200218c5
20006664:	2000b334 	.word	0x2000b334
	...
20006674:	2000baf8 	.word	0x2000baf8
20006678:	20002905 	.word	0x20002905
2000667c:	2000b2cc 	.word	0x2000b2cc
20006680:	4ac4      	ldr	r2, [pc, #784]	; (20006994 <tud_task_ext+0x680>)
20006682:	005e      	lsls	r6, r3, #1
20006684:	18f3      	adds	r3, r6, r3
20006686:	6816      	ldr	r6, [r2, #0]
20006688:	00db      	lsls	r3, r3, #3
2000668a:	18f6      	adds	r6, r6, r3
2000668c:	2e00      	cmp	r6, #0
2000668e:	d100      	bne.n	20006692 <tud_task_ext+0x37e>
20006690:	e6d4      	b.n	2000643c <tud_task_ext+0x128>
20006692:	e781      	b.n	20006598 <tud_task_ext+0x284>
20006694:	0043      	lsls	r3, r0, #1
20006696:	469c      	mov	ip, r3
20006698:	4bbe      	ldr	r3, [pc, #760]	; (20006994 <tud_task_ext+0x680>)
2000669a:	4460      	add	r0, ip
2000669c:	681b      	ldr	r3, [r3, #0]
2000669e:	00c0      	lsls	r0, r0, #3
200066a0:	469c      	mov	ip, r3
200066a2:	0003      	movs	r3, r0
200066a4:	4463      	add	r3, ip
200066a6:	9301      	str	r3, [sp, #4]
200066a8:	2a00      	cmp	r2, #0
200066aa:	d0b6      	beq.n	2000661a <tud_task_ext+0x306>
200066ac:	2b00      	cmp	r3, #0
200066ae:	d000      	beq.n	200066b2 <tud_task_ext+0x39e>
200066b0:	e74e      	b.n	20006550 <tud_task_ext+0x23c>
200066b2:	e6c3      	b.n	2000643c <tud_task_ext+0x128>
200066b4:	787b      	ldrb	r3, [r7, #1]
200066b6:	aa0a      	add	r2, sp, #40	; 0x28
200066b8:	3202      	adds	r2, #2
200066ba:	7013      	strb	r3, [r2, #0]
200066bc:	4640      	mov	r0, r8
200066be:	2301      	movs	r3, #1
200066c0:	a90c      	add	r1, sp, #48	; 0x30
200066c2:	f000 fab7 	bl	20006c34 <tud_control_xfer>
200066c6:	e63b      	b.n	20006340 <tud_task_ext+0x2c>
200066c8:	88e0      	ldrh	r0, [r4, #6]
200066ca:	0a03      	lsrs	r3, r0, #8
200066cc:	b2c0      	uxtb	r0, r0
200066ce:	2b0f      	cmp	r3, #15
200066d0:	d900      	bls.n	200066d4 <tud_task_ext+0x3c0>
200066d2:	e6b3      	b.n	2000643c <tud_task_ext+0x128>
200066d4:	49b0      	ldr	r1, [pc, #704]	; (20006998 <tud_task_ext+0x684>)
200066d6:	009a      	lsls	r2, r3, #2
200066d8:	588a      	ldr	r2, [r1, r2]
200066da:	4697      	mov	pc, r2
200066dc:	79a3      	ldrb	r3, [r4, #6]
200066de:	9304      	str	r3, [sp, #16]
200066e0:	001a      	movs	r2, r3
200066e2:	787b      	ldrb	r3, [r7, #1]
200066e4:	429a      	cmp	r2, r3
200066e6:	d007      	beq.n	200066f8 <tud_task_ext+0x3e4>
200066e8:	787b      	ldrb	r3, [r7, #1]
200066ea:	2b00      	cmp	r3, #0
200066ec:	d000      	beq.n	200066f0 <tud_task_ext+0x3dc>
200066ee:	e138      	b.n	20006962 <tud_task_ext+0x64e>
200066f0:	9b04      	ldr	r3, [sp, #16]
200066f2:	2b00      	cmp	r3, #0
200066f4:	d000      	beq.n	200066f8 <tud_task_ext+0x3e4>
200066f6:	e0cb      	b.n	20006890 <tud_task_ext+0x57c>
200066f8:	9b04      	ldr	r3, [sp, #16]
200066fa:	4640      	mov	r0, r8
200066fc:	a90c      	add	r1, sp, #48	; 0x30
200066fe:	707b      	strb	r3, [r7, #1]
20006700:	f000 fa80 	bl	20006c04 <tud_control_status>
20006704:	e61c      	b.n	20006340 <tud_task_ext+0x2c>
20006706:	a80c      	add	r0, sp, #48	; 0x30
20006708:	f000 fb02 	bl	20006d10 <usbd_control_set_request>
2000670c:	4640      	mov	r0, r8
2000670e:	79a1      	ldrb	r1, [r4, #6]
20006710:	f7ff fb76 	bl	20005e00 <dcd_set_address>
20006714:	2202      	movs	r2, #2
20006716:	783b      	ldrb	r3, [r7, #0]
20006718:	4313      	orrs	r3, r2
2000671a:	703b      	strb	r3, [r7, #0]
2000671c:	e610      	b.n	20006340 <tud_task_ext+0x2c>
2000671e:	88e3      	ldrh	r3, [r4, #6]
20006720:	2b01      	cmp	r3, #1
20006722:	d000      	beq.n	20006726 <tud_task_ext+0x412>
20006724:	e68a      	b.n	2000643c <tud_task_ext+0x128>
20006726:	2208      	movs	r2, #8
20006728:	783b      	ldrb	r3, [r7, #0]
2000672a:	4640      	mov	r0, r8
2000672c:	4313      	orrs	r3, r2
2000672e:	a90c      	add	r1, sp, #48	; 0x30
20006730:	703b      	strb	r3, [r7, #0]
20006732:	f000 fa67 	bl	20006c04 <tud_control_status>
20006736:	e603      	b.n	20006340 <tud_task_ext+0x2c>
20006738:	88e3      	ldrh	r3, [r4, #6]
2000673a:	2b01      	cmp	r3, #1
2000673c:	d000      	beq.n	20006740 <tud_task_ext+0x42c>
2000673e:	e67d      	b.n	2000643c <tud_task_ext+0x128>
20006740:	2208      	movs	r2, #8
20006742:	783b      	ldrb	r3, [r7, #0]
20006744:	4640      	mov	r0, r8
20006746:	4393      	bics	r3, r2
20006748:	a90c      	add	r1, sp, #48	; 0x30
2000674a:	703b      	strb	r3, [r7, #0]
2000674c:	f000 fa5a 	bl	20006c04 <tud_control_status>
20006750:	e5f6      	b.n	20006340 <tud_task_ext+0x2c>
20006752:	2002      	movs	r0, #2
20006754:	7839      	ldrb	r1, [r7, #0]
20006756:	ab0a      	add	r3, sp, #40	; 0x28
20006758:	1c9a      	adds	r2, r3, #2
2000675a:	068b      	lsls	r3, r1, #26
2000675c:	0889      	lsrs	r1, r1, #2
2000675e:	0fdb      	lsrs	r3, r3, #31
20006760:	4001      	ands	r1, r0
20006762:	430b      	orrs	r3, r1
20006764:	e76d      	b.n	20006642 <tud_task_ext+0x32e>
20006766:	4b8d      	ldr	r3, [pc, #564]	; (2000699c <tud_task_ext+0x688>)
20006768:	2b00      	cmp	r3, #0
2000676a:	d100      	bne.n	2000676e <tud_task_ext+0x45a>
2000676c:	e666      	b.n	2000643c <tud_task_ext+0x128>
2000676e:	f7fc f953 	bl	20002a18 <tud_descriptor_bos_cb>
20006772:	1e02      	subs	r2, r0, #0
20006774:	d100      	bne.n	20006778 <tud_task_ext+0x464>
20006776:	e661      	b.n	2000643c <tud_task_ext+0x128>
20006778:	78d3      	ldrb	r3, [r2, #3]
2000677a:	7891      	ldrb	r1, [r2, #2]
2000677c:	021b      	lsls	r3, r3, #8
2000677e:	430b      	orrs	r3, r1
20006780:	4640      	mov	r0, r8
20006782:	a90c      	add	r1, sp, #48	; 0x30
20006784:	f000 fa56 	bl	20006c34 <tud_control_xfer>
20006788:	e6b0      	b.n	200064ec <tud_task_ext+0x1d8>
2000678a:	4b85      	ldr	r3, [pc, #532]	; (200069a0 <tud_task_ext+0x68c>)
2000678c:	2b00      	cmp	r3, #0
2000678e:	d100      	bne.n	20006792 <tud_task_ext+0x47e>
20006790:	e654      	b.n	2000643c <tud_task_ext+0x128>
20006792:	e000      	b.n	20006796 <tud_task_ext+0x482>
20006794:	bf00      	nop
20006796:	1e02      	subs	r2, r0, #0
20006798:	d100      	bne.n	2000679c <tud_task_ext+0x488>
2000679a:	e64f      	b.n	2000643c <tud_task_ext+0x128>
2000679c:	4640      	mov	r0, r8
2000679e:	7813      	ldrb	r3, [r2, #0]
200067a0:	a90c      	add	r1, sp, #48	; 0x30
200067a2:	f000 fa47 	bl	20006c34 <tud_control_xfer>
200067a6:	e6a1      	b.n	200064ec <tud_task_ext+0x1d8>
200067a8:	8921      	ldrh	r1, [r4, #8]
200067aa:	f7fc f8f5 	bl	20002998 <tud_descriptor_string_cb>
200067ae:	1e02      	subs	r2, r0, #0
200067b0:	d1f4      	bne.n	2000679c <tud_task_ext+0x488>
200067b2:	e643      	b.n	2000643c <tud_task_ext+0x128>
200067b4:	2b02      	cmp	r3, #2
200067b6:	d100      	bne.n	200067ba <tud_task_ext+0x4a6>
200067b8:	e0dc      	b.n	20006974 <tud_task_ext+0x660>
200067ba:	4b7a      	ldr	r3, [pc, #488]	; (200069a4 <tud_task_ext+0x690>)
200067bc:	2b00      	cmp	r3, #0
200067be:	d100      	bne.n	200067c2 <tud_task_ext+0x4ae>
200067c0:	e63c      	b.n	2000643c <tud_task_ext+0x128>
200067c2:	e000      	b.n	200067c6 <tud_task_ext+0x4b2>
200067c4:	bf00      	nop
200067c6:	0002      	movs	r2, r0
200067c8:	2a00      	cmp	r2, #0
200067ca:	d100      	bne.n	200067ce <tud_task_ext+0x4ba>
200067cc:	e636      	b.n	2000643c <tud_task_ext+0x128>
200067ce:	e7d3      	b.n	20006778 <tud_task_ext+0x464>
200067d0:	f7fc f8d2 	bl	20002978 <tud_descriptor_device_cb>
200067d4:	2312      	movs	r3, #18
200067d6:	0002      	movs	r2, r0
200067d8:	a90c      	add	r1, sp, #48	; 0x30
200067da:	4640      	mov	r0, r8
200067dc:	f000 fa2a 	bl	20006c34 <tud_control_xfer>
200067e0:	e684      	b.n	200064ec <tud_task_ext+0x1d8>
200067e2:	88e2      	ldrh	r2, [r4, #6]
200067e4:	2a00      	cmp	r2, #0
200067e6:	d108      	bne.n	200067fa <tud_task_ext+0x4e6>
200067e8:	2801      	cmp	r0, #1
200067ea:	d027      	beq.n	2000683c <tud_task_ext+0x528>
200067ec:	9b00      	ldr	r3, [sp, #0]
200067ee:	18fb      	adds	r3, r7, r3
200067f0:	199e      	adds	r6, r3, r6
200067f2:	3630      	adds	r6, #48	; 0x30
200067f4:	78f3      	ldrb	r3, [r6, #3]
200067f6:	079b      	lsls	r3, r3, #30
200067f8:	d534      	bpl.n	20006864 <tud_task_ext+0x550>
200067fa:	9e01      	ldr	r6, [sp, #4]
200067fc:	2e00      	cmp	r6, #0
200067fe:	d100      	bne.n	20006802 <tud_task_ext+0x4ee>
20006800:	e59e      	b.n	20006340 <tud_task_ext+0x2c>
20006802:	68f3      	ldr	r3, [r6, #12]
20006804:	0018      	movs	r0, r3
20006806:	9300      	str	r3, [sp, #0]
20006808:	f000 fa7c 	bl	20006d04 <usbd_control_set_complete_callback>
2000680c:	68f3      	ldr	r3, [r6, #12]
2000680e:	2101      	movs	r1, #1
20006810:	aa0c      	add	r2, sp, #48	; 0x30
20006812:	4640      	mov	r0, r8
20006814:	4798      	blx	r3
20006816:	2000      	movs	r0, #0
20006818:	f000 fa74 	bl	20006d04 <usbd_control_set_complete_callback>
2000681c:	2334      	movs	r3, #52	; 0x34
2000681e:	5cfb      	ldrb	r3, [r7, r3]
20006820:	07db      	lsls	r3, r3, #31
20006822:	d500      	bpl.n	20006826 <tud_task_ext+0x512>
20006824:	e58c      	b.n	20006340 <tud_task_ext+0x2c>
20006826:	e6d4      	b.n	200065d2 <tud_task_ext+0x2be>
20006828:	4a5a      	ldr	r2, [pc, #360]	; (20006994 <tud_task_ext+0x680>)
2000682a:	005e      	lsls	r6, r3, #1
2000682c:	18f3      	adds	r3, r6, r3
2000682e:	6816      	ldr	r6, [r2, #0]
20006830:	00db      	lsls	r3, r3, #3
20006832:	18f6      	adds	r6, r6, r3
20006834:	2e00      	cmp	r6, #0
20006836:	d100      	bne.n	2000683a <tud_task_ext+0x526>
20006838:	e600      	b.n	2000643c <tud_task_ext+0x128>
2000683a:	e6e7      	b.n	2000660c <tud_task_ext+0x2f8>
2000683c:	9b00      	ldr	r3, [sp, #0]
2000683e:	18fb      	adds	r3, r7, r3
20006840:	199e      	adds	r6, r3, r6
20006842:	3630      	adds	r6, #48	; 0x30
20006844:	78f3      	ldrb	r3, [r6, #3]
20006846:	079b      	lsls	r3, r3, #30
20006848:	d5d7      	bpl.n	200067fa <tud_task_ext+0x4e6>
2000684a:	4b57      	ldr	r3, [pc, #348]	; (200069a8 <tud_task_ext+0x694>)
2000684c:	7818      	ldrb	r0, [r3, #0]
2000684e:	f7ff fbf9 	bl	20006044 <dcd_edpt_clear_stall>
20006852:	2202      	movs	r2, #2
20006854:	78f3      	ldrb	r3, [r6, #3]
20006856:	4393      	bics	r3, r2
20006858:	70f3      	strb	r3, [r6, #3]
2000685a:	78f3      	ldrb	r3, [r6, #3]
2000685c:	9a02      	ldr	r2, [sp, #8]
2000685e:	4393      	bics	r3, r2
20006860:	70f3      	strb	r3, [r6, #3]
20006862:	e7ca      	b.n	200067fa <tud_task_ext+0x4e6>
20006864:	4b50      	ldr	r3, [pc, #320]	; (200069a8 <tud_task_ext+0x694>)
20006866:	7818      	ldrb	r0, [r3, #0]
20006868:	f7ff fbd0 	bl	2000600c <dcd_edpt_stall>
2000686c:	2202      	movs	r2, #2
2000686e:	78f3      	ldrb	r3, [r6, #3]
20006870:	4313      	orrs	r3, r2
20006872:	2201      	movs	r2, #1
20006874:	70f3      	strb	r3, [r6, #3]
20006876:	78f3      	ldrb	r3, [r6, #3]
20006878:	4313      	orrs	r3, r2
2000687a:	70f3      	strb	r3, [r6, #3]
2000687c:	e7bd      	b.n	200067fa <tud_task_ext+0x4e6>
2000687e:	ab0a      	add	r3, sp, #40	; 0x28
20006880:	1c9a      	adds	r2, r3, #2
20006882:	4640      	mov	r0, r8
20006884:	2301      	movs	r3, #1
20006886:	a90c      	add	r1, sp, #48	; 0x30
20006888:	7016      	strb	r6, [r2, #0]
2000688a:	f000 f9d3 	bl	20006c34 <tud_control_xfer>
2000688e:	e557      	b.n	20006340 <tud_task_ext+0x2c>
20006890:	1e58      	subs	r0, r3, #1
20006892:	b2c0      	uxtb	r0, r0
20006894:	f7fc f878 	bl	20002988 <tud_descriptor_configuration_cb>
20006898:	2800      	cmp	r0, #0
2000689a:	d100      	bne.n	2000689e <tud_task_ext+0x58a>
2000689c:	e5ce      	b.n	2000643c <tud_task_ext+0x128>
2000689e:	7843      	ldrb	r3, [r0, #1]
200068a0:	9308      	str	r3, [sp, #32]
200068a2:	2b02      	cmp	r3, #2
200068a4:	d000      	beq.n	200068a8 <tud_task_ext+0x594>
200068a6:	e5c9      	b.n	2000643c <tud_task_ext+0x128>
200068a8:	2101      	movs	r1, #1
200068aa:	0006      	movs	r6, r0
200068ac:	79c2      	ldrb	r2, [r0, #7]
200068ae:	3609      	adds	r6, #9
200068b0:	1193      	asrs	r3, r2, #6
200068b2:	1152      	asrs	r2, r2, #5
200068b4:	400b      	ands	r3, r1
200068b6:	400a      	ands	r2, r1
200068b8:	0112      	lsls	r2, r2, #4
200068ba:	015b      	lsls	r3, r3, #5
200068bc:	4313      	orrs	r3, r2
200068be:	783a      	ldrb	r2, [r7, #0]
200068c0:	312f      	adds	r1, #47	; 0x2f
200068c2:	438a      	bics	r2, r1
200068c4:	4313      	orrs	r3, r2
200068c6:	703b      	strb	r3, [r7, #0]
200068c8:	78c3      	ldrb	r3, [r0, #3]
200068ca:	7882      	ldrb	r2, [r0, #2]
200068cc:	021b      	lsls	r3, r3, #8
200068ce:	4313      	orrs	r3, r2
200068d0:	18c3      	adds	r3, r0, r3
200068d2:	9307      	str	r3, [sp, #28]
200068d4:	4643      	mov	r3, r8
200068d6:	46b0      	mov	r8, r6
200068d8:	9306      	str	r3, [sp, #24]
200068da:	9b07      	ldr	r3, [sp, #28]
200068dc:	4543      	cmp	r3, r8
200068de:	d800      	bhi.n	200068e2 <tud_task_ext+0x5ce>
200068e0:	e08c      	b.n	200069fc <tud_task_ext+0x6e8>
200068e2:	4643      	mov	r3, r8
200068e4:	2201      	movs	r2, #1
200068e6:	785b      	ldrb	r3, [r3, #1]
200068e8:	9203      	str	r2, [sp, #12]
200068ea:	2b0b      	cmp	r3, #11
200068ec:	d105      	bne.n	200068fa <tud_task_ext+0x5e6>
200068ee:	4643      	mov	r3, r8
200068f0:	78db      	ldrb	r3, [r3, #3]
200068f2:	9303      	str	r3, [sp, #12]
200068f4:	4643      	mov	r3, r8
200068f6:	781b      	ldrb	r3, [r3, #0]
200068f8:	4498      	add	r8, r3
200068fa:	4643      	mov	r3, r8
200068fc:	785b      	ldrb	r3, [r3, #1]
200068fe:	2b04      	cmp	r3, #4
20006900:	d000      	beq.n	20006904 <tud_task_ext+0x5f0>
20006902:	e59b      	b.n	2000643c <tud_task_ext+0x128>
20006904:	4642      	mov	r2, r8
20006906:	2100      	movs	r1, #0
20006908:	9b07      	ldr	r3, [sp, #28]
2000690a:	9101      	str	r1, [sp, #4]
2000690c:	1a9b      	subs	r3, r3, r2
2000690e:	b29b      	uxth	r3, r3
20006910:	9302      	str	r3, [sp, #8]
20006912:	4a26      	ldr	r2, [pc, #152]	; (200069ac <tud_task_ext+0x698>)
20006914:	4b26      	ldr	r3, [pc, #152]	; (200069b0 <tud_task_ext+0x69c>)
20006916:	9100      	str	r1, [sp, #0]
20006918:	781b      	ldrb	r3, [r3, #0]
2000691a:	428a      	cmp	r2, r1
2000691c:	d04c      	beq.n	200069b8 <tud_task_ext+0x6a4>
2000691e:	9a00      	ldr	r2, [sp, #0]
20006920:	429a      	cmp	r2, r3
20006922:	d32b      	bcc.n	2000697c <tud_task_ext+0x668>
20006924:	1ad3      	subs	r3, r2, r3
20006926:	b2db      	uxtb	r3, r3
20006928:	2b02      	cmp	r3, #2
2000692a:	d900      	bls.n	2000692e <tud_task_ext+0x61a>
2000692c:	e586      	b.n	2000643c <tud_task_ext+0x128>
2000692e:	4652      	mov	r2, sl
20006930:	4353      	muls	r3, r2
20006932:	4a20      	ldr	r2, [pc, #128]	; (200069b4 <tud_task_ext+0x6a0>)
20006934:	18d6      	adds	r6, r2, r3
20006936:	4641      	mov	r1, r8
20006938:	9a02      	ldr	r2, [sp, #8]
2000693a:	9806      	ldr	r0, [sp, #24]
2000693c:	68b3      	ldr	r3, [r6, #8]
2000693e:	4798      	blx	r3
20006940:	4684      	mov	ip, r0
20006942:	2808      	cmp	r0, #8
20006944:	d902      	bls.n	2000694c <tud_task_ext+0x638>
20006946:	9a02      	ldr	r2, [sp, #8]
20006948:	4282      	cmp	r2, r0
2000694a:	d260      	bcs.n	20006a0e <tud_task_ext+0x6fa>
2000694c:	9b00      	ldr	r3, [sp, #0]
2000694e:	3301      	adds	r3, #1
20006950:	b2d9      	uxtb	r1, r3
20006952:	4b17      	ldr	r3, [pc, #92]	; (200069b0 <tud_task_ext+0x69c>)
20006954:	9100      	str	r1, [sp, #0]
20006956:	781b      	ldrb	r3, [r3, #0]
20006958:	9101      	str	r1, [sp, #4]
2000695a:	1c9a      	adds	r2, r3, #2
2000695c:	428a      	cmp	r2, r1
2000695e:	dade      	bge.n	2000691e <tud_task_ext+0x60a>
20006960:	e56c      	b.n	2000643c <tud_task_ext+0x128>
20006962:	4640      	mov	r0, r8
20006964:	f7ff fb3c 	bl	20005fe0 <dcd_edpt_close_all>
20006968:	78be      	ldrb	r6, [r7, #2]
2000696a:	4640      	mov	r0, r8
2000696c:	f7ff fbd0 	bl	20006110 <configuration_reset>
20006970:	70be      	strb	r6, [r7, #2]
20006972:	e6bd      	b.n	200066f0 <tud_task_ext+0x3dc>
20006974:	f7fc f808 	bl	20002988 <tud_descriptor_configuration_cb>
20006978:	0002      	movs	r2, r0
2000697a:	e725      	b.n	200067c8 <tud_task_ext+0x4b4>
2000697c:	4b05      	ldr	r3, [pc, #20]	; (20006994 <tud_task_ext+0x680>)
2000697e:	4656      	mov	r6, sl
20006980:	681b      	ldr	r3, [r3, #0]
20006982:	4356      	muls	r6, r2
20006984:	9305      	str	r3, [sp, #20]
20006986:	9b05      	ldr	r3, [sp, #20]
20006988:	469c      	mov	ip, r3
2000698a:	4466      	add	r6, ip
2000698c:	2e00      	cmp	r6, #0
2000698e:	d1d2      	bne.n	20006936 <tud_task_ext+0x622>
20006990:	e554      	b.n	2000643c <tud_task_ext+0x128>
20006992:	46c0      	nop			; (mov r8, r8)
20006994:	2000baf8 	.word	0x2000baf8
20006998:	2000b2f4 	.word	0x2000b2f4
2000699c:	20002a19 	.word	0x20002a19
	...
200069a8:	2000b54c 	.word	0x2000b54c
200069ac:	20002d09 	.word	0x20002d09
200069b0:	200218c5 	.word	0x200218c5
200069b4:	2000b334 	.word	0x2000b334
200069b8:	4b2c      	ldr	r3, [pc, #176]	; (20006a6c <tud_task_ext+0x758>)
200069ba:	9305      	str	r3, [sp, #20]
200069bc:	9a01      	ldr	r2, [sp, #4]
200069be:	b2d3      	uxtb	r3, r2
200069c0:	9300      	str	r3, [sp, #0]
200069c2:	2a03      	cmp	r2, #3
200069c4:	d100      	bne.n	200069c8 <tud_task_ext+0x6b4>
200069c6:	e539      	b.n	2000643c <tud_task_ext+0x128>
200069c8:	9b05      	ldr	r3, [sp, #20]
200069ca:	4641      	mov	r1, r8
200069cc:	001e      	movs	r6, r3
200069ce:	689b      	ldr	r3, [r3, #8]
200069d0:	9a02      	ldr	r2, [sp, #8]
200069d2:	9806      	ldr	r0, [sp, #24]
200069d4:	9309      	str	r3, [sp, #36]	; 0x24
200069d6:	4798      	blx	r3
200069d8:	4684      	mov	ip, r0
200069da:	2808      	cmp	r0, #8
200069dc:	d902      	bls.n	200069e4 <tud_task_ext+0x6d0>
200069de:	9a02      	ldr	r2, [sp, #8]
200069e0:	4282      	cmp	r2, r0
200069e2:	d214      	bcs.n	20006a0e <tud_task_ext+0x6fa>
200069e4:	9b05      	ldr	r3, [sp, #20]
200069e6:	9a01      	ldr	r2, [sp, #4]
200069e8:	3318      	adds	r3, #24
200069ea:	9305      	str	r3, [sp, #20]
200069ec:	4b20      	ldr	r3, [pc, #128]	; (20006a70 <tud_task_ext+0x75c>)
200069ee:	3201      	adds	r2, #1
200069f0:	781b      	ldrb	r3, [r3, #0]
200069f2:	9201      	str	r2, [sp, #4]
200069f4:	3302      	adds	r3, #2
200069f6:	429a      	cmp	r2, r3
200069f8:	dde0      	ble.n	200069bc <tud_task_ext+0x6a8>
200069fa:	e51f      	b.n	2000643c <tud_task_ext+0x128>
200069fc:	9b06      	ldr	r3, [sp, #24]
200069fe:	4698      	mov	r8, r3
20006a00:	4b1c      	ldr	r3, [pc, #112]	; (20006a74 <tud_task_ext+0x760>)
20006a02:	2b00      	cmp	r3, #0
20006a04:	d100      	bne.n	20006a08 <tud_task_ext+0x6f4>
20006a06:	e677      	b.n	200066f8 <tud_task_ext+0x3e4>
20006a08:	e000      	b.n	20006a0c <tud_task_ext+0x6f8>
20006a0a:	bf00      	nop
20006a0c:	e674      	b.n	200066f8 <tud_task_ext+0x3e4>
20006a0e:	9b03      	ldr	r3, [sp, #12]
20006a10:	2b01      	cmp	r3, #1
20006a12:	d023      	beq.n	20006a5c <tud_task_ext+0x748>
20006a14:	2200      	movs	r2, #0
20006a16:	4640      	mov	r0, r8
20006a18:	e00b      	b.n	20006a32 <tud_task_ext+0x71e>
20006a1a:	7883      	ldrb	r3, [r0, #2]
20006a1c:	18d3      	adds	r3, r2, r3
20006a1e:	b2db      	uxtb	r3, r3
20006a20:	18fb      	adds	r3, r7, r3
20006a22:	78d9      	ldrb	r1, [r3, #3]
20006a24:	29ff      	cmp	r1, #255	; 0xff
20006a26:	d000      	beq.n	20006a2a <tud_task_ext+0x716>
20006a28:	e508      	b.n	2000643c <tud_task_ext+0x128>
20006a2a:	9900      	ldr	r1, [sp, #0]
20006a2c:	3201      	adds	r2, #1
20006a2e:	70d9      	strb	r1, [r3, #3]
20006a30:	b2d2      	uxtb	r2, r2
20006a32:	9b03      	ldr	r3, [sp, #12]
20006a34:	429a      	cmp	r2, r3
20006a36:	d1f0      	bne.n	20006a1a <tud_task_ext+0x706>
20006a38:	4666      	mov	r6, ip
20006a3a:	4662      	mov	r2, ip
20006a3c:	4680      	mov	r8, r0
20006a3e:	0001      	movs	r1, r0
20006a40:	9b00      	ldr	r3, [sp, #0]
20006a42:	4658      	mov	r0, fp
20006a44:	f000 ff54 	bl	200078f0 <tu_edpt_bind_driver>
20006a48:	46b4      	mov	ip, r6
20006a4a:	4b09      	ldr	r3, [pc, #36]	; (20006a70 <tud_task_ext+0x75c>)
20006a4c:	9a01      	ldr	r2, [sp, #4]
20006a4e:	781b      	ldrb	r3, [r3, #0]
20006a50:	44e0      	add	r8, ip
20006a52:	3302      	adds	r3, #2
20006a54:	429a      	cmp	r2, r3
20006a56:	dc00      	bgt.n	20006a5a <tud_task_ext+0x746>
20006a58:	e73f      	b.n	200068da <tud_task_ext+0x5c6>
20006a5a:	e4ef      	b.n	2000643c <tud_task_ext+0x128>
20006a5c:	4b06      	ldr	r3, [pc, #24]	; (20006a78 <tud_task_ext+0x764>)
20006a5e:	68b2      	ldr	r2, [r6, #8]
20006a60:	429a      	cmp	r2, r3
20006a62:	d1d7      	bne.n	20006a14 <tud_task_ext+0x700>
20006a64:	9b08      	ldr	r3, [sp, #32]
20006a66:	9303      	str	r3, [sp, #12]
20006a68:	e7d4      	b.n	20006a14 <tud_task_ext+0x700>
20006a6a:	46c0      	nop			; (mov r8, r8)
20006a6c:	2000b334 	.word	0x2000b334
20006a70:	200218c5 	.word	0x200218c5
20006a74:	00000000 	.word	0x00000000
20006a78:	20006f4d 	.word	0x20006f4d

20006a7c <usbd_open_edpt_pair>:
20006a7c:	b5f8      	push	{r3, r4, r5, r6, r7, lr}
20006a7e:	4657      	mov	r7, sl
20006a80:	464e      	mov	r6, r9
20006a82:	46de      	mov	lr, fp
20006a84:	4645      	mov	r5, r8
20006a86:	000c      	movs	r4, r1
20006a88:	b5e0      	push	{r5, r6, r7, lr}
20006a8a:	0016      	movs	r6, r2
20006a8c:	001f      	movs	r7, r3
20006a8e:	2a00      	cmp	r2, #0
20006a90:	d03c      	beq.n	20006b0c <usbd_open_edpt_pair+0x90>
20006a92:	2370      	movs	r3, #112	; 0x70
20006a94:	4698      	mov	r8, r3
20006a96:	4b1e      	ldr	r3, [pc, #120]	; (20006b10 <usbd_open_edpt_pair+0x94>)
20006a98:	2500      	movs	r5, #0
20006a9a:	469b      	mov	fp, r3
20006a9c:	4b1d      	ldr	r3, [pc, #116]	; (20006b14 <usbd_open_edpt_pair+0x98>)
20006a9e:	469a      	mov	sl, r3
20006aa0:	e01a      	b.n	20006ad8 <usbd_open_edpt_pair+0x5c>
20006aa2:	465b      	mov	r3, fp
20006aa4:	781b      	ldrb	r3, [r3, #0]
20006aa6:	0020      	movs	r0, r4
20006aa8:	4699      	mov	r9, r3
20006aaa:	4653      	mov	r3, sl
20006aac:	7899      	ldrb	r1, [r3, #2]
20006aae:	f000 fee3 	bl	20007878 <tu_edpt_validate>
20006ab2:	2800      	cmp	r0, #0
20006ab4:	d01c      	beq.n	20006af0 <usbd_open_edpt_pair+0x74>
20006ab6:	0021      	movs	r1, r4
20006ab8:	4648      	mov	r0, r9
20006aba:	f7ff fa0d 	bl	20005ed8 <dcd_edpt_open>
20006abe:	2800      	cmp	r0, #0
20006ac0:	d016      	beq.n	20006af0 <usbd_open_edpt_pair+0x74>
20006ac2:	78a3      	ldrb	r3, [r4, #2]
20006ac4:	09da      	lsrs	r2, r3, #7
20006ac6:	2a01      	cmp	r2, #1
20006ac8:	d019      	beq.n	20006afe <usbd_open_edpt_pair+0x82>
20006aca:	9a0a      	ldr	r2, [sp, #40]	; 0x28
20006acc:	3501      	adds	r5, #1
20006ace:	7013      	strb	r3, [r2, #0]
20006ad0:	7823      	ldrb	r3, [r4, #0]
20006ad2:	18e4      	adds	r4, r4, r3
20006ad4:	42b5      	cmp	r5, r6
20006ad6:	da19      	bge.n	20006b0c <usbd_open_edpt_pair+0x90>
20006ad8:	7863      	ldrb	r3, [r4, #1]
20006ada:	2b05      	cmp	r3, #5
20006adc:	d108      	bne.n	20006af0 <usbd_open_edpt_pair+0x74>
20006ade:	78e3      	ldrb	r3, [r4, #3]
20006ae0:	079b      	lsls	r3, r3, #30
20006ae2:	0f9b      	lsrs	r3, r3, #30
20006ae4:	42bb      	cmp	r3, r7
20006ae6:	d103      	bne.n	20006af0 <usbd_open_edpt_pair+0x74>
20006ae8:	4642      	mov	r2, r8
20006aea:	78a3      	ldrb	r3, [r4, #2]
20006aec:	421a      	tst	r2, r3
20006aee:	d0d8      	beq.n	20006aa2 <usbd_open_edpt_pair+0x26>
20006af0:	2000      	movs	r0, #0
20006af2:	bcf0      	pop	{r4, r5, r6, r7}
20006af4:	46bb      	mov	fp, r7
20006af6:	46b2      	mov	sl, r6
20006af8:	46a9      	mov	r9, r5
20006afa:	46a0      	mov	r8, r4
20006afc:	bdf8      	pop	{r3, r4, r5, r6, r7, pc}
20006afe:	9a0b      	ldr	r2, [sp, #44]	; 0x2c
20006b00:	3501      	adds	r5, #1
20006b02:	7013      	strb	r3, [r2, #0]
20006b04:	7823      	ldrb	r3, [r4, #0]
20006b06:	18e4      	adds	r4, r4, r3
20006b08:	42b5      	cmp	r5, r6
20006b0a:	dbe5      	blt.n	20006ad8 <usbd_open_edpt_pair+0x5c>
20006b0c:	2001      	movs	r0, #1
20006b0e:	e7f0      	b.n	20006af2 <usbd_open_edpt_pair+0x76>
20006b10:	2000b54c 	.word	0x2000b54c
20006b14:	2000cd70 	.word	0x2000cd70

20006b18 <usbd_edpt_open>:
20006b18:	2270      	movs	r2, #112	; 0x70
20006b1a:	b570      	push	{r4, r5, r6, lr}
20006b1c:	788b      	ldrb	r3, [r1, #2]
20006b1e:	000c      	movs	r4, r1
20006b20:	421a      	tst	r2, r3
20006b22:	d001      	beq.n	20006b28 <usbd_edpt_open+0x10>
20006b24:	2000      	movs	r0, #0
20006b26:	bd70      	pop	{r4, r5, r6, pc}
20006b28:	4b06      	ldr	r3, [pc, #24]	; (20006b44 <usbd_edpt_open+0x2c>)
20006b2a:	0020      	movs	r0, r4
20006b2c:	781d      	ldrb	r5, [r3, #0]
20006b2e:	4b06      	ldr	r3, [pc, #24]	; (20006b48 <usbd_edpt_open+0x30>)
20006b30:	7899      	ldrb	r1, [r3, #2]
20006b32:	f000 fea1 	bl	20007878 <tu_edpt_validate>
20006b36:	2800      	cmp	r0, #0
20006b38:	d0f4      	beq.n	20006b24 <usbd_edpt_open+0xc>
20006b3a:	0021      	movs	r1, r4
20006b3c:	0028      	movs	r0, r5
20006b3e:	f7ff f9cb 	bl	20005ed8 <dcd_edpt_open>
20006b42:	e7f0      	b.n	20006b26 <usbd_edpt_open+0xe>
20006b44:	2000b54c 	.word	0x2000b54c
20006b48:	2000cd70 	.word	0x2000cd70

20006b4c <usbd_edpt_claim>:
20006b4c:	4b07      	ldr	r3, [pc, #28]	; (20006b6c <usbd_edpt_claim+0x20>)
20006b4e:	0008      	movs	r0, r1
20006b50:	6819      	ldr	r1, [r3, #0]
20006b52:	237f      	movs	r3, #127	; 0x7f
20006b54:	b510      	push	{r4, lr}
20006b56:	4003      	ands	r3, r0
20006b58:	09c0      	lsrs	r0, r0, #7
20006b5a:	005b      	lsls	r3, r3, #1
20006b5c:	3033      	adds	r0, #51	; 0x33
20006b5e:	1818      	adds	r0, r3, r0
20006b60:	4b03      	ldr	r3, [pc, #12]	; (20006b70 <usbd_edpt_claim+0x24>)
20006b62:	1818      	adds	r0, r3, r0
20006b64:	f000 fe44 	bl	200077f0 <tu_edpt_claim>
20006b68:	bd10      	pop	{r4, pc}
20006b6a:	46c0      	nop			; (mov r8, r8)
20006b6c:	2000cdc4 	.word	0x2000cdc4
20006b70:	2000cd70 	.word	0x2000cd70

20006b74 <usbd_edpt_release>:
20006b74:	4b07      	ldr	r3, [pc, #28]	; (20006b94 <usbd_edpt_release+0x20>)
20006b76:	0008      	movs	r0, r1
20006b78:	6819      	ldr	r1, [r3, #0]
20006b7a:	237f      	movs	r3, #127	; 0x7f
20006b7c:	b510      	push	{r4, lr}
20006b7e:	4003      	ands	r3, r0
20006b80:	09c0      	lsrs	r0, r0, #7
20006b82:	005b      	lsls	r3, r3, #1
20006b84:	3033      	adds	r0, #51	; 0x33
20006b86:	1818      	adds	r0, r3, r0
20006b88:	4b03      	ldr	r3, [pc, #12]	; (20006b98 <usbd_edpt_release+0x24>)
20006b8a:	1818      	adds	r0, r3, r0
20006b8c:	f000 fe58 	bl	20007840 <tu_edpt_release>
20006b90:	bd10      	pop	{r4, pc}
20006b92:	46c0      	nop			; (mov r8, r8)
20006b94:	2000cdc4 	.word	0x2000cdc4
20006b98:	2000cd70 	.word	0x2000cd70

20006b9c <usbd_edpt_xfer>:
20006b9c:	207f      	movs	r0, #127	; 0x7f
20006b9e:	b570      	push	{r4, r5, r6, lr}
20006ba0:	4008      	ands	r0, r1
20006ba2:	4c0f      	ldr	r4, [pc, #60]	; (20006be0 <usbd_edpt_xfer+0x44>)
20006ba4:	0040      	lsls	r0, r0, #1
20006ba6:	09cd      	lsrs	r5, r1, #7
20006ba8:	1824      	adds	r4, r4, r0
20006baa:	1964      	adds	r4, r4, r5
20006bac:	3430      	adds	r4, #48	; 0x30
20006bae:	78e5      	ldrb	r5, [r4, #3]
20006bb0:	2000      	movs	r0, #0
20006bb2:	07ed      	lsls	r5, r5, #31
20006bb4:	d500      	bpl.n	20006bb8 <usbd_edpt_xfer+0x1c>
20006bb6:	bd70      	pop	{r4, r5, r6, pc}
20006bb8:	2601      	movs	r6, #1
20006bba:	78e5      	ldrb	r5, [r4, #3]
20006bbc:	4809      	ldr	r0, [pc, #36]	; (20006be4 <usbd_edpt_xfer+0x48>)
20006bbe:	4335      	orrs	r5, r6
20006bc0:	7800      	ldrb	r0, [r0, #0]
20006bc2:	70e5      	strb	r5, [r4, #3]
20006bc4:	f7ff fa10 	bl	20005fe8 <dcd_edpt_xfer>
20006bc8:	2800      	cmp	r0, #0
20006bca:	d1f4      	bne.n	20006bb6 <usbd_edpt_xfer+0x1a>
20006bcc:	2201      	movs	r2, #1
20006bce:	78e3      	ldrb	r3, [r4, #3]
20006bd0:	4393      	bics	r3, r2
20006bd2:	70e3      	strb	r3, [r4, #3]
20006bd4:	78e3      	ldrb	r3, [r4, #3]
20006bd6:	3203      	adds	r2, #3
20006bd8:	4393      	bics	r3, r2
20006bda:	70e3      	strb	r3, [r4, #3]
20006bdc:	e7eb      	b.n	20006bb6 <usbd_edpt_xfer+0x1a>
20006bde:	46c0      	nop			; (mov r8, r8)
20006be0:	2000cd70 	.word	0x2000cd70
20006be4:	2000b54c 	.word	0x2000b54c

20006be8 <usbd_edpt_busy>:
20006be8:	227f      	movs	r2, #127	; 0x7f
20006bea:	09cb      	lsrs	r3, r1, #7
20006bec:	400a      	ands	r2, r1
20006bee:	4904      	ldr	r1, [pc, #16]	; (20006c00 <usbd_edpt_busy+0x18>)
20006bf0:	0052      	lsls	r2, r2, #1
20006bf2:	1889      	adds	r1, r1, r2
20006bf4:	18c9      	adds	r1, r1, r3
20006bf6:	3130      	adds	r1, #48	; 0x30
20006bf8:	78c8      	ldrb	r0, [r1, #3]
20006bfa:	07c0      	lsls	r0, r0, #31
20006bfc:	0fc0      	lsrs	r0, r0, #31
20006bfe:	4770      	bx	lr
20006c00:	2000cd70 	.word	0x2000cd70

20006c04 <tud_control_status>:
20006c04:	b570      	push	{r4, r5, r6, lr}
20006c06:	4e0a      	ldr	r6, [pc, #40]	; (20006c30 <tud_control_status+0x2c>)
20006c08:	0005      	movs	r5, r0
20006c0a:	0030      	movs	r0, r6
20006c0c:	2208      	movs	r2, #8
20006c0e:	000c      	movs	r4, r1
20006c10:	f7fe fe54 	bl	200058bc <__wrap___aeabi_memcpy>
20006c14:	2300      	movs	r3, #0
20006c16:	217f      	movs	r1, #127	; 0x7f
20006c18:	60f3      	str	r3, [r6, #12]
20006c1a:	7822      	ldrb	r2, [r4, #0]
20006c1c:	60b3      	str	r3, [r6, #8]
20006c1e:	4291      	cmp	r1, r2
20006c20:	415b      	adcs	r3, r3
20006c22:	0028      	movs	r0, r5
20006c24:	01d9      	lsls	r1, r3, #7
20006c26:	2200      	movs	r2, #0
20006c28:	2300      	movs	r3, #0
20006c2a:	f7ff ffb7 	bl	20006b9c <usbd_edpt_xfer>
20006c2e:	bd70      	pop	{r4, r5, r6, pc}
20006c30:	2000cc44 	.word	0x2000cc44

20006c34 <tud_control_xfer>:
20006c34:	b5f8      	push	{r3, r4, r5, r6, r7, lr}
20006c36:	46ce      	mov	lr, r9
20006c38:	4647      	mov	r7, r8
20006c3a:	4691      	mov	r9, r2
20006c3c:	4e2a      	ldr	r6, [pc, #168]	; (20006ce8 <tud_control_xfer+0xb4>)
20006c3e:	b580      	push	{r7, lr}
20006c40:	2208      	movs	r2, #8
20006c42:	0007      	movs	r7, r0
20006c44:	0030      	movs	r0, r6
20006c46:	000d      	movs	r5, r1
20006c48:	4698      	mov	r8, r3
20006c4a:	f7fe fe37 	bl	200058bc <__wrap___aeabi_memcpy>
20006c4e:	464b      	mov	r3, r9
20006c50:	60b3      	str	r3, [r6, #8]
20006c52:	2300      	movs	r3, #0
20006c54:	81f3      	strh	r3, [r6, #14]
20006c56:	79ec      	ldrb	r4, [r5, #7]
20006c58:	79a9      	ldrb	r1, [r5, #6]
20006c5a:	0224      	lsls	r4, r4, #8
20006c5c:	430c      	orrs	r4, r1
20006c5e:	1c23      	adds	r3, r4, #0
20006c60:	4544      	cmp	r4, r8
20006c62:	d900      	bls.n	20006c66 <tud_control_xfer+0x32>
20006c64:	4643      	mov	r3, r8
20006c66:	b29a      	uxth	r2, r3
20006c68:	4690      	mov	r8, r2
20006c6a:	81b3      	strh	r3, [r6, #12]
20006c6c:	2c00      	cmp	r4, #0
20006c6e:	d013      	beq.n	20006c98 <tud_control_xfer+0x64>
20006c70:	2a00      	cmp	r2, #0
20006c72:	d01f      	beq.n	20006cb4 <tud_control_xfer+0x80>
20006c74:	464b      	mov	r3, r9
20006c76:	2b00      	cmp	r3, #0
20006c78:	d034      	beq.n	20006ce4 <tud_control_xfer+0xb0>
20006c7a:	1c13      	adds	r3, r2, #0
20006c7c:	2a40      	cmp	r2, #64	; 0x40
20006c7e:	d81f      	bhi.n	20006cc0 <tud_control_xfer+0x8c>
20006c80:	b29b      	uxth	r3, r3
20006c82:	4698      	mov	r8, r3
20006c84:	7833      	ldrb	r3, [r6, #0]
20006c86:	2b7f      	cmp	r3, #127	; 0x7f
20006c88:	d820      	bhi.n	20006ccc <tud_control_xfer+0x98>
20006c8a:	2100      	movs	r1, #0
20006c8c:	4a17      	ldr	r2, [pc, #92]	; (20006cec <tud_control_xfer+0xb8>)
20006c8e:	4643      	mov	r3, r8
20006c90:	0038      	movs	r0, r7
20006c92:	f7ff ff83 	bl	20006b9c <usbd_edpt_xfer>
20006c96:	e009      	b.n	20006cac <tud_control_xfer+0x78>
20006c98:	227f      	movs	r2, #127	; 0x7f
20006c9a:	782b      	ldrb	r3, [r5, #0]
20006c9c:	0038      	movs	r0, r7
20006c9e:	429a      	cmp	r2, r3
20006ca0:	4164      	adcs	r4, r4
20006ca2:	2300      	movs	r3, #0
20006ca4:	2200      	movs	r2, #0
20006ca6:	01e1      	lsls	r1, r4, #7
20006ca8:	f7ff ff78 	bl	20006b9c <usbd_edpt_xfer>
20006cac:	bcc0      	pop	{r6, r7}
20006cae:	46b9      	mov	r9, r7
20006cb0:	46b0      	mov	r8, r6
20006cb2:	bdf8      	pop	{r3, r4, r5, r6, r7, pc}
20006cb4:	7833      	ldrb	r3, [r6, #0]
20006cb6:	2b7f      	cmp	r3, #127	; 0x7f
20006cb8:	d911      	bls.n	20006cde <tud_control_xfer+0xaa>
20006cba:	2180      	movs	r1, #128	; 0x80
20006cbc:	2200      	movs	r2, #0
20006cbe:	e7e6      	b.n	20006c8e <tud_control_xfer+0x5a>
20006cc0:	2340      	movs	r3, #64	; 0x40
20006cc2:	b29b      	uxth	r3, r3
20006cc4:	4698      	mov	r8, r3
20006cc6:	7833      	ldrb	r3, [r6, #0]
20006cc8:	2b7f      	cmp	r3, #127	; 0x7f
20006cca:	d9de      	bls.n	20006c8a <tud_control_xfer+0x56>
20006ccc:	4c07      	ldr	r4, [pc, #28]	; (20006cec <tud_control_xfer+0xb8>)
20006cce:	4642      	mov	r2, r8
20006cd0:	4649      	mov	r1, r9
20006cd2:	0020      	movs	r0, r4
20006cd4:	f7fe fdf2 	bl	200058bc <__wrap___aeabi_memcpy>
20006cd8:	2180      	movs	r1, #128	; 0x80
20006cda:	0022      	movs	r2, r4
20006cdc:	e7d7      	b.n	20006c8e <tud_control_xfer+0x5a>
20006cde:	2100      	movs	r1, #0
20006ce0:	2200      	movs	r2, #0
20006ce2:	e7d4      	b.n	20006c8e <tud_control_xfer+0x5a>
20006ce4:	2000      	movs	r0, #0
20006ce6:	e7e1      	b.n	20006cac <tud_control_xfer+0x78>
20006ce8:	2000cc44 	.word	0x2000cc44
20006cec:	2000cd30 	.word	0x2000cd30

20006cf0 <usbd_control_reset>:
20006cf0:	b510      	push	{r4, lr}
20006cf2:	2214      	movs	r2, #20
20006cf4:	2100      	movs	r1, #0
20006cf6:	4802      	ldr	r0, [pc, #8]	; (20006d00 <usbd_control_reset+0x10>)
20006cf8:	f7fe fdda 	bl	200058b0 <__wrap_memset>
20006cfc:	bd10      	pop	{r4, pc}
20006cfe:	46c0      	nop			; (mov r8, r8)
20006d00:	2000cc44 	.word	0x2000cc44

20006d04 <usbd_control_set_complete_callback>:
20006d04:	4b01      	ldr	r3, [pc, #4]	; (20006d0c <usbd_control_set_complete_callback+0x8>)
20006d06:	6118      	str	r0, [r3, #16]
20006d08:	4770      	bx	lr
20006d0a:	46c0      	nop			; (mov r8, r8)
20006d0c:	2000cc44 	.word	0x2000cc44

20006d10 <usbd_control_set_request>:
20006d10:	b510      	push	{r4, lr}
20006d12:	4c05      	ldr	r4, [pc, #20]	; (20006d28 <usbd_control_set_request+0x18>)
20006d14:	0001      	movs	r1, r0
20006d16:	2208      	movs	r2, #8
20006d18:	0020      	movs	r0, r4
20006d1a:	f7fe fdcf 	bl	200058bc <__wrap___aeabi_memcpy>
20006d1e:	2300      	movs	r3, #0
20006d20:	60a3      	str	r3, [r4, #8]
20006d22:	60e3      	str	r3, [r4, #12]
20006d24:	bd10      	pop	{r4, pc}
20006d26:	46c0      	nop			; (mov r8, r8)
20006d28:	2000cc44 	.word	0x2000cc44

20006d2c <usbd_control_xfer_cb>:
20006d2c:	b5f8      	push	{r3, r4, r5, r6, r7, lr}
20006d2e:	4c3b      	ldr	r4, [pc, #236]	; (20006e1c <usbd_control_xfer_cb+0xf0>)
20006d30:	001d      	movs	r5, r3
20006d32:	7823      	ldrb	r3, [r4, #0]
20006d34:	0006      	movs	r6, r0
20006d36:	09da      	lsrs	r2, r3, #7
20006d38:	09c9      	lsrs	r1, r1, #7
20006d3a:	428a      	cmp	r2, r1
20006d3c:	d013      	beq.n	20006d66 <usbd_control_xfer_cb+0x3a>
20006d3e:	2000      	movs	r0, #0
20006d40:	2d00      	cmp	r5, #0
20006d42:	d000      	beq.n	20006d46 <usbd_control_xfer_cb+0x1a>
20006d44:	bdf8      	pop	{r3, r4, r5, r6, r7, pc}
20006d46:	4b36      	ldr	r3, [pc, #216]	; (20006e20 <usbd_control_xfer_cb+0xf4>)
20006d48:	2b00      	cmp	r3, #0
20006d4a:	d003      	beq.n	20006d54 <usbd_control_xfer_cb+0x28>
20006d4c:	0021      	movs	r1, r4
20006d4e:	0030      	movs	r0, r6
20006d50:	f7ff f8b4 	bl	20005ebc <dcd_edpt0_status_complete>
20006d54:	6923      	ldr	r3, [r4, #16]
20006d56:	2b00      	cmp	r3, #0
20006d58:	d044      	beq.n	20006de4 <usbd_control_xfer_cb+0xb8>
20006d5a:	0022      	movs	r2, r4
20006d5c:	2103      	movs	r1, #3
20006d5e:	0030      	movs	r0, r6
20006d60:	4798      	blx	r3
20006d62:	2001      	movs	r0, #1
20006d64:	e7ee      	b.n	20006d44 <usbd_control_xfer_cb+0x18>
20006d66:	2b7f      	cmp	r3, #127	; 0x7f
20006d68:	d806      	bhi.n	20006d78 <usbd_control_xfer_cb+0x4c>
20006d6a:	68a0      	ldr	r0, [r4, #8]
20006d6c:	2800      	cmp	r0, #0
20006d6e:	d037      	beq.n	20006de0 <usbd_control_xfer_cb+0xb4>
20006d70:	002a      	movs	r2, r5
20006d72:	492c      	ldr	r1, [pc, #176]	; (20006e24 <usbd_control_xfer_cb+0xf8>)
20006d74:	f7fe fda2 	bl	200058bc <__wrap___aeabi_memcpy>
20006d78:	68a3      	ldr	r3, [r4, #8]
20006d7a:	89e2      	ldrh	r2, [r4, #14]
20006d7c:	1959      	adds	r1, r3, r5
20006d7e:	1952      	adds	r2, r2, r5
20006d80:	88e3      	ldrh	r3, [r4, #6]
20006d82:	b292      	uxth	r2, r2
20006d84:	81e2      	strh	r2, [r4, #14]
20006d86:	60a1      	str	r1, [r4, #8]
20006d88:	4293      	cmp	r3, r2
20006d8a:	d014      	beq.n	20006db6 <usbd_control_xfer_cb+0x8a>
20006d8c:	2d3f      	cmp	r5, #63	; 0x3f
20006d8e:	d912      	bls.n	20006db6 <usbd_control_xfer_cb+0x8a>
20006d90:	89a5      	ldrh	r5, [r4, #12]
20006d92:	1aa8      	subs	r0, r5, r2
20006d94:	1c07      	adds	r7, r0, #0
20006d96:	b280      	uxth	r0, r0
20006d98:	2840      	cmp	r0, #64	; 0x40
20006d9a:	d82f      	bhi.n	20006dfc <usbd_control_xfer_cb+0xd0>
20006d9c:	7823      	ldrb	r3, [r4, #0]
20006d9e:	b2bf      	uxth	r7, r7
20006da0:	2b7f      	cmp	r3, #127	; 0x7f
20006da2:	d82d      	bhi.n	20006e00 <usbd_control_xfer_cb+0xd4>
20006da4:	2100      	movs	r1, #0
20006da6:	42aa      	cmp	r2, r5
20006da8:	d035      	beq.n	20006e16 <usbd_control_xfer_cb+0xea>
20006daa:	4a1e      	ldr	r2, [pc, #120]	; (20006e24 <usbd_control_xfer_cb+0xf8>)
20006dac:	003b      	movs	r3, r7
20006dae:	0030      	movs	r0, r6
20006db0:	f7ff fef4 	bl	20006b9c <usbd_edpt_xfer>
20006db4:	e7c6      	b.n	20006d44 <usbd_control_xfer_cb+0x18>
20006db6:	6923      	ldr	r3, [r4, #16]
20006db8:	2b00      	cmp	r3, #0
20006dba:	d005      	beq.n	20006dc8 <usbd_control_xfer_cb+0x9c>
20006dbc:	0022      	movs	r2, r4
20006dbe:	2102      	movs	r1, #2
20006dc0:	0030      	movs	r0, r6
20006dc2:	4798      	blx	r3
20006dc4:	2800      	cmp	r0, #0
20006dc6:	d00f      	beq.n	20006de8 <usbd_control_xfer_cb+0xbc>
20006dc8:	227f      	movs	r2, #127	; 0x7f
20006dca:	2100      	movs	r1, #0
20006dcc:	7823      	ldrb	r3, [r4, #0]
20006dce:	0030      	movs	r0, r6
20006dd0:	429a      	cmp	r2, r3
20006dd2:	4149      	adcs	r1, r1
20006dd4:	2300      	movs	r3, #0
20006dd6:	2200      	movs	r2, #0
20006dd8:	01c9      	lsls	r1, r1, #7
20006dda:	f7ff fedf 	bl	20006b9c <usbd_edpt_xfer>
20006dde:	e7b1      	b.n	20006d44 <usbd_control_xfer_cb+0x18>
20006de0:	2000      	movs	r0, #0
20006de2:	e7af      	b.n	20006d44 <usbd_control_xfer_cb+0x18>
20006de4:	2001      	movs	r0, #1
20006de6:	e7ad      	b.n	20006d44 <usbd_control_xfer_cb+0x18>
20006de8:	2100      	movs	r1, #0
20006dea:	0030      	movs	r0, r6
20006dec:	f7ff f90e 	bl	2000600c <dcd_edpt_stall>
20006df0:	0030      	movs	r0, r6
20006df2:	2180      	movs	r1, #128	; 0x80
20006df4:	f7ff f90a 	bl	2000600c <dcd_edpt_stall>
20006df8:	2001      	movs	r0, #1
20006dfa:	e7a3      	b.n	20006d44 <usbd_control_xfer_cb+0x18>
20006dfc:	2740      	movs	r7, #64	; 0x40
20006dfe:	e7cd      	b.n	20006d9c <usbd_control_xfer_cb+0x70>
20006e00:	42aa      	cmp	r2, r5
20006e02:	d007      	beq.n	20006e14 <usbd_control_xfer_cb+0xe8>
20006e04:	4c07      	ldr	r4, [pc, #28]	; (20006e24 <usbd_control_xfer_cb+0xf8>)
20006e06:	003a      	movs	r2, r7
20006e08:	0020      	movs	r0, r4
20006e0a:	f7fe fd57 	bl	200058bc <__wrap___aeabi_memcpy>
20006e0e:	2180      	movs	r1, #128	; 0x80
20006e10:	0022      	movs	r2, r4
20006e12:	e7cb      	b.n	20006dac <usbd_control_xfer_cb+0x80>
20006e14:	2180      	movs	r1, #128	; 0x80
20006e16:	2200      	movs	r2, #0
20006e18:	e7c8      	b.n	20006dac <usbd_control_xfer_cb+0x80>
20006e1a:	46c0      	nop			; (mov r8, r8)
20006e1c:	2000cc44 	.word	0x2000cc44
20006e20:	20005ebd 	.word	0x20005ebd
20006e24:	2000cd30 	.word	0x2000cd30

20006e28 <tud_cdc_n_write_flush>:
20006e28:	b5f8      	push	{r3, r4, r5, r6, r7, lr}
20006e2a:	0004      	movs	r4, r0
20006e2c:	f7ff f9c6 	bl	200061bc <tud_mounted>
20006e30:	2800      	cmp	r0, #0
20006e32:	d101      	bne.n	20006e38 <tud_cdc_n_write_flush+0x10>
20006e34:	2000      	movs	r0, #0
20006e36:	bdf8      	pop	{r3, r4, r5, r6, r7, pc}
20006e38:	f7ff f9c8 	bl	200061cc <tud_suspended>
20006e3c:	2800      	cmp	r0, #0
20006e3e:	d1f9      	bne.n	20006e34 <tud_cdc_n_write_flush+0xc>
20006e40:	4815      	ldr	r0, [pc, #84]	; (20006e98 <tud_cdc_n_write_flush+0x70>)
20006e42:	4e16      	ldr	r6, [pc, #88]	; (20006e9c <tud_cdc_n_write_flush+0x74>)
20006e44:	4344      	muls	r4, r0
20006e46:	0025      	movs	r5, r4
20006e48:	3524      	adds	r5, #36	; 0x24
20006e4a:	19ad      	adds	r5, r5, r6
20006e4c:	0028      	movs	r0, r5
20006e4e:	f000 fda1 	bl	20007994 <tu_fifo_count>
20006e52:	2800      	cmp	r0, #0
20006e54:	d0ee      	beq.n	20006e34 <tud_cdc_n_write_flush+0xc>
20006e56:	1937      	adds	r7, r6, r4
20006e58:	2000      	movs	r0, #0
20006e5a:	78b9      	ldrb	r1, [r7, #2]
20006e5c:	f7ff fe76 	bl	20006b4c <usbd_edpt_claim>
20006e60:	2800      	cmp	r0, #0
20006e62:	d0e7      	beq.n	20006e34 <tud_cdc_n_write_flush+0xc>
20006e64:	4b0e      	ldr	r3, [pc, #56]	; (20006ea0 <tud_cdc_n_write_flush+0x78>)
20006e66:	0028      	movs	r0, r5
20006e68:	469c      	mov	ip, r3
20006e6a:	4464      	add	r4, ip
20006e6c:	19a4      	adds	r4, r4, r6
20006e6e:	0021      	movs	r1, r4
20006e70:	2240      	movs	r2, #64	; 0x40
20006e72:	f000 fe13 	bl	20007a9c <tu_fifo_read_n>
20006e76:	78b9      	ldrb	r1, [r7, #2]
20006e78:	1e05      	subs	r5, r0, #0
20006e7a:	d008      	beq.n	20006e8e <tud_cdc_n_write_flush+0x66>
20006e7c:	0003      	movs	r3, r0
20006e7e:	0022      	movs	r2, r4
20006e80:	2000      	movs	r0, #0
20006e82:	f7ff fe8b 	bl	20006b9c <usbd_edpt_xfer>
20006e86:	2800      	cmp	r0, #0
20006e88:	d0d4      	beq.n	20006e34 <tud_cdc_n_write_flush+0xc>
20006e8a:	0028      	movs	r0, r5
20006e8c:	e7d3      	b.n	20006e36 <tud_cdc_n_write_flush+0xe>
20006e8e:	2000      	movs	r0, #0
20006e90:	f7ff fe70 	bl	20006b74 <usbd_edpt_release>
20006e94:	e7ce      	b.n	20006e34 <tud_cdc_n_write_flush+0xc>
20006e96:	46c0      	nop			; (mov r8, r8)
20006e98:	00001148 	.word	0x00001148
20006e9c:	2000bafc 	.word	0x2000bafc
20006ea0:	00001108 	.word	0x00001108

20006ea4 <cdcd_init>:
20006ea4:	b570      	push	{r4, r5, r6, lr}
20006ea6:	4c1a      	ldr	r4, [pc, #104]	; (20006f10 <cdcd_init+0x6c>)
20006ea8:	b082      	sub	sp, #8
20006eaa:	2100      	movs	r1, #0
20006eac:	0020      	movs	r0, r4
20006eae:	4a19      	ldr	r2, [pc, #100]	; (20006f14 <cdcd_init+0x70>)
20006eb0:	f7fe fcfe 	bl	200058b0 <__wrap_memset>
20006eb4:	23ff      	movs	r3, #255	; 0xff
20006eb6:	7163      	strb	r3, [r4, #5]
20006eb8:	4b17      	ldr	r3, [pc, #92]	; (20006f18 <cdcd_init+0x74>)
20006eba:	2500      	movs	r5, #0
20006ebc:	80e3      	strh	r3, [r4, #6]
20006ebe:	2601      	movs	r6, #1
20006ec0:	2308      	movs	r3, #8
20006ec2:	0021      	movs	r1, r4
20006ec4:	0020      	movs	r0, r4
20006ec6:	8126      	strh	r6, [r4, #8]
20006ec8:	7323      	strb	r3, [r4, #12]
20006eca:	2280      	movs	r2, #128	; 0x80
20006ecc:	3138      	adds	r1, #56	; 0x38
20006ece:	9500      	str	r5, [sp, #0]
20006ed0:	3b07      	subs	r3, #7
20006ed2:	3010      	adds	r0, #16
20006ed4:	f000 fd26 	bl	20007924 <tu_fifo_config>
20006ed8:	0021      	movs	r1, r4
20006eda:	0020      	movs	r0, r4
20006edc:	2280      	movs	r2, #128	; 0x80
20006ede:	31b8      	adds	r1, #184	; 0xb8
20006ee0:	0152      	lsls	r2, r2, #5
20006ee2:	9600      	str	r6, [sp, #0]
20006ee4:	2301      	movs	r3, #1
20006ee6:	3024      	adds	r0, #36	; 0x24
20006ee8:	f000 fd1c 	bl	20007924 <tu_fifo_config>
20006eec:	4b0b      	ldr	r3, [pc, #44]	; (20006f1c <cdcd_init+0x78>)
20006eee:	18e6      	adds	r6, r4, r3
20006ef0:	0030      	movs	r0, r6
20006ef2:	f7fc fc2f 	bl	20003754 <mutex_init>
20006ef6:	2386      	movs	r3, #134	; 0x86
20006ef8:	015b      	lsls	r3, r3, #5
20006efa:	6226      	str	r6, [r4, #32]
20006efc:	18e6      	adds	r6, r4, r3
20006efe:	0030      	movs	r0, r6
20006f00:	61e5      	str	r5, [r4, #28]
20006f02:	f7fc fc27 	bl	20003754 <mutex_init>
20006f06:	6326      	str	r6, [r4, #48]	; 0x30
20006f08:	6365      	str	r5, [r4, #52]	; 0x34
20006f0a:	b002      	add	sp, #8
20006f0c:	bd70      	pop	{r4, r5, r6, pc}
20006f0e:	46c0      	nop			; (mov r8, r8)
20006f10:	2000bafc 	.word	0x2000bafc
20006f14:	00001148 	.word	0x00001148
20006f18:	ffffc200 	.word	0xffffc200
20006f1c:	000010b8 	.word	0x000010b8

20006f20 <cdcd_reset>:
20006f20:	b510      	push	{r4, lr}
20006f22:	4c09      	ldr	r4, [pc, #36]	; (20006f48 <cdcd_reset+0x28>)
20006f24:	2205      	movs	r2, #5
20006f26:	2100      	movs	r1, #0
20006f28:	0020      	movs	r0, r4
20006f2a:	f7fe fcc1 	bl	200058b0 <__wrap_memset>
20006f2e:	0020      	movs	r0, r4
20006f30:	3424      	adds	r4, #36	; 0x24
20006f32:	3010      	adds	r0, #16
20006f34:	f000 ff20 	bl	20007d78 <tu_fifo_clear>
20006f38:	0020      	movs	r0, r4
20006f3a:	f000 ff1d 	bl	20007d78 <tu_fifo_clear>
20006f3e:	2101      	movs	r1, #1
20006f40:	0020      	movs	r0, r4
20006f42:	f000 ff39 	bl	20007db8 <tu_fifo_set_overwritable>
20006f46:	bd10      	pop	{r4, pc}
20006f48:	2000bafc 	.word	0x2000bafc

20006f4c <cdcd_open>:
20006f4c:	b5f0      	push	{r4, r5, r6, r7, lr}
20006f4e:	794b      	ldrb	r3, [r1, #5]
20006f50:	0006      	movs	r6, r0
20006f52:	b083      	sub	sp, #12
20006f54:	2b02      	cmp	r3, #2
20006f56:	d102      	bne.n	20006f5e <cdcd_open+0x12>
20006f58:	798b      	ldrb	r3, [r1, #6]
20006f5a:	2b02      	cmp	r3, #2
20006f5c:	d003      	beq.n	20006f66 <cdcd_open+0x1a>
20006f5e:	2500      	movs	r5, #0
20006f60:	0028      	movs	r0, r5
20006f62:	b003      	add	sp, #12
20006f64:	bdf0      	pop	{r4, r5, r6, r7, pc}
20006f66:	4f2f      	ldr	r7, [pc, #188]	; (20007024 <cdcd_open+0xd8>)
20006f68:	78bb      	ldrb	r3, [r7, #2]
20006f6a:	2b00      	cmp	r3, #0
20006f6c:	d1f7      	bne.n	20006f5e <cdcd_open+0x12>
20006f6e:	788b      	ldrb	r3, [r1, #2]
20006f70:	2509      	movs	r5, #9
20006f72:	703b      	strb	r3, [r7, #0]
20006f74:	780c      	ldrb	r4, [r1, #0]
20006f76:	190c      	adds	r4, r1, r4
20006f78:	7863      	ldrb	r3, [r4, #1]
20006f7a:	2b24      	cmp	r3, #36	; 0x24
20006f7c:	d10b      	bne.n	20006f96 <cdcd_open+0x4a>
20006f7e:	2a08      	cmp	r2, #8
20006f80:	d802      	bhi.n	20006f88 <cdcd_open+0x3c>
20006f82:	e00f      	b.n	20006fa4 <cdcd_open+0x58>
20006f84:	42aa      	cmp	r2, r5
20006f86:	d30d      	bcc.n	20006fa4 <cdcd_open+0x58>
20006f88:	7823      	ldrb	r3, [r4, #0]
20006f8a:	18e4      	adds	r4, r4, r3
20006f8c:	18ed      	adds	r5, r5, r3
20006f8e:	7863      	ldrb	r3, [r4, #1]
20006f90:	b2ad      	uxth	r5, r5
20006f92:	2b24      	cmp	r3, #36	; 0x24
20006f94:	d0f6      	beq.n	20006f84 <cdcd_open+0x38>
20006f96:	2b05      	cmp	r3, #5
20006f98:	d01f      	beq.n	20006fda <cdcd_open+0x8e>
20006f9a:	2b04      	cmp	r3, #4
20006f9c:	d102      	bne.n	20006fa4 <cdcd_open+0x58>
20006f9e:	7963      	ldrb	r3, [r4, #5]
20006fa0:	2b0a      	cmp	r3, #10
20006fa2:	d02d      	beq.n	20007000 <cdcd_open+0xb4>
20006fa4:	4c20      	ldr	r4, [pc, #128]	; (20007028 <cdcd_open+0xdc>)
20006fa6:	0020      	movs	r0, r4
20006fa8:	f000 fd12 	bl	200079d0 <tu_fifo_remaining>
20006fac:	283f      	cmp	r0, #63	; 0x3f
20006fae:	d9d7      	bls.n	20006f60 <cdcd_open+0x14>
20006fb0:	0026      	movs	r6, r4
20006fb2:	3e10      	subs	r6, #16
20006fb4:	2000      	movs	r0, #0
20006fb6:	78f1      	ldrb	r1, [r6, #3]
20006fb8:	f7ff fdc8 	bl	20006b4c <usbd_edpt_claim>
20006fbc:	2800      	cmp	r0, #0
20006fbe:	d0cf      	beq.n	20006f60 <cdcd_open+0x14>
20006fc0:	0020      	movs	r0, r4
20006fc2:	f000 fd05 	bl	200079d0 <tu_fifo_remaining>
20006fc6:	283f      	cmp	r0, #63	; 0x3f
20006fc8:	d915      	bls.n	20006ff6 <cdcd_open+0xaa>
20006fca:	4b18      	ldr	r3, [pc, #96]	; (2000702c <cdcd_open+0xe0>)
20006fcc:	78f1      	ldrb	r1, [r6, #3]
20006fce:	18e2      	adds	r2, r4, r3
20006fd0:	2000      	movs	r0, #0
20006fd2:	2340      	movs	r3, #64	; 0x40
20006fd4:	f7ff fde2 	bl	20006b9c <usbd_edpt_xfer>
20006fd8:	e7c2      	b.n	20006f60 <cdcd_open+0x14>
20006fda:	0021      	movs	r1, r4
20006fdc:	0030      	movs	r0, r6
20006fde:	f7ff fd9b 	bl	20006b18 <usbd_edpt_open>
20006fe2:	2800      	cmp	r0, #0
20006fe4:	d0bb      	beq.n	20006f5e <cdcd_open+0x12>
20006fe6:	78a3      	ldrb	r3, [r4, #2]
20006fe8:	707b      	strb	r3, [r7, #1]
20006fea:	7823      	ldrb	r3, [r4, #0]
20006fec:	18ed      	adds	r5, r5, r3
20006fee:	18e4      	adds	r4, r4, r3
20006ff0:	7863      	ldrb	r3, [r4, #1]
20006ff2:	b2ad      	uxth	r5, r5
20006ff4:	e7d1      	b.n	20006f9a <cdcd_open+0x4e>
20006ff6:	78f1      	ldrb	r1, [r6, #3]
20006ff8:	2000      	movs	r0, #0
20006ffa:	f7ff fdbb 	bl	20006b74 <usbd_edpt_release>
20006ffe:	e7af      	b.n	20006f60 <cdcd_open+0x14>
20007000:	4b0b      	ldr	r3, [pc, #44]	; (20007030 <cdcd_open+0xe4>)
20007002:	7827      	ldrb	r7, [r4, #0]
20007004:	9301      	str	r3, [sp, #4]
20007006:	3301      	adds	r3, #1
20007008:	9300      	str	r3, [sp, #0]
2000700a:	2202      	movs	r2, #2
2000700c:	2302      	movs	r3, #2
2000700e:	0030      	movs	r0, r6
20007010:	19e1      	adds	r1, r4, r7
20007012:	f7ff fd33 	bl	20006a7c <usbd_open_edpt_pair>
20007016:	2800      	cmp	r0, #0
20007018:	d0a1      	beq.n	20006f5e <cdcd_open+0x12>
2000701a:	350e      	adds	r5, #14
2000701c:	19ed      	adds	r5, r5, r7
2000701e:	b2ad      	uxth	r5, r5
20007020:	e7c0      	b.n	20006fa4 <cdcd_open+0x58>
20007022:	46c0      	nop			; (mov r8, r8)
20007024:	2000bafc 	.word	0x2000bafc
20007028:	2000bb0c 	.word	0x2000bb0c
2000702c:	000010b8 	.word	0x000010b8
20007030:	2000bafe 	.word	0x2000bafe

20007034 <cdcd_control_xfer_cb>:
20007034:	b5f8      	push	{r3, r4, r5, r6, r7, lr}
20007036:	2360      	movs	r3, #96	; 0x60
20007038:	0014      	movs	r4, r2
2000703a:	7812      	ldrb	r2, [r2, #0]
2000703c:	0005      	movs	r5, r0
2000703e:	4013      	ands	r3, r2
20007040:	2000      	movs	r0, #0
20007042:	2b20      	cmp	r3, #32
20007044:	d112      	bne.n	2000706c <cdcd_control_xfer_cb+0x38>
20007046:	4a2f      	ldr	r2, [pc, #188]	; (20007104 <cdcd_control_xfer_cb+0xd0>)
20007048:	7963      	ldrb	r3, [r4, #5]
2000704a:	7927      	ldrb	r7, [r4, #4]
2000704c:	7816      	ldrb	r6, [r2, #0]
2000704e:	021b      	lsls	r3, r3, #8
20007050:	433b      	orrs	r3, r7
20007052:	429e      	cmp	r6, r3
20007054:	d10a      	bne.n	2000706c <cdcd_control_xfer_cb+0x38>
20007056:	7863      	ldrb	r3, [r4, #1]
20007058:	2b22      	cmp	r3, #34	; 0x22
2000705a:	d027      	beq.n	200070ac <cdcd_control_xfer_cb+0x78>
2000705c:	d807      	bhi.n	2000706e <cdcd_control_xfer_cb+0x3a>
2000705e:	2b20      	cmp	r3, #32
20007060:	d017      	beq.n	20007092 <cdcd_control_xfer_cb+0x5e>
20007062:	2b21      	cmp	r3, #33	; 0x21
20007064:	d102      	bne.n	2000706c <cdcd_control_xfer_cb+0x38>
20007066:	2901      	cmp	r1, #1
20007068:	d03d      	beq.n	200070e6 <cdcd_control_xfer_cb+0xb2>
2000706a:	2001      	movs	r0, #1
2000706c:	bdf8      	pop	{r3, r4, r5, r6, r7, pc}
2000706e:	2b23      	cmp	r3, #35	; 0x23
20007070:	d1fc      	bne.n	2000706c <cdcd_control_xfer_cb+0x38>
20007072:	2901      	cmp	r1, #1
20007074:	d03f      	beq.n	200070f6 <cdcd_control_xfer_cb+0xc2>
20007076:	2903      	cmp	r1, #3
20007078:	d1f7      	bne.n	2000706a <cdcd_control_xfer_cb+0x36>
2000707a:	4b23      	ldr	r3, [pc, #140]	; (20007108 <cdcd_control_xfer_cb+0xd4>)
2000707c:	2b00      	cmp	r3, #0
2000707e:	d0f4      	beq.n	2000706a <cdcd_control_xfer_cb+0x36>
20007080:	78e1      	ldrb	r1, [r4, #3]
20007082:	78a3      	ldrb	r3, [r4, #2]
20007084:	0209      	lsls	r1, r1, #8
20007086:	2000      	movs	r0, #0
20007088:	4319      	orrs	r1, r3
2000708a:	e000      	b.n	2000708e <cdcd_control_xfer_cb+0x5a>
2000708c:	bf00      	nop
2000708e:	2001      	movs	r0, #1
20007090:	e7ec      	b.n	2000706c <cdcd_control_xfer_cb+0x38>
20007092:	2901      	cmp	r1, #1
20007094:	d027      	beq.n	200070e6 <cdcd_control_xfer_cb+0xb2>
20007096:	2903      	cmp	r1, #3
20007098:	d1e7      	bne.n	2000706a <cdcd_control_xfer_cb+0x36>
2000709a:	4b1c      	ldr	r3, [pc, #112]	; (2000710c <cdcd_control_xfer_cb+0xd8>)
2000709c:	2b00      	cmp	r3, #0
2000709e:	d0e4      	beq.n	2000706a <cdcd_control_xfer_cb+0x36>
200070a0:	2000      	movs	r0, #0
200070a2:	1d91      	adds	r1, r2, #6
200070a4:	e000      	b.n	200070a8 <cdcd_control_xfer_cb+0x74>
200070a6:	bf00      	nop
200070a8:	2001      	movs	r0, #1
200070aa:	e7df      	b.n	2000706c <cdcd_control_xfer_cb+0x38>
200070ac:	2901      	cmp	r1, #1
200070ae:	d022      	beq.n	200070f6 <cdcd_control_xfer_cb+0xc2>
200070b0:	2903      	cmp	r1, #3
200070b2:	d1da      	bne.n	2000706a <cdcd_control_xfer_cb+0x36>
200070b4:	2501      	movs	r5, #1
200070b6:	002e      	movs	r6, r5
200070b8:	78a3      	ldrb	r3, [r4, #2]
200070ba:	78e4      	ldrb	r4, [r4, #3]
200070bc:	3902      	subs	r1, #2
200070be:	0224      	lsls	r4, r4, #8
200070c0:	431c      	orrs	r4, r3
200070c2:	7114      	strb	r4, [r2, #4]
200070c4:	4026      	ands	r6, r4
200070c6:	3224      	adds	r2, #36	; 0x24
200070c8:	0010      	movs	r0, r2
200070ca:	4071      	eors	r1, r6
200070cc:	f000 fe74 	bl	20007db8 <tu_fifo_set_overwritable>
200070d0:	4b0f      	ldr	r3, [pc, #60]	; (20007110 <cdcd_control_xfer_cb+0xdc>)
200070d2:	2b00      	cmp	r3, #0
200070d4:	d0c9      	beq.n	2000706a <cdcd_control_xfer_cb+0x36>
200070d6:	0862      	lsrs	r2, r4, #1
200070d8:	2000      	movs	r0, #0
200070da:	0031      	movs	r1, r6
200070dc:	402a      	ands	r2, r5
200070de:	e000      	b.n	200070e2 <cdcd_control_xfer_cb+0xae>
200070e0:	bf00      	nop
200070e2:	2001      	movs	r0, #1
200070e4:	e7c2      	b.n	2000706c <cdcd_control_xfer_cb+0x38>
200070e6:	2307      	movs	r3, #7
200070e8:	0021      	movs	r1, r4
200070ea:	0028      	movs	r0, r5
200070ec:	4a09      	ldr	r2, [pc, #36]	; (20007114 <cdcd_control_xfer_cb+0xe0>)
200070ee:	f7ff fda1 	bl	20006c34 <tud_control_xfer>
200070f2:	2001      	movs	r0, #1
200070f4:	e7ba      	b.n	2000706c <cdcd_control_xfer_cb+0x38>
200070f6:	0021      	movs	r1, r4
200070f8:	0028      	movs	r0, r5
200070fa:	f7ff fd83 	bl	20006c04 <tud_control_status>
200070fe:	2001      	movs	r0, #1
20007100:	e7b4      	b.n	2000706c <cdcd_control_xfer_cb+0x38>
20007102:	46c0      	nop			; (mov r8, r8)
20007104:	2000bafc 	.word	0x2000bafc
	...
20007114:	2000bb02 	.word	0x2000bb02

20007118 <cdcd_xfer_cb>:
20007118:	b5f8      	push	{r3, r4, r5, r6, r7, lr}
2000711a:	4657      	mov	r7, sl
2000711c:	464e      	mov	r6, r9
2000711e:	4645      	mov	r5, r8
20007120:	46de      	mov	lr, fp
20007122:	b5e0      	push	{r5, r6, r7, lr}
20007124:	4f48      	ldr	r7, [pc, #288]	; (20007248 <cdcd_xfer_cb+0x130>)
20007126:	4680      	mov	r8, r0
20007128:	78fa      	ldrb	r2, [r7, #3]
2000712a:	000c      	movs	r4, r1
2000712c:	001e      	movs	r6, r3
2000712e:	428a      	cmp	r2, r1
20007130:	d163      	bne.n	200071fa <cdcd_xfer_cb+0xe2>
20007132:	b29a      	uxth	r2, r3
20007134:	4b45      	ldr	r3, [pc, #276]	; (2000724c <cdcd_xfer_cb+0x134>)
20007136:	18fd      	adds	r5, r7, r3
20007138:	2310      	movs	r3, #16
2000713a:	469b      	mov	fp, r3
2000713c:	44bb      	add	fp, r7
2000713e:	0029      	movs	r1, r5
20007140:	4658      	mov	r0, fp
20007142:	f000 fd65 	bl	20007c10 <tu_fifo_write_n>
20007146:	4b42      	ldr	r3, [pc, #264]	; (20007250 <cdcd_xfer_cb+0x138>)
20007148:	46d9      	mov	r9, fp
2000714a:	2b00      	cmp	r3, #0
2000714c:	d018      	beq.n	20007180 <cdcd_xfer_cb+0x68>
2000714e:	797b      	ldrb	r3, [r7, #5]
20007150:	46d9      	mov	r9, fp
20007152:	2bff      	cmp	r3, #255	; 0xff
20007154:	d014      	beq.n	20007180 <cdcd_xfer_cb+0x68>
20007156:	2e00      	cmp	r6, #0
20007158:	d012      	beq.n	20007180 <cdcd_xfer_cb+0x68>
2000715a:	19aa      	adds	r2, r5, r6
2000715c:	4692      	mov	sl, r2
2000715e:	e003      	b.n	20007168 <cdcd_xfer_cb+0x50>
20007160:	3501      	adds	r5, #1
20007162:	4555      	cmp	r5, sl
20007164:	d00c      	beq.n	20007180 <cdcd_xfer_cb+0x68>
20007166:	797b      	ldrb	r3, [r7, #5]
20007168:	782a      	ldrb	r2, [r5, #0]
2000716a:	429a      	cmp	r2, r3
2000716c:	d1f8      	bne.n	20007160 <cdcd_xfer_cb+0x48>
2000716e:	4648      	mov	r0, r9
20007170:	f000 fc26 	bl	200079c0 <tu_fifo_empty>
20007174:	2800      	cmp	r0, #0
20007176:	d1f3      	bne.n	20007160 <cdcd_xfer_cb+0x48>
20007178:	7979      	ldrb	r1, [r7, #5]
2000717a:	e000      	b.n	2000717e <cdcd_xfer_cb+0x66>
2000717c:	bf00      	nop
2000717e:	e7ef      	b.n	20007160 <cdcd_xfer_cb+0x48>
20007180:	4b34      	ldr	r3, [pc, #208]	; (20007254 <cdcd_xfer_cb+0x13c>)
20007182:	2b00      	cmp	r3, #0
20007184:	d004      	beq.n	20007190 <cdcd_xfer_cb+0x78>
20007186:	4648      	mov	r0, r9
20007188:	f000 fc1a 	bl	200079c0 <tu_fifo_empty>
2000718c:	2800      	cmp	r0, #0
2000718e:	d051      	beq.n	20007234 <cdcd_xfer_cb+0x11c>
20007190:	4648      	mov	r0, r9
20007192:	f000 fc1d 	bl	200079d0 <tu_fifo_remaining>
20007196:	283f      	cmp	r0, #63	; 0x3f
20007198:	d834      	bhi.n	20007204 <cdcd_xfer_cb+0xec>
2000719a:	464a      	mov	r2, r9
2000719c:	3a10      	subs	r2, #16
2000719e:	7893      	ldrb	r3, [r2, #2]
200071a0:	42a3      	cmp	r3, r4
200071a2:	d007      	beq.n	200071b4 <cdcd_xfer_cb+0x9c>
200071a4:	2401      	movs	r4, #1
200071a6:	0020      	movs	r0, r4
200071a8:	bcf0      	pop	{r4, r5, r6, r7}
200071aa:	46bb      	mov	fp, r7
200071ac:	46b2      	mov	sl, r6
200071ae:	46a9      	mov	r9, r5
200071b0:	46a0      	mov	r8, r4
200071b2:	bdf8      	pop	{r3, r4, r5, r6, r7, pc}
200071b4:	4b28      	ldr	r3, [pc, #160]	; (20007258 <cdcd_xfer_cb+0x140>)
200071b6:	2b00      	cmp	r3, #0
200071b8:	d002      	beq.n	200071c0 <cdcd_xfer_cb+0xa8>
200071ba:	2000      	movs	r0, #0
200071bc:	e000      	b.n	200071c0 <cdcd_xfer_cb+0xa8>
200071be:	bf00      	nop
200071c0:	2000      	movs	r0, #0
200071c2:	f7ff fe31 	bl	20006e28 <tud_cdc_n_write_flush>
200071c6:	2800      	cmp	r0, #0
200071c8:	d1ec      	bne.n	200071a4 <cdcd_xfer_cb+0x8c>
200071ca:	4d24      	ldr	r5, [pc, #144]	; (2000725c <cdcd_xfer_cb+0x144>)
200071cc:	0028      	movs	r0, r5
200071ce:	f000 fbe1 	bl	20007994 <tu_fifo_count>
200071d2:	2800      	cmp	r0, #0
200071d4:	d1e6      	bne.n	200071a4 <cdcd_xfer_cb+0x8c>
200071d6:	2e00      	cmp	r6, #0
200071d8:	d0e4      	beq.n	200071a4 <cdcd_xfer_cb+0x8c>
200071da:	06b3      	lsls	r3, r6, #26
200071dc:	d1e2      	bne.n	200071a4 <cdcd_xfer_cb+0x8c>
200071de:	3d24      	subs	r5, #36	; 0x24
200071e0:	4640      	mov	r0, r8
200071e2:	78a9      	ldrb	r1, [r5, #2]
200071e4:	f7ff fcb2 	bl	20006b4c <usbd_edpt_claim>
200071e8:	1e04      	subs	r4, r0, #0
200071ea:	d0db      	beq.n	200071a4 <cdcd_xfer_cb+0x8c>
200071ec:	2300      	movs	r3, #0
200071ee:	2200      	movs	r2, #0
200071f0:	4640      	mov	r0, r8
200071f2:	78a9      	ldrb	r1, [r5, #2]
200071f4:	f7ff fcd2 	bl	20006b9c <usbd_edpt_xfer>
200071f8:	e7d5      	b.n	200071a6 <cdcd_xfer_cb+0x8e>
200071fa:	78bb      	ldrb	r3, [r7, #2]
200071fc:	428b      	cmp	r3, r1
200071fe:	d0d9      	beq.n	200071b4 <cdcd_xfer_cb+0x9c>
20007200:	2400      	movs	r4, #0
20007202:	e7d0      	b.n	200071a6 <cdcd_xfer_cb+0x8e>
20007204:	464d      	mov	r5, r9
20007206:	3d10      	subs	r5, #16
20007208:	2000      	movs	r0, #0
2000720a:	78e9      	ldrb	r1, [r5, #3]
2000720c:	f7ff fc9e 	bl	20006b4c <usbd_edpt_claim>
20007210:	2800      	cmp	r0, #0
20007212:	d101      	bne.n	20007218 <cdcd_xfer_cb+0x100>
20007214:	78ab      	ldrb	r3, [r5, #2]
20007216:	e7c3      	b.n	200071a0 <cdcd_xfer_cb+0x88>
20007218:	4648      	mov	r0, r9
2000721a:	f000 fbd9 	bl	200079d0 <tu_fifo_remaining>
2000721e:	283f      	cmp	r0, #63	; 0x3f
20007220:	d90b      	bls.n	2000723a <cdcd_xfer_cb+0x122>
20007222:	4a0f      	ldr	r2, [pc, #60]	; (20007260 <cdcd_xfer_cb+0x148>)
20007224:	2340      	movs	r3, #64	; 0x40
20007226:	2000      	movs	r0, #0
20007228:	78e9      	ldrb	r1, [r5, #3]
2000722a:	444a      	add	r2, r9
2000722c:	f7ff fcb6 	bl	20006b9c <usbd_edpt_xfer>
20007230:	78ab      	ldrb	r3, [r5, #2]
20007232:	e7b5      	b.n	200071a0 <cdcd_xfer_cb+0x88>
20007234:	e000      	b.n	20007238 <cdcd_xfer_cb+0x120>
20007236:	bf00      	nop
20007238:	e7aa      	b.n	20007190 <cdcd_xfer_cb+0x78>
2000723a:	2000      	movs	r0, #0
2000723c:	78e9      	ldrb	r1, [r5, #3]
2000723e:	f7ff fc99 	bl	20006b74 <usbd_edpt_release>
20007242:	78ab      	ldrb	r3, [r5, #2]
20007244:	e7ac      	b.n	200071a0 <cdcd_xfer_cb+0x88>
20007246:	46c0      	nop			; (mov r8, r8)
20007248:	2000bafc 	.word	0x2000bafc
2000724c:	000010c8 	.word	0x000010c8
	...
2000725c:	2000bb20 	.word	0x2000bb20
20007260:	000010b8 	.word	0x000010b8

20007264 <tud_hid_n_report>:
20007264:	b5f8      	push	{r3, r4, r5, r6, r7, lr}
20007266:	248c      	movs	r4, #140	; 0x8c
20007268:	4647      	mov	r7, r8
2000726a:	46ce      	mov	lr, r9
2000726c:	4344      	muls	r4, r0
2000726e:	4e20      	ldr	r6, [pc, #128]	; (200072f0 <tud_hid_n_report+0x8c>)
20007270:	b580      	push	{r7, lr}
20007272:	1934      	adds	r4, r6, r4
20007274:	0005      	movs	r5, r0
20007276:	4689      	mov	r9, r1
20007278:	2000      	movs	r0, #0
2000727a:	7861      	ldrb	r1, [r4, #1]
2000727c:	4690      	mov	r8, r2
2000727e:	001f      	movs	r7, r3
20007280:	f7ff fc64 	bl	20006b4c <usbd_edpt_claim>
20007284:	2800      	cmp	r0, #0
20007286:	d01d      	beq.n	200072c4 <tud_hid_n_report+0x60>
20007288:	464b      	mov	r3, r9
2000728a:	2b00      	cmp	r3, #0
2000728c:	d01e      	beq.n	200072cc <tud_hid_n_report+0x68>
2000728e:	1c3b      	adds	r3, r7, #0
20007290:	2f3f      	cmp	r7, #63	; 0x3f
20007292:	d829      	bhi.n	200072e8 <tud_hid_n_report+0x84>
20007294:	248c      	movs	r4, #140	; 0x8c
20007296:	464a      	mov	r2, r9
20007298:	436c      	muls	r4, r5
2000729a:	b29f      	uxth	r7, r3
2000729c:	1933      	adds	r3, r6, r4
2000729e:	3408      	adds	r4, #8
200072a0:	1934      	adds	r4, r6, r4
200072a2:	721a      	strb	r2, [r3, #8]
200072a4:	4641      	mov	r1, r8
200072a6:	003a      	movs	r2, r7
200072a8:	1c60      	adds	r0, r4, #1
200072aa:	f7fe fb07 	bl	200058bc <__wrap___aeabi_memcpy>
200072ae:	3701      	adds	r7, #1
200072b0:	b2bf      	uxth	r7, r7
200072b2:	208c      	movs	r0, #140	; 0x8c
200072b4:	4345      	muls	r5, r0
200072b6:	1976      	adds	r6, r6, r5
200072b8:	003b      	movs	r3, r7
200072ba:	0022      	movs	r2, r4
200072bc:	2000      	movs	r0, #0
200072be:	7871      	ldrb	r1, [r6, #1]
200072c0:	f7ff fc6c 	bl	20006b9c <usbd_edpt_xfer>
200072c4:	bcc0      	pop	{r6, r7}
200072c6:	46b9      	mov	r9, r7
200072c8:	46b0      	mov	r8, r6
200072ca:	bdf8      	pop	{r3, r4, r5, r6, r7, pc}
200072cc:	1c3b      	adds	r3, r7, #0
200072ce:	2f40      	cmp	r7, #64	; 0x40
200072d0:	d80c      	bhi.n	200072ec <tud_hid_n_report+0x88>
200072d2:	248c      	movs	r4, #140	; 0x8c
200072d4:	436c      	muls	r4, r5
200072d6:	3408      	adds	r4, #8
200072d8:	b29f      	uxth	r7, r3
200072da:	1934      	adds	r4, r6, r4
200072dc:	003a      	movs	r2, r7
200072de:	4641      	mov	r1, r8
200072e0:	0020      	movs	r0, r4
200072e2:	f7fe faeb 	bl	200058bc <__wrap___aeabi_memcpy>
200072e6:	e7e4      	b.n	200072b2 <tud_hid_n_report+0x4e>
200072e8:	233f      	movs	r3, #63	; 0x3f
200072ea:	e7d3      	b.n	20007294 <tud_hid_n_report+0x30>
200072ec:	2340      	movs	r3, #64	; 0x40
200072ee:	e7f0      	b.n	200072d2 <tud_hid_n_report+0x6e>
200072f0:	2000cc98 	.word	0x2000cc98

200072f4 <hidd_init>:
200072f4:	b510      	push	{r4, lr}
200072f6:	228c      	movs	r2, #140	; 0x8c
200072f8:	2100      	movs	r1, #0
200072fa:	4802      	ldr	r0, [pc, #8]	; (20007304 <hidd_init+0x10>)
200072fc:	f7fe fad8 	bl	200058b0 <__wrap_memset>
20007300:	bd10      	pop	{r4, pc}
20007302:	46c0      	nop			; (mov r8, r8)
20007304:	2000cc98 	.word	0x2000cc98

20007308 <hidd_reset>:
20007308:	b510      	push	{r4, lr}
2000730a:	228c      	movs	r2, #140	; 0x8c
2000730c:	2100      	movs	r1, #0
2000730e:	4802      	ldr	r0, [pc, #8]	; (20007318 <hidd_reset+0x10>)
20007310:	f7fe face 	bl	200058b0 <__wrap_memset>
20007314:	bd10      	pop	{r4, pc}
20007316:	46c0      	nop			; (mov r8, r8)
20007318:	2000cc98 	.word	0x2000cc98

2000731c <hidd_open>:
2000731c:	b5f0      	push	{r4, r5, r6, r7, lr}
2000731e:	794b      	ldrb	r3, [r1, #5]
20007320:	0006      	movs	r6, r0
20007322:	000d      	movs	r5, r1
20007324:	b083      	sub	sp, #12
20007326:	2b03      	cmp	r3, #3
20007328:	d10a      	bne.n	20007340 <hidd_open+0x24>
2000732a:	7908      	ldrb	r0, [r1, #4]
2000732c:	00c4      	lsls	r4, r0, #3
2000732e:	1a24      	subs	r4, r4, r0
20007330:	3412      	adds	r4, #18
20007332:	b2a4      	uxth	r4, r4
20007334:	4294      	cmp	r4, r2
20007336:	d803      	bhi.n	20007340 <hidd_open+0x24>
20007338:	4f1b      	ldr	r7, [pc, #108]	; (200073a8 <hidd_open+0x8c>)
2000733a:	787b      	ldrb	r3, [r7, #1]
2000733c:	2b00      	cmp	r3, #0
2000733e:	d003      	beq.n	20007348 <hidd_open+0x2c>
20007340:	2400      	movs	r4, #0
20007342:	0020      	movs	r0, r4
20007344:	b003      	add	sp, #12
20007346:	bdf0      	pop	{r4, r5, r6, r7, pc}
20007348:	7809      	ldrb	r1, [r1, #0]
2000734a:	1869      	adds	r1, r5, r1
2000734c:	784b      	ldrb	r3, [r1, #1]
2000734e:	2b21      	cmp	r3, #33	; 0x21
20007350:	d1f6      	bne.n	20007340 <hidd_open+0x24>
20007352:	2388      	movs	r3, #136	; 0x88
20007354:	50f9      	str	r1, [r7, r3]
20007356:	780b      	ldrb	r3, [r1, #0]
20007358:	0002      	movs	r2, r0
2000735a:	18c9      	adds	r1, r1, r3
2000735c:	1c7b      	adds	r3, r7, #1
2000735e:	9301      	str	r3, [sp, #4]
20007360:	1cbb      	adds	r3, r7, #2
20007362:	9300      	str	r3, [sp, #0]
20007364:	0030      	movs	r0, r6
20007366:	2303      	movs	r3, #3
20007368:	f7ff fb88 	bl	20006a7c <usbd_open_edpt_pair>
2000736c:	2800      	cmp	r0, #0
2000736e:	d0e7      	beq.n	20007340 <hidd_open+0x24>
20007370:	79ab      	ldrb	r3, [r5, #6]
20007372:	2b01      	cmp	r3, #1
20007374:	d014      	beq.n	200073a0 <hidd_open+0x84>
20007376:	2301      	movs	r3, #1
20007378:	713b      	strb	r3, [r7, #4]
2000737a:	78ab      	ldrb	r3, [r5, #2]
2000737c:	703b      	strb	r3, [r7, #0]
2000737e:	2388      	movs	r3, #136	; 0x88
20007380:	58fa      	ldr	r2, [r7, r3]
20007382:	7a13      	ldrb	r3, [r2, #8]
20007384:	79d1      	ldrb	r1, [r2, #7]
20007386:	021b      	lsls	r3, r3, #8
20007388:	430b      	orrs	r3, r1
2000738a:	78b9      	ldrb	r1, [r7, #2]
2000738c:	80fb      	strh	r3, [r7, #6]
2000738e:	2900      	cmp	r1, #0
20007390:	d0d7      	beq.n	20007342 <hidd_open+0x26>
20007392:	003a      	movs	r2, r7
20007394:	2340      	movs	r3, #64	; 0x40
20007396:	0030      	movs	r0, r6
20007398:	3248      	adds	r2, #72	; 0x48
2000739a:	f7ff fbff 	bl	20006b9c <usbd_edpt_xfer>
2000739e:	e7d0      	b.n	20007342 <hidd_open+0x26>
200073a0:	79eb      	ldrb	r3, [r5, #7]
200073a2:	70fb      	strb	r3, [r7, #3]
200073a4:	e7e7      	b.n	20007376 <hidd_open+0x5a>
200073a6:	46c0      	nop			; (mov r8, r8)
200073a8:	2000cc98 	.word	0x2000cc98

200073ac <hidd_control_xfer_cb>:
200073ac:	231f      	movs	r3, #31
200073ae:	b5f0      	push	{r4, r5, r6, r7, lr}
200073b0:	0014      	movs	r4, r2
200073b2:	7812      	ldrb	r2, [r2, #0]
200073b4:	0005      	movs	r5, r0
200073b6:	b083      	sub	sp, #12
200073b8:	4013      	ands	r3, r2
200073ba:	2b01      	cmp	r3, #1
200073bc:	d117      	bne.n	200073ee <hidd_control_xfer_cb+0x42>
200073be:	4e61      	ldr	r6, [pc, #388]	; (20007544 <hidd_control_xfer_cb+0x198>)
200073c0:	7920      	ldrb	r0, [r4, #4]
200073c2:	7833      	ldrb	r3, [r6, #0]
200073c4:	4298      	cmp	r0, r3
200073c6:	d112      	bne.n	200073ee <hidd_control_xfer_cb+0x42>
200073c8:	2360      	movs	r3, #96	; 0x60
200073ca:	0018      	movs	r0, r3
200073cc:	4010      	ands	r0, r2
200073ce:	4213      	tst	r3, r2
200073d0:	d008      	beq.n	200073e4 <hidd_control_xfer_cb+0x38>
200073d2:	2820      	cmp	r0, #32
200073d4:	d10b      	bne.n	200073ee <hidd_control_xfer_cb+0x42>
200073d6:	7863      	ldrb	r3, [r4, #1]
200073d8:	2b0b      	cmp	r3, #11
200073da:	d808      	bhi.n	200073ee <hidd_control_xfer_cb+0x42>
200073dc:	4a5a      	ldr	r2, [pc, #360]	; (20007548 <hidd_control_xfer_cb+0x19c>)
200073de:	009b      	lsls	r3, r3, #2
200073e0:	58d3      	ldr	r3, [r2, r3]
200073e2:	469f      	mov	pc, r3
200073e4:	2901      	cmp	r1, #1
200073e6:	d10d      	bne.n	20007404 <hidd_control_xfer_cb+0x58>
200073e8:	7863      	ldrb	r3, [r4, #1]
200073ea:	2b06      	cmp	r3, #6
200073ec:	d00c      	beq.n	20007408 <hidd_control_xfer_cb+0x5c>
200073ee:	2000      	movs	r0, #0
200073f0:	b003      	add	sp, #12
200073f2:	bdf0      	pop	{r4, r5, r6, r7, pc}
200073f4:	2901      	cmp	r1, #1
200073f6:	d105      	bne.n	20007404 <hidd_control_xfer_cb+0x58>
200073f8:	2301      	movs	r3, #1
200073fa:	0021      	movs	r1, r4
200073fc:	0028      	movs	r0, r5
200073fe:	4a53      	ldr	r2, [pc, #332]	; (2000754c <hidd_control_xfer_cb+0x1a0>)
20007400:	f7ff fc18 	bl	20006c34 <tud_control_xfer>
20007404:	2001      	movs	r0, #1
20007406:	e7f3      	b.n	200073f0 <hidd_control_xfer_cb+0x44>
20007408:	78e3      	ldrb	r3, [r4, #3]
2000740a:	2b21      	cmp	r3, #33	; 0x21
2000740c:	d07e      	beq.n	2000750c <hidd_control_xfer_cb+0x160>
2000740e:	2b22      	cmp	r3, #34	; 0x22
20007410:	d1ed      	bne.n	200073ee <hidd_control_xfer_cb+0x42>
20007412:	2000      	movs	r0, #0
20007414:	f7fb fab4 	bl	20002980 <tud_hid_descriptor_report_cb>
20007418:	0021      	movs	r1, r4
2000741a:	0002      	movs	r2, r0
2000741c:	88f3      	ldrh	r3, [r6, #6]
2000741e:	0028      	movs	r0, r5
20007420:	f7ff fc08 	bl	20006c34 <tud_control_xfer>
20007424:	2001      	movs	r0, #1
20007426:	e7e3      	b.n	200073f0 <hidd_control_xfer_cb+0x44>
20007428:	2901      	cmp	r1, #1
2000742a:	d017      	beq.n	2000745c <hidd_control_xfer_cb+0xb0>
2000742c:	2903      	cmp	r1, #3
2000742e:	d1e9      	bne.n	20007404 <hidd_control_xfer_cb+0x58>
20007430:	78a1      	ldrb	r1, [r4, #2]
20007432:	4b47      	ldr	r3, [pc, #284]	; (20007550 <hidd_control_xfer_cb+0x1a4>)
20007434:	7131      	strb	r1, [r6, #4]
20007436:	2b00      	cmp	r3, #0
20007438:	d0e4      	beq.n	20007404 <hidd_control_xfer_cb+0x58>
2000743a:	2000      	movs	r0, #0
2000743c:	e000      	b.n	20007440 <hidd_control_xfer_cb+0x94>
2000743e:	bf00      	nop
20007440:	2001      	movs	r0, #1
20007442:	e7d5      	b.n	200073f0 <hidd_control_xfer_cb+0x44>
20007444:	2901      	cmp	r1, #1
20007446:	d1dd      	bne.n	20007404 <hidd_control_xfer_cb+0x58>
20007448:	78e1      	ldrb	r1, [r4, #3]
2000744a:	4b42      	ldr	r3, [pc, #264]	; (20007554 <hidd_control_xfer_cb+0x1a8>)
2000744c:	7171      	strb	r1, [r6, #5]
2000744e:	2b00      	cmp	r3, #0
20007450:	d004      	beq.n	2000745c <hidd_control_xfer_cb+0xb0>
20007452:	2000      	movs	r0, #0
20007454:	e000      	b.n	20007458 <hidd_control_xfer_cb+0xac>
20007456:	bf00      	nop
20007458:	2800      	cmp	r0, #0
2000745a:	d0c8      	beq.n	200073ee <hidd_control_xfer_cb+0x42>
2000745c:	0021      	movs	r1, r4
2000745e:	0028      	movs	r0, r5
20007460:	f7ff fbd0 	bl	20006c04 <tud_control_status>
20007464:	2001      	movs	r0, #1
20007466:	e7c3      	b.n	200073f0 <hidd_control_xfer_cb+0x44>
20007468:	2901      	cmp	r1, #1
2000746a:	d05a      	beq.n	20007522 <hidd_control_xfer_cb+0x176>
2000746c:	2903      	cmp	r1, #3
2000746e:	d1c9      	bne.n	20007404 <hidd_control_xfer_cb+0x58>
20007470:	79e0      	ldrb	r0, [r4, #7]
20007472:	79a3      	ldrb	r3, [r4, #6]
20007474:	0200      	lsls	r0, r0, #8
20007476:	4318      	orrs	r0, r3
20007478:	78e2      	ldrb	r2, [r4, #3]
2000747a:	78a1      	ldrb	r1, [r4, #2]
2000747c:	1c04      	adds	r4, r0, #0
2000747e:	2840      	cmp	r0, #64	; 0x40
20007480:	d900      	bls.n	20007484 <hidd_control_xfer_cb+0xd8>
20007482:	2440      	movs	r4, #64	; 0x40
20007484:	4b34      	ldr	r3, [pc, #208]	; (20007558 <hidd_control_xfer_cb+0x1ac>)
20007486:	b2a4      	uxth	r4, r4
20007488:	2900      	cmp	r1, #0
2000748a:	d008      	beq.n	2000749e <hidd_control_xfer_cb+0xf2>
2000748c:	2801      	cmp	r0, #1
2000748e:	d906      	bls.n	2000749e <hidd_control_xfer_cb+0xf2>
20007490:	2048      	movs	r0, #72	; 0x48
20007492:	5c30      	ldrb	r0, [r6, r0]
20007494:	4288      	cmp	r0, r1
20007496:	d102      	bne.n	2000749e <hidd_control_xfer_cb+0xf2>
20007498:	3c01      	subs	r4, #1
2000749a:	4b30      	ldr	r3, [pc, #192]	; (2000755c <hidd_control_xfer_cb+0x1b0>)
2000749c:	b2a4      	uxth	r4, r4
2000749e:	2000      	movs	r0, #0
200074a0:	9400      	str	r4, [sp, #0]
200074a2:	f7fb fa19 	bl	200028d8 <tud_hid_set_report_cb>
200074a6:	2001      	movs	r0, #1
200074a8:	e7a2      	b.n	200073f0 <hidd_control_xfer_cb+0x44>
200074aa:	2901      	cmp	r1, #1
200074ac:	d1aa      	bne.n	20007404 <hidd_control_xfer_cb+0x58>
200074ae:	2301      	movs	r3, #1
200074b0:	0021      	movs	r1, r4
200074b2:	0028      	movs	r0, r5
200074b4:	4a2a      	ldr	r2, [pc, #168]	; (20007560 <hidd_control_xfer_cb+0x1b4>)
200074b6:	f7ff fbbd 	bl	20006c34 <tud_control_xfer>
200074ba:	2001      	movs	r0, #1
200074bc:	e798      	b.n	200073f0 <hidd_control_xfer_cb+0x44>
200074be:	2901      	cmp	r1, #1
200074c0:	d1a0      	bne.n	20007404 <hidd_control_xfer_cb+0x58>
200074c2:	79e3      	ldrb	r3, [r4, #7]
200074c4:	79a0      	ldrb	r0, [r4, #6]
200074c6:	021b      	lsls	r3, r3, #8
200074c8:	4303      	orrs	r3, r0
200074ca:	78e2      	ldrb	r2, [r4, #3]
200074cc:	78a1      	ldrb	r1, [r4, #2]
200074ce:	1c18      	adds	r0, r3, #0
200074d0:	2b40      	cmp	r3, #64	; 0x40
200074d2:	d900      	bls.n	200074d6 <hidd_control_xfer_cb+0x12a>
200074d4:	2040      	movs	r0, #64	; 0x40
200074d6:	b280      	uxth	r0, r0
200074d8:	2900      	cmp	r1, #0
200074da:	d030      	beq.n	2000753e <hidd_control_xfer_cb+0x192>
200074dc:	2b01      	cmp	r3, #1
200074de:	d92e      	bls.n	2000753e <hidd_control_xfer_cb+0x192>
200074e0:	0033      	movs	r3, r6
200074e2:	2701      	movs	r7, #1
200074e4:	3801      	subs	r0, #1
200074e6:	7231      	strb	r1, [r6, #8]
200074e8:	b280      	uxth	r0, r0
200074ea:	3309      	adds	r3, #9
200074ec:	9000      	str	r0, [sp, #0]
200074ee:	2000      	movs	r0, #0
200074f0:	f7fb f9f0 	bl	200028d4 <tud_hid_get_report_cb>
200074f4:	183f      	adds	r7, r7, r0
200074f6:	b2bb      	uxth	r3, r7
200074f8:	2b00      	cmp	r3, #0
200074fa:	d100      	bne.n	200074fe <hidd_control_xfer_cb+0x152>
200074fc:	e777      	b.n	200073ee <hidd_control_xfer_cb+0x42>
200074fe:	0021      	movs	r1, r4
20007500:	0028      	movs	r0, r5
20007502:	4a18      	ldr	r2, [pc, #96]	; (20007564 <hidd_control_xfer_cb+0x1b8>)
20007504:	f7ff fb96 	bl	20006c34 <tud_control_xfer>
20007508:	2001      	movs	r0, #1
2000750a:	e771      	b.n	200073f0 <hidd_control_xfer_cb+0x44>
2000750c:	3367      	adds	r3, #103	; 0x67
2000750e:	58f2      	ldr	r2, [r6, r3]
20007510:	2a00      	cmp	r2, #0
20007512:	d100      	bne.n	20007516 <hidd_control_xfer_cb+0x16a>
20007514:	e76b      	b.n	200073ee <hidd_control_xfer_cb+0x42>
20007516:	0021      	movs	r1, r4
20007518:	0028      	movs	r0, r5
2000751a:	7813      	ldrb	r3, [r2, #0]
2000751c:	f7ff fb8a 	bl	20006c34 <tud_control_xfer>
20007520:	e766      	b.n	200073f0 <hidd_control_xfer_cb+0x44>
20007522:	79e3      	ldrb	r3, [r4, #7]
20007524:	79a2      	ldrb	r2, [r4, #6]
20007526:	021b      	lsls	r3, r3, #8
20007528:	4313      	orrs	r3, r2
2000752a:	2b40      	cmp	r3, #64	; 0x40
2000752c:	d900      	bls.n	20007530 <hidd_control_xfer_cb+0x184>
2000752e:	e75e      	b.n	200073ee <hidd_control_xfer_cb+0x42>
20007530:	0021      	movs	r1, r4
20007532:	0028      	movs	r0, r5
20007534:	4a08      	ldr	r2, [pc, #32]	; (20007558 <hidd_control_xfer_cb+0x1ac>)
20007536:	f7ff fb7d 	bl	20006c34 <tud_control_xfer>
2000753a:	2001      	movs	r0, #1
2000753c:	e758      	b.n	200073f0 <hidd_control_xfer_cb+0x44>
2000753e:	2700      	movs	r7, #0
20007540:	4b08      	ldr	r3, [pc, #32]	; (20007564 <hidd_control_xfer_cb+0x1b8>)
20007542:	e7d3      	b.n	200074ec <hidd_control_xfer_cb+0x140>
20007544:	2000cc98 	.word	0x2000cc98
20007548:	2000b37c 	.word	0x2000b37c
2000754c:	2000cc9c 	.word	0x2000cc9c
	...
20007558:	2000cce0 	.word	0x2000cce0
2000755c:	2000cce1 	.word	0x2000cce1
20007560:	2000cc9d 	.word	0x2000cc9d
20007564:	2000cca0 	.word	0x2000cca0

20007568 <hidd_xfer_cb>:
20007568:	b570      	push	{r4, r5, r6, lr}
2000756a:	4c16      	ldr	r4, [pc, #88]	; (200075c4 <hidd_xfer_cb+0x5c>)
2000756c:	0005      	movs	r5, r0
2000756e:	78a2      	ldrb	r2, [r4, #2]
20007570:	b082      	sub	sp, #8
20007572:	428a      	cmp	r2, r1
20007574:	d10e      	bne.n	20007594 <hidd_xfer_cb+0x2c>
20007576:	7861      	ldrb	r1, [r4, #1]
20007578:	4291      	cmp	r1, r2
2000757a:	d110      	bne.n	2000759e <hidd_xfer_cb+0x36>
2000757c:	4a12      	ldr	r2, [pc, #72]	; (200075c8 <hidd_xfer_cb+0x60>)
2000757e:	2401      	movs	r4, #1
20007580:	2a00      	cmp	r2, #0
20007582:	d004      	beq.n	2000758e <hidd_xfer_cb+0x26>
20007584:	2000      	movs	r0, #0
20007586:	4911      	ldr	r1, [pc, #68]	; (200075cc <hidd_xfer_cb+0x64>)
20007588:	b29a      	uxth	r2, r3
2000758a:	e000      	b.n	2000758e <hidd_xfer_cb+0x26>
2000758c:	bf00      	nop
2000758e:	0020      	movs	r0, r4
20007590:	b002      	add	sp, #8
20007592:	bd70      	pop	{r4, r5, r6, pc}
20007594:	7862      	ldrb	r2, [r4, #1]
20007596:	2400      	movs	r4, #0
20007598:	428a      	cmp	r2, r1
2000759a:	d1f8      	bne.n	2000758e <hidd_xfer_cb+0x26>
2000759c:	e7ee      	b.n	2000757c <hidd_xfer_cb+0x14>
2000759e:	0026      	movs	r6, r4
200075a0:	b29b      	uxth	r3, r3
200075a2:	3648      	adds	r6, #72	; 0x48
200075a4:	2200      	movs	r2, #0
200075a6:	2100      	movs	r1, #0
200075a8:	2000      	movs	r0, #0
200075aa:	9300      	str	r3, [sp, #0]
200075ac:	0033      	movs	r3, r6
200075ae:	f7fb f993 	bl	200028d8 <tud_hid_set_report_cb>
200075b2:	78a1      	ldrb	r1, [r4, #2]
200075b4:	2340      	movs	r3, #64	; 0x40
200075b6:	0032      	movs	r2, r6
200075b8:	0028      	movs	r0, r5
200075ba:	f7ff faef 	bl	20006b9c <usbd_edpt_xfer>
200075be:	0004      	movs	r4, r0
200075c0:	e7e5      	b.n	2000758e <hidd_xfer_cb+0x26>
200075c2:	46c0      	nop			; (mov r8, r8)
200075c4:	2000cc98 	.word	0x2000cc98
200075c8:	00000000 	.word	0x00000000
200075cc:	2000cca0 	.word	0x2000cca0

200075d0 <vendord_init>:
200075d0:	b570      	push	{r4, r5, r6, lr}
200075d2:	4c15      	ldr	r4, [pc, #84]	; (20007628 <vendord_init+0x58>)
200075d4:	b082      	sub	sp, #8
200075d6:	2100      	movs	r1, #0
200075d8:	0020      	movs	r0, r4
200075da:	4a14      	ldr	r2, [pc, #80]	; (2000762c <vendord_init+0x5c>)
200075dc:	2680      	movs	r6, #128	; 0x80
200075de:	f7fe f967 	bl	200058b0 <__wrap_memset>
200075e2:	2500      	movs	r5, #0
200075e4:	0021      	movs	r1, r4
200075e6:	01b6      	lsls	r6, r6, #6
200075e8:	0032      	movs	r2, r6
200075ea:	2301      	movs	r3, #1
200075ec:	312c      	adds	r1, #44	; 0x2c
200075ee:	1d20      	adds	r0, r4, #4
200075f0:	9500      	str	r5, [sp, #0]
200075f2:	f000 f997 	bl	20007924 <tu_fifo_config>
200075f6:	0020      	movs	r0, r4
200075f8:	4b0d      	ldr	r3, [pc, #52]	; (20007630 <vendord_init+0x60>)
200075fa:	0032      	movs	r2, r6
200075fc:	18e1      	adds	r1, r4, r3
200075fe:	9500      	str	r5, [sp, #0]
20007600:	2301      	movs	r3, #1
20007602:	3018      	adds	r0, #24
20007604:	f000 f98e 	bl	20007924 <tu_fifo_config>
20007608:	4b0a      	ldr	r3, [pc, #40]	; (20007634 <vendord_init+0x64>)
2000760a:	18e6      	adds	r6, r4, r3
2000760c:	0030      	movs	r0, r6
2000760e:	f7fc f8a1 	bl	20003754 <mutex_init>
20007612:	4b09      	ldr	r3, [pc, #36]	; (20007638 <vendord_init+0x68>)
20007614:	6166      	str	r6, [r4, #20]
20007616:	18e6      	adds	r6, r4, r3
20007618:	0030      	movs	r0, r6
2000761a:	6125      	str	r5, [r4, #16]
2000761c:	f7fc f89a 	bl	20003754 <mutex_init>
20007620:	6266      	str	r6, [r4, #36]	; 0x24
20007622:	62a5      	str	r5, [r4, #40]	; 0x28
20007624:	b002      	add	sp, #8
20007626:	bd70      	pop	{r4, r5, r6, pc}
20007628:	2000ce8c 	.word	0x2000ce8c
2000762c:	000040bc 	.word	0x000040bc
20007630:	0000202c 	.word	0x0000202c
20007634:	0000402c 	.word	0x0000402c
20007638:	00004034 	.word	0x00004034

2000763c <vendord_reset>:
2000763c:	b510      	push	{r4, lr}
2000763e:	4c05      	ldr	r4, [pc, #20]	; (20007654 <vendord_reset+0x18>)
20007640:	2300      	movs	r3, #0
20007642:	0020      	movs	r0, r4
20007644:	c008      	stmia	r0!, {r3}
20007646:	f000 fb97 	bl	20007d78 <tu_fifo_clear>
2000764a:	0020      	movs	r0, r4
2000764c:	3018      	adds	r0, #24
2000764e:	f000 fb93 	bl	20007d78 <tu_fifo_clear>
20007652:	bd10      	pop	{r4, pc}
20007654:	2000ce8c 	.word	0x2000ce8c

20007658 <vendord_open>:
20007658:	b5f0      	push	{r4, r5, r6, r7, lr}
2000765a:	46c6      	mov	lr, r8
2000765c:	b500      	push	{lr}
2000765e:	794b      	ldrb	r3, [r1, #5]
20007660:	0007      	movs	r7, r0
20007662:	000e      	movs	r6, r1
20007664:	b082      	sub	sp, #8
20007666:	2bff      	cmp	r3, #255	; 0xff
20007668:	d004      	beq.n	20007674 <vendord_open+0x1c>
2000766a:	2000      	movs	r0, #0
2000766c:	b002      	add	sp, #8
2000766e:	bc80      	pop	{r7}
20007670:	46b8      	mov	r8, r7
20007672:	bdf0      	pop	{r4, r5, r6, r7, pc}
20007674:	4d28      	ldr	r5, [pc, #160]	; (20007718 <vendord_open+0xc0>)
20007676:	786b      	ldrb	r3, [r5, #1]
20007678:	78ac      	ldrb	r4, [r5, #2]
2000767a:	4323      	orrs	r3, r4
2000767c:	d1f5      	bne.n	2000766a <vendord_open+0x12>
2000767e:	788b      	ldrb	r3, [r1, #2]
20007680:	780c      	ldrb	r4, [r1, #0]
20007682:	702b      	strb	r3, [r5, #0]
20007684:	7908      	ldrb	r0, [r1, #4]
20007686:	190c      	adds	r4, r1, r4
20007688:	2800      	cmp	r0, #0
2000768a:	d023      	beq.n	200076d4 <vendord_open+0x7c>
2000768c:	7863      	ldrb	r3, [r4, #1]
2000768e:	2b05      	cmp	r3, #5
20007690:	d008      	beq.n	200076a4 <vendord_open+0x4c>
20007692:	18a2      	adds	r2, r4, r2
20007694:	e004      	b.n	200076a0 <vendord_open+0x48>
20007696:	7821      	ldrb	r1, [r4, #0]
20007698:	1864      	adds	r4, r4, r1
2000769a:	7861      	ldrb	r1, [r4, #1]
2000769c:	2905      	cmp	r1, #5
2000769e:	d001      	beq.n	200076a4 <vendord_open+0x4c>
200076a0:	4294      	cmp	r4, r2
200076a2:	d3f8      	bcc.n	20007696 <vendord_open+0x3e>
200076a4:	4b1d      	ldr	r3, [pc, #116]	; (2000771c <vendord_open+0xc4>)
200076a6:	0002      	movs	r2, r0
200076a8:	4698      	mov	r8, r3
200076aa:	9301      	str	r3, [sp, #4]
200076ac:	3301      	adds	r3, #1
200076ae:	9300      	str	r3, [sp, #0]
200076b0:	0021      	movs	r1, r4
200076b2:	2302      	movs	r3, #2
200076b4:	0038      	movs	r0, r7
200076b6:	f7ff f9e1 	bl	20006a7c <usbd_open_edpt_pair>
200076ba:	2800      	cmp	r0, #0
200076bc:	d0d5      	beq.n	2000766a <vendord_open+0x12>
200076be:	7932      	ldrb	r2, [r6, #4]
200076c0:	00d3      	lsls	r3, r2, #3
200076c2:	1a9b      	subs	r3, r3, r2
200076c4:	18e4      	adds	r4, r4, r3
200076c6:	4643      	mov	r3, r8
200076c8:	7859      	ldrb	r1, [r3, #1]
200076ca:	2900      	cmp	r1, #0
200076cc:	d11a      	bne.n	20007704 <vendord_open+0xac>
200076ce:	7869      	ldrb	r1, [r5, #1]
200076d0:	2900      	cmp	r1, #0
200076d2:	d102      	bne.n	200076da <vendord_open+0x82>
200076d4:	1ba0      	subs	r0, r4, r6
200076d6:	b280      	uxth	r0, r0
200076d8:	e7c8      	b.n	2000766c <vendord_open+0x14>
200076da:	2000      	movs	r0, #0
200076dc:	f7ff fa84 	bl	20006be8 <usbd_edpt_busy>
200076e0:	2800      	cmp	r0, #0
200076e2:	d1f7      	bne.n	200076d4 <vendord_open+0x7c>
200076e4:	0028      	movs	r0, r5
200076e6:	4b0e      	ldr	r3, [pc, #56]	; (20007720 <vendord_open+0xc8>)
200076e8:	2240      	movs	r2, #64	; 0x40
200076ea:	18ef      	adds	r7, r5, r3
200076ec:	0039      	movs	r1, r7
200076ee:	3018      	adds	r0, #24
200076f0:	f000 f9d4 	bl	20007a9c <tu_fifo_read_n>
200076f4:	1e03      	subs	r3, r0, #0
200076f6:	d0ed      	beq.n	200076d4 <vendord_open+0x7c>
200076f8:	003a      	movs	r2, r7
200076fa:	7869      	ldrb	r1, [r5, #1]
200076fc:	2000      	movs	r0, #0
200076fe:	f7ff fa4d 	bl	20006b9c <usbd_edpt_xfer>
20007702:	e7e7      	b.n	200076d4 <vendord_open+0x7c>
20007704:	4a07      	ldr	r2, [pc, #28]	; (20007724 <vendord_open+0xcc>)
20007706:	2340      	movs	r3, #64	; 0x40
20007708:	0038      	movs	r0, r7
2000770a:	4442      	add	r2, r8
2000770c:	f7ff fa46 	bl	20006b9c <usbd_edpt_xfer>
20007710:	2800      	cmp	r0, #0
20007712:	d1dc      	bne.n	200076ce <vendord_open+0x76>
20007714:	e7a9      	b.n	2000766a <vendord_open+0x12>
20007716:	46c0      	nop			; (mov r8, r8)
20007718:	2000ce8c 	.word	0x2000ce8c
2000771c:	2000ce8d 	.word	0x2000ce8d
20007720:	0000407c 	.word	0x0000407c
20007724:	0000403b 	.word	0x0000403b

20007728 <vendord_xfer_cb>:
20007728:	b510      	push	{r4, lr}
2000772a:	4c25      	ldr	r4, [pc, #148]	; (200077c0 <vendord_xfer_cb+0x98>)
2000772c:	78a2      	ldrb	r2, [r4, #2]
2000772e:	428a      	cmp	r2, r1
20007730:	d01c      	beq.n	2000776c <vendord_xfer_cb+0x44>
20007732:	7862      	ldrb	r2, [r4, #1]
20007734:	2000      	movs	r0, #0
20007736:	428a      	cmp	r2, r1
20007738:	d117      	bne.n	2000776a <vendord_xfer_cb+0x42>
2000773a:	4a22      	ldr	r2, [pc, #136]	; (200077c4 <vendord_xfer_cb+0x9c>)
2000773c:	2a00      	cmp	r2, #0
2000773e:	d005      	beq.n	2000774c <vendord_xfer_cb+0x24>
20007740:	041b      	lsls	r3, r3, #16
20007742:	0c19      	lsrs	r1, r3, #16
20007744:	2000      	movs	r0, #0
20007746:	e000      	b.n	2000774a <vendord_xfer_cb+0x22>
20007748:	bf00      	nop
2000774a:	7861      	ldrb	r1, [r4, #1]
2000774c:	2000      	movs	r0, #0
2000774e:	f7ff fa4b 	bl	20006be8 <usbd_edpt_busy>
20007752:	2800      	cmp	r0, #0
20007754:	d108      	bne.n	20007768 <vendord_xfer_cb+0x40>
20007756:	4c1c      	ldr	r4, [pc, #112]	; (200077c8 <vendord_xfer_cb+0xa0>)
20007758:	4b1c      	ldr	r3, [pc, #112]	; (200077cc <vendord_xfer_cb+0xa4>)
2000775a:	2240      	movs	r2, #64	; 0x40
2000775c:	18e0      	adds	r0, r4, r3
2000775e:	0021      	movs	r1, r4
20007760:	f000 f99c 	bl	20007a9c <tu_fifo_read_n>
20007764:	1e03      	subs	r3, r0, #0
20007766:	d121      	bne.n	200077ac <vendord_xfer_cb+0x84>
20007768:	2001      	movs	r0, #1
2000776a:	bd10      	pop	{r4, pc}
2000776c:	b29a      	uxth	r2, r3
2000776e:	4b18      	ldr	r3, [pc, #96]	; (200077d0 <vendord_xfer_cb+0xa8>)
20007770:	1d20      	adds	r0, r4, #4
20007772:	18e1      	adds	r1, r4, r3
20007774:	f000 fa4c 	bl	20007c10 <tu_fifo_write_n>
20007778:	4b16      	ldr	r3, [pc, #88]	; (200077d4 <vendord_xfer_cb+0xac>)
2000777a:	2b00      	cmp	r3, #0
2000777c:	d002      	beq.n	20007784 <vendord_xfer_cb+0x5c>
2000777e:	2000      	movs	r0, #0
20007780:	e000      	b.n	20007784 <vendord_xfer_cb+0x5c>
20007782:	bf00      	nop
20007784:	2000      	movs	r0, #0
20007786:	78a1      	ldrb	r1, [r4, #2]
20007788:	f7ff fa2e 	bl	20006be8 <usbd_edpt_busy>
2000778c:	2800      	cmp	r0, #0
2000778e:	d1eb      	bne.n	20007768 <vendord_xfer_cb+0x40>
20007790:	1d20      	adds	r0, r4, #4
20007792:	f000 f91d 	bl	200079d0 <tu_fifo_remaining>
20007796:	283f      	cmp	r0, #63	; 0x3f
20007798:	d9e6      	bls.n	20007768 <vendord_xfer_cb+0x40>
2000779a:	4b0d      	ldr	r3, [pc, #52]	; (200077d0 <vendord_xfer_cb+0xa8>)
2000779c:	2000      	movs	r0, #0
2000779e:	18e2      	adds	r2, r4, r3
200077a0:	78a1      	ldrb	r1, [r4, #2]
200077a2:	2340      	movs	r3, #64	; 0x40
200077a4:	f7ff f9fa 	bl	20006b9c <usbd_edpt_xfer>
200077a8:	2001      	movs	r0, #1
200077aa:	e7de      	b.n	2000776a <vendord_xfer_cb+0x42>
200077ac:	4a0a      	ldr	r2, [pc, #40]	; (200077d8 <vendord_xfer_cb+0xb0>)
200077ae:	2000      	movs	r0, #0
200077b0:	18a2      	adds	r2, r4, r2
200077b2:	7851      	ldrb	r1, [r2, #1]
200077b4:	0022      	movs	r2, r4
200077b6:	f7ff f9f1 	bl	20006b9c <usbd_edpt_xfer>
200077ba:	2001      	movs	r0, #1
200077bc:	e7d5      	b.n	2000776a <vendord_xfer_cb+0x42>
200077be:	46c0      	nop			; (mov r8, r8)
200077c0:	2000ce8c 	.word	0x2000ce8c
200077c4:	00000000 	.word	0x00000000
200077c8:	20010f08 	.word	0x20010f08
200077cc:	ffffbf9c 	.word	0xffffbf9c
200077d0:	0000403c 	.word	0x0000403c
200077d4:	00000000 	.word	0x00000000
200077d8:	ffffbf84 	.word	0xffffbf84

200077dc <tusb_init>:
200077dc:	b510      	push	{r4, lr}
200077de:	2000      	movs	r0, #0
200077e0:	f7fe fd06 	bl	200061f0 <tud_init>
200077e4:	bd10      	pop	{r4, pc}
200077e6:	46c0      	nop			; (mov r8, r8)

200077e8 <tusb_inited>:
200077e8:	b510      	push	{r4, lr}
200077ea:	f7fe fcf7 	bl	200061dc <tud_inited>
200077ee:	bd10      	pop	{r4, pc}

200077f0 <tu_edpt_claim>:
200077f0:	7803      	ldrb	r3, [r0, #0]
200077f2:	b570      	push	{r4, r5, r6, lr}
200077f4:	07db      	lsls	r3, r3, #31
200077f6:	0004      	movs	r4, r0
200077f8:	000e      	movs	r6, r1
200077fa:	0fdd      	lsrs	r5, r3, #31
200077fc:	2b00      	cmp	r3, #0
200077fe:	d117      	bne.n	20007830 <tu_edpt_claim+0x40>
20007800:	7803      	ldrb	r3, [r0, #0]
20007802:	075b      	lsls	r3, r3, #29
20007804:	d501      	bpl.n	2000780a <tu_edpt_claim+0x1a>
20007806:	0028      	movs	r0, r5
20007808:	bd70      	pop	{r4, r5, r6, pc}
2000780a:	2101      	movs	r1, #1
2000780c:	0030      	movs	r0, r6
2000780e:	4249      	negs	r1, r1
20007810:	f002 fd44 	bl	2000a29c <mutex_enter_timeout_ms>
20007814:	7823      	ldrb	r3, [r4, #0]
20007816:	07db      	lsls	r3, r3, #31
20007818:	0fdd      	lsrs	r5, r3, #31
2000781a:	2b00      	cmp	r3, #0
2000781c:	d10a      	bne.n	20007834 <tu_edpt_claim+0x44>
2000781e:	7823      	ldrb	r3, [r4, #0]
20007820:	075b      	lsls	r3, r3, #29
20007822:	d408      	bmi.n	20007836 <tu_edpt_claim+0x46>
20007824:	2204      	movs	r2, #4
20007826:	7823      	ldrb	r3, [r4, #0]
20007828:	2501      	movs	r5, #1
2000782a:	4313      	orrs	r3, r2
2000782c:	7023      	strb	r3, [r4, #0]
2000782e:	e002      	b.n	20007836 <tu_edpt_claim+0x46>
20007830:	2500      	movs	r5, #0
20007832:	e7e8      	b.n	20007806 <tu_edpt_claim+0x16>
20007834:	2500      	movs	r5, #0
20007836:	0030      	movs	r0, r6
20007838:	f002 fd6c 	bl	2000a314 <mutex_exit>
2000783c:	e7e3      	b.n	20007806 <tu_edpt_claim+0x16>
2000783e:	46c0      	nop			; (mov r8, r8)

20007840 <tu_edpt_release>:
20007840:	b570      	push	{r4, r5, r6, lr}
20007842:	000d      	movs	r5, r1
20007844:	2101      	movs	r1, #1
20007846:	0004      	movs	r4, r0
20007848:	4249      	negs	r1, r1
2000784a:	0028      	movs	r0, r5
2000784c:	f002 fd26 	bl	2000a29c <mutex_enter_timeout_ms>
20007850:	7823      	ldrb	r3, [r4, #0]
20007852:	075b      	lsls	r3, r3, #29
20007854:	0fde      	lsrs	r6, r3, #31
20007856:	2b00      	cmp	r3, #0
20007858:	db04      	blt.n	20007864 <tu_edpt_release+0x24>
2000785a:	0028      	movs	r0, r5
2000785c:	f002 fd5a 	bl	2000a314 <mutex_exit>
20007860:	0030      	movs	r0, r6
20007862:	bd70      	pop	{r4, r5, r6, pc}
20007864:	7823      	ldrb	r3, [r4, #0]
20007866:	07db      	lsls	r3, r3, #31
20007868:	d404      	bmi.n	20007874 <tu_edpt_release+0x34>
2000786a:	2204      	movs	r2, #4
2000786c:	7823      	ldrb	r3, [r4, #0]
2000786e:	4393      	bics	r3, r2
20007870:	7023      	strb	r3, [r4, #0]
20007872:	e7f2      	b.n	2000785a <tu_edpt_release+0x1a>
20007874:	2600      	movs	r6, #0
20007876:	e7f0      	b.n	2000785a <tu_edpt_release+0x1a>

20007878 <tu_edpt_validate>:
20007878:	b510      	push	{r4, lr}
2000787a:	7943      	ldrb	r3, [r0, #5]
2000787c:	7904      	ldrb	r4, [r0, #4]
2000787e:	021b      	lsls	r3, r3, #8
20007880:	4323      	orrs	r3, r4
20007882:	055b      	lsls	r3, r3, #21
20007884:	0d5a      	lsrs	r2, r3, #21
20007886:	78c3      	ldrb	r3, [r0, #3]
20007888:	079b      	lsls	r3, r3, #30
2000788a:	0f9b      	lsrs	r3, r3, #30
2000788c:	2b02      	cmp	r3, #2
2000788e:	d005      	beq.n	2000789c <tu_edpt_validate+0x24>
20007890:	2b03      	cmp	r3, #3
20007892:	d015      	beq.n	200078c0 <tu_edpt_validate+0x48>
20007894:	2000      	movs	r0, #0
20007896:	2b01      	cmp	r3, #1
20007898:	d008      	beq.n	200078ac <tu_edpt_validate+0x34>
2000789a:	bd10      	pop	{r4, pc}
2000789c:	2902      	cmp	r1, #2
2000789e:	d01c      	beq.n	200078da <tu_edpt_validate+0x62>
200078a0:	2000      	movs	r0, #0
200078a2:	2340      	movs	r3, #64	; 0x40
200078a4:	4293      	cmp	r3, r2
200078a6:	4140      	adcs	r0, r0
200078a8:	b2c0      	uxtb	r0, r0
200078aa:	e7f6      	b.n	2000789a <tu_edpt_validate+0x22>
200078ac:	3902      	subs	r1, #2
200078ae:	424b      	negs	r3, r1
200078b0:	4159      	adcs	r1, r3
200078b2:	4b0d      	ldr	r3, [pc, #52]	; (200078e8 <tu_edpt_validate+0x70>)
200078b4:	469c      	mov	ip, r3
200078b6:	4461      	add	r1, ip
200078b8:	4291      	cmp	r1, r2
200078ba:	4140      	adcs	r0, r0
200078bc:	b2c0      	uxtb	r0, r0
200078be:	e7ec      	b.n	2000789a <tu_edpt_validate+0x22>
200078c0:	3902      	subs	r1, #2
200078c2:	424b      	negs	r3, r1
200078c4:	4159      	adcs	r1, r3
200078c6:	23f0      	movs	r3, #240	; 0xf0
200078c8:	2000      	movs	r0, #0
200078ca:	4249      	negs	r1, r1
200078cc:	009b      	lsls	r3, r3, #2
200078ce:	4019      	ands	r1, r3
200078d0:	3140      	adds	r1, #64	; 0x40
200078d2:	4291      	cmp	r1, r2
200078d4:	4140      	adcs	r0, r0
200078d6:	b2c0      	uxtb	r0, r0
200078d8:	e7df      	b.n	2000789a <tu_edpt_validate+0x22>
200078da:	4b04      	ldr	r3, [pc, #16]	; (200078ec <tu_edpt_validate+0x74>)
200078dc:	18d3      	adds	r3, r2, r3
200078de:	425a      	negs	r2, r3
200078e0:	4153      	adcs	r3, r2
200078e2:	b2d8      	uxtb	r0, r3
200078e4:	e7d9      	b.n	2000789a <tu_edpt_validate+0x22>
200078e6:	46c0      	nop			; (mov r8, r8)
200078e8:	000003ff 	.word	0x000003ff
200078ec:	fffffe00 	.word	0xfffffe00

200078f0 <tu_edpt_bind_driver>:
200078f0:	188a      	adds	r2, r1, r2
200078f2:	b570      	push	{r4, r5, r6, lr}
200078f4:	4291      	cmp	r1, r2
200078f6:	d207      	bcs.n	20007908 <tu_edpt_bind_driver+0x18>
200078f8:	267f      	movs	r6, #127	; 0x7f
200078fa:	784c      	ldrb	r4, [r1, #1]
200078fc:	2c05      	cmp	r4, #5
200078fe:	d004      	beq.n	2000790a <tu_edpt_bind_driver+0x1a>
20007900:	780c      	ldrb	r4, [r1, #0]
20007902:	1909      	adds	r1, r1, r4
20007904:	428a      	cmp	r2, r1
20007906:	d8f8      	bhi.n	200078fa <tu_edpt_bind_driver+0xa>
20007908:	bd70      	pop	{r4, r5, r6, pc}
2000790a:	0034      	movs	r4, r6
2000790c:	788d      	ldrb	r5, [r1, #2]
2000790e:	402c      	ands	r4, r5
20007910:	0064      	lsls	r4, r4, #1
20007912:	1904      	adds	r4, r0, r4
20007914:	09ed      	lsrs	r5, r5, #7
20007916:	5563      	strb	r3, [r4, r5]
20007918:	780c      	ldrb	r4, [r1, #0]
2000791a:	1909      	adds	r1, r1, r4
2000791c:	428a      	cmp	r2, r1
2000791e:	d8ec      	bhi.n	200078fa <tu_edpt_bind_driver+0xa>
20007920:	e7f2      	b.n	20007908 <tu_edpt_bind_driver+0x18>
20007922:	46c0      	nop			; (mov r8, r8)

20007924 <tu_fifo_config>:
20007924:	b5f0      	push	{r4, r5, r6, r7, lr}
20007926:	46c6      	mov	lr, r8
20007928:	b500      	push	{lr}
2000792a:	0004      	movs	r4, r0
2000792c:	a806      	add	r0, sp, #24
2000792e:	7805      	ldrb	r5, [r0, #0]
20007930:	2080      	movs	r0, #128	; 0x80
20007932:	4688      	mov	r8, r1
20007934:	0017      	movs	r7, r2
20007936:	001e      	movs	r6, r3
20007938:	0200      	lsls	r0, r0, #8
2000793a:	4282      	cmp	r2, r0
2000793c:	d827      	bhi.n	2000798e <tu_fifo_config+0x6a>
2000793e:	68e0      	ldr	r0, [r4, #12]
20007940:	2800      	cmp	r0, #0
20007942:	d003      	beq.n	2000794c <tu_fifo_config+0x28>
20007944:	2101      	movs	r1, #1
20007946:	4249      	negs	r1, r1
20007948:	f002 fca8 	bl	2000a29c <mutex_enter_timeout_ms>
2000794c:	6920      	ldr	r0, [r4, #16]
2000794e:	2800      	cmp	r0, #0
20007950:	d003      	beq.n	2000795a <tu_fifo_config+0x36>
20007952:	2101      	movs	r1, #1
20007954:	4249      	negs	r1, r1
20007956:	f002 fca1 	bl	2000a29c <mutex_enter_timeout_ms>
2000795a:	4643      	mov	r3, r8
2000795c:	6023      	str	r3, [r4, #0]
2000795e:	0473      	lsls	r3, r6, #17
20007960:	0c5b      	lsrs	r3, r3, #17
20007962:	03ed      	lsls	r5, r5, #15
20007964:	431d      	orrs	r5, r3
20007966:	2300      	movs	r3, #0
20007968:	68e0      	ldr	r0, [r4, #12]
2000796a:	8163      	strh	r3, [r4, #10]
2000796c:	80a7      	strh	r7, [r4, #4]
2000796e:	80e5      	strh	r5, [r4, #6]
20007970:	8123      	strh	r3, [r4, #8]
20007972:	2800      	cmp	r0, #0
20007974:	d001      	beq.n	2000797a <tu_fifo_config+0x56>
20007976:	f002 fccd 	bl	2000a314 <mutex_exit>
2000797a:	6920      	ldr	r0, [r4, #16]
2000797c:	2401      	movs	r4, #1
2000797e:	2800      	cmp	r0, #0
20007980:	d001      	beq.n	20007986 <tu_fifo_config+0x62>
20007982:	f002 fcc7 	bl	2000a314 <mutex_exit>
20007986:	0020      	movs	r0, r4
20007988:	bc80      	pop	{r7}
2000798a:	46b8      	mov	r8, r7
2000798c:	bdf0      	pop	{r4, r5, r6, r7, pc}
2000798e:	2400      	movs	r4, #0
20007990:	e7f9      	b.n	20007986 <tu_fifo_config+0x62>
20007992:	46c0      	nop			; (mov r8, r8)

20007994 <tu_fifo_count>:
20007994:	b510      	push	{r4, lr}
20007996:	8904      	ldrh	r4, [r0, #8]
20007998:	8941      	ldrh	r1, [r0, #10]
2000799a:	8882      	ldrh	r2, [r0, #4]
2000799c:	b2a3      	uxth	r3, r4
2000799e:	b288      	uxth	r0, r1
200079a0:	428c      	cmp	r4, r1
200079a2:	d307      	bcc.n	200079b4 <tu_fifo_count+0x20>
200079a4:	1a1b      	subs	r3, r3, r0
200079a6:	b29b      	uxth	r3, r3
200079a8:	1c10      	adds	r0, r2, #0
200079aa:	429a      	cmp	r2, r3
200079ac:	d900      	bls.n	200079b0 <tu_fifo_count+0x1c>
200079ae:	1c18      	adds	r0, r3, #0
200079b0:	b280      	uxth	r0, r0
200079b2:	bd10      	pop	{r4, pc}
200079b4:	0051      	lsls	r1, r2, #1
200079b6:	1a09      	subs	r1, r1, r0
200079b8:	185b      	adds	r3, r3, r1
200079ba:	b29b      	uxth	r3, r3
200079bc:	e7f4      	b.n	200079a8 <tu_fifo_count+0x14>
200079be:	46c0      	nop			; (mov r8, r8)

200079c0 <tu_fifo_empty>:
200079c0:	0003      	movs	r3, r0
200079c2:	8900      	ldrh	r0, [r0, #8]
200079c4:	895b      	ldrh	r3, [r3, #10]
200079c6:	1ac0      	subs	r0, r0, r3
200079c8:	4243      	negs	r3, r0
200079ca:	4158      	adcs	r0, r3
200079cc:	b2c0      	uxtb	r0, r0
200079ce:	4770      	bx	lr

200079d0 <tu_fifo_remaining>:
200079d0:	b510      	push	{r4, lr}
200079d2:	8904      	ldrh	r4, [r0, #8]
200079d4:	8941      	ldrh	r1, [r0, #10]
200079d6:	8882      	ldrh	r2, [r0, #4]
200079d8:	b2a3      	uxth	r3, r4
200079da:	b288      	uxth	r0, r1
200079dc:	428c      	cmp	r4, r1
200079de:	d307      	bcc.n	200079f0 <tu_fifo_remaining+0x20>
200079e0:	1a1b      	subs	r3, r3, r0
200079e2:	b29b      	uxth	r3, r3
200079e4:	2000      	movs	r0, #0
200079e6:	429a      	cmp	r2, r3
200079e8:	d901      	bls.n	200079ee <tu_fifo_remaining+0x1e>
200079ea:	1ad3      	subs	r3, r2, r3
200079ec:	b298      	uxth	r0, r3
200079ee:	bd10      	pop	{r4, pc}
200079f0:	0051      	lsls	r1, r2, #1
200079f2:	1a09      	subs	r1, r1, r0
200079f4:	185b      	adds	r3, r3, r1
200079f6:	b29b      	uxth	r3, r3
200079f8:	e7f4      	b.n	200079e4 <tu_fifo_remaining+0x14>
200079fa:	46c0      	nop			; (mov r8, r8)

200079fc <tu_fifo_read>:
200079fc:	b570      	push	{r4, r5, r6, lr}
200079fe:	0004      	movs	r4, r0
20007a00:	6900      	ldr	r0, [r0, #16]
20007a02:	000e      	movs	r6, r1
20007a04:	2800      	cmp	r0, #0
20007a06:	d003      	beq.n	20007a10 <tu_fifo_read+0x14>
20007a08:	2101      	movs	r1, #1
20007a0a:	4249      	negs	r1, r1
20007a0c:	f002 fc46 	bl	2000a29c <mutex_enter_timeout_ms>
20007a10:	8925      	ldrh	r5, [r4, #8]
20007a12:	8960      	ldrh	r0, [r4, #10]
20007a14:	88a2      	ldrh	r2, [r4, #4]
20007a16:	b2a9      	uxth	r1, r5
20007a18:	b283      	uxth	r3, r0
20007a1a:	4285      	cmp	r5, r0
20007a1c:	d32c      	bcc.n	20007a78 <tu_fifo_read+0x7c>
20007a1e:	1acd      	subs	r5, r1, r3
20007a20:	b2ad      	uxth	r5, r5
20007a22:	2d00      	cmp	r5, #0
20007a24:	d02e      	beq.n	20007a84 <tu_fifo_read+0x88>
20007a26:	42aa      	cmp	r2, r5
20007a28:	d208      	bcs.n	20007a3c <tu_fifo_read+0x40>
20007a2a:	4291      	cmp	r1, r2
20007a2c:	d331      	bcc.n	20007a92 <tu_fifo_read+0x96>
20007a2e:	1a8b      	subs	r3, r1, r2
20007a30:	b29b      	uxth	r3, r3
20007a32:	8163      	strh	r3, [r4, #10]
20007a34:	429a      	cmp	r2, r3
20007a36:	d803      	bhi.n	20007a40 <tu_fifo_read+0x44>
20007a38:	1a9b      	subs	r3, r3, r2
20007a3a:	b29b      	uxth	r3, r3
20007a3c:	429a      	cmp	r2, r3
20007a3e:	d9fb      	bls.n	20007a38 <tu_fifo_read+0x3c>
20007a40:	88e2      	ldrh	r2, [r4, #6]
20007a42:	6821      	ldr	r1, [r4, #0]
20007a44:	0452      	lsls	r2, r2, #17
20007a46:	0c52      	lsrs	r2, r2, #17
20007a48:	4353      	muls	r3, r2
20007a4a:	0030      	movs	r0, r6
20007a4c:	18c9      	adds	r1, r1, r3
20007a4e:	f7fd ff35 	bl	200058bc <__wrap___aeabi_memcpy>
20007a52:	8961      	ldrh	r1, [r4, #10]
20007a54:	2501      	movs	r5, #1
20007a56:	1c4b      	adds	r3, r1, #1
20007a58:	b29b      	uxth	r3, r3
20007a5a:	88a2      	ldrh	r2, [r4, #4]
20007a5c:	4299      	cmp	r1, r3
20007a5e:	d914      	bls.n	20007a8a <tu_fifo_read+0x8e>
20007a60:	2300      	movs	r3, #0
20007a62:	0052      	lsls	r2, r2, #1
20007a64:	1a9b      	subs	r3, r3, r2
20007a66:	b29b      	uxth	r3, r3
20007a68:	6920      	ldr	r0, [r4, #16]
20007a6a:	8163      	strh	r3, [r4, #10]
20007a6c:	2800      	cmp	r0, #0
20007a6e:	d001      	beq.n	20007a74 <tu_fifo_read+0x78>
20007a70:	f002 fc50 	bl	2000a314 <mutex_exit>
20007a74:	0028      	movs	r0, r5
20007a76:	bd70      	pop	{r4, r5, r6, pc}
20007a78:	0055      	lsls	r5, r2, #1
20007a7a:	1aed      	subs	r5, r5, r3
20007a7c:	194d      	adds	r5, r1, r5
20007a7e:	b2ad      	uxth	r5, r5
20007a80:	2d00      	cmp	r5, #0
20007a82:	d1d0      	bne.n	20007a26 <tu_fifo_read+0x2a>
20007a84:	2500      	movs	r5, #0
20007a86:	8963      	ldrh	r3, [r4, #10]
20007a88:	b29b      	uxth	r3, r3
20007a8a:	0052      	lsls	r2, r2, #1
20007a8c:	4293      	cmp	r3, r2
20007a8e:	dbeb      	blt.n	20007a68 <tu_fifo_read+0x6c>
20007a90:	e7e8      	b.n	20007a64 <tu_fifo_read+0x68>
20007a92:	1889      	adds	r1, r1, r2
20007a94:	b28b      	uxth	r3, r1
20007a96:	8163      	strh	r3, [r4, #10]
20007a98:	e7cc      	b.n	20007a34 <tu_fifo_read+0x38>
20007a9a:	46c0      	nop			; (mov r8, r8)

20007a9c <tu_fifo_read_n>:
20007a9c:	b5f0      	push	{r4, r5, r6, r7, lr}
20007a9e:	4646      	mov	r6, r8
20007aa0:	464f      	mov	r7, r9
20007aa2:	46d6      	mov	lr, sl
20007aa4:	b5c0      	push	{r6, r7, lr}
20007aa6:	0006      	movs	r6, r0
20007aa8:	6900      	ldr	r0, [r0, #16]
20007aaa:	4689      	mov	r9, r1
20007aac:	4690      	mov	r8, r2
20007aae:	2800      	cmp	r0, #0
20007ab0:	d003      	beq.n	20007aba <tu_fifo_read_n+0x1e>
20007ab2:	2101      	movs	r1, #1
20007ab4:	4249      	negs	r1, r1
20007ab6:	f002 fbf1 	bl	2000a29c <mutex_enter_timeout_ms>
20007aba:	8931      	ldrh	r1, [r6, #8]
20007abc:	8972      	ldrh	r2, [r6, #10]
20007abe:	88b5      	ldrh	r5, [r6, #4]
20007ac0:	b28b      	uxth	r3, r1
20007ac2:	b294      	uxth	r4, r2
20007ac4:	4291      	cmp	r1, r2
20007ac6:	d357      	bcc.n	20007b78 <tu_fifo_read_n+0xdc>
20007ac8:	1b1f      	subs	r7, r3, r4
20007aca:	b2bf      	uxth	r7, r7
20007acc:	2f00      	cmp	r7, #0
20007ace:	d04d      	beq.n	20007b6c <tu_fifo_read_n+0xd0>
20007ad0:	42bd      	cmp	r5, r7
20007ad2:	d205      	bcs.n	20007ae0 <tu_fifo_read_n+0x44>
20007ad4:	42ab      	cmp	r3, r5
20007ad6:	d254      	bcs.n	20007b82 <tu_fifo_read_n+0xe6>
20007ad8:	195b      	adds	r3, r3, r5
20007ada:	b29c      	uxth	r4, r3
20007adc:	002f      	movs	r7, r5
20007ade:	8174      	strh	r4, [r6, #10]
20007ae0:	4643      	mov	r3, r8
20007ae2:	45b8      	cmp	r8, r7
20007ae4:	d840      	bhi.n	20007b68 <tu_fifo_read_n+0xcc>
20007ae6:	b29f      	uxth	r7, r3
20007ae8:	42a5      	cmp	r5, r4
20007aea:	d803      	bhi.n	20007af4 <tu_fifo_read_n+0x58>
20007aec:	1b64      	subs	r4, r4, r5
20007aee:	b2a4      	uxth	r4, r4
20007af0:	42a5      	cmp	r5, r4
20007af2:	d9fb      	bls.n	20007aec <tu_fifo_read_n+0x50>
20007af4:	88f2      	ldrh	r2, [r6, #6]
20007af6:	1b28      	subs	r0, r5, r4
20007af8:	0452      	lsls	r2, r2, #17
20007afa:	0c53      	lsrs	r3, r2, #17
20007afc:	0019      	movs	r1, r3
20007afe:	4698      	mov	r8, r3
20007b00:	6833      	ldr	r3, [r6, #0]
20007b02:	4361      	muls	r1, r4
20007b04:	469c      	mov	ip, r3
20007b06:	b280      	uxth	r0, r0
20007b08:	4461      	add	r1, ip
20007b0a:	4287      	cmp	r7, r0
20007b0c:	d926      	bls.n	20007b5c <tu_fifo_read_n+0xc0>
20007b0e:	4643      	mov	r3, r8
20007b10:	4358      	muls	r0, r3
20007b12:	b283      	uxth	r3, r0
20007b14:	001a      	movs	r2, r3
20007b16:	4648      	mov	r0, r9
20007b18:	469a      	mov	sl, r3
20007b1a:	f7fd fecf 	bl	200058bc <__wrap___aeabi_memcpy>
20007b1e:	4643      	mov	r3, r8
20007b20:	4648      	mov	r0, r9
20007b22:	1b7d      	subs	r5, r7, r5
20007b24:	1964      	adds	r4, r4, r5
20007b26:	435c      	muls	r4, r3
20007b28:	6831      	ldr	r1, [r6, #0]
20007b2a:	4450      	add	r0, sl
20007b2c:	b2a2      	uxth	r2, r4
20007b2e:	f7fd fec5 	bl	200058bc <__wrap___aeabi_memcpy>
20007b32:	8971      	ldrh	r1, [r6, #10]
20007b34:	88b5      	ldrh	r5, [r6, #4]
20007b36:	19cb      	adds	r3, r1, r7
20007b38:	b29b      	uxth	r3, r3
20007b3a:	006a      	lsls	r2, r5, #1
20007b3c:	4299      	cmp	r1, r3
20007b3e:	d917      	bls.n	20007b70 <tu_fifo_read_n+0xd4>
20007b40:	1a9b      	subs	r3, r3, r2
20007b42:	b29b      	uxth	r3, r3
20007b44:	6930      	ldr	r0, [r6, #16]
20007b46:	8173      	strh	r3, [r6, #10]
20007b48:	2800      	cmp	r0, #0
20007b4a:	d001      	beq.n	20007b50 <tu_fifo_read_n+0xb4>
20007b4c:	f002 fbe2 	bl	2000a314 <mutex_exit>
20007b50:	0038      	movs	r0, r7
20007b52:	bce0      	pop	{r5, r6, r7}
20007b54:	46ba      	mov	sl, r7
20007b56:	46b1      	mov	r9, r6
20007b58:	46a8      	mov	r8, r5
20007b5a:	bdf0      	pop	{r4, r5, r6, r7, pc}
20007b5c:	4642      	mov	r2, r8
20007b5e:	4648      	mov	r0, r9
20007b60:	437a      	muls	r2, r7
20007b62:	f7fd feab 	bl	200058bc <__wrap___aeabi_memcpy>
20007b66:	e7e4      	b.n	20007b32 <tu_fifo_read_n+0x96>
20007b68:	1c3b      	adds	r3, r7, #0
20007b6a:	e7bc      	b.n	20007ae6 <tu_fifo_read_n+0x4a>
20007b6c:	8973      	ldrh	r3, [r6, #10]
20007b6e:	b29b      	uxth	r3, r3
20007b70:	006a      	lsls	r2, r5, #1
20007b72:	4293      	cmp	r3, r2
20007b74:	dbe6      	blt.n	20007b44 <tu_fifo_read_n+0xa8>
20007b76:	e7e3      	b.n	20007b40 <tu_fifo_read_n+0xa4>
20007b78:	006f      	lsls	r7, r5, #1
20007b7a:	1b3f      	subs	r7, r7, r4
20007b7c:	19df      	adds	r7, r3, r7
20007b7e:	b2bf      	uxth	r7, r7
20007b80:	e7a4      	b.n	20007acc <tu_fifo_read_n+0x30>
20007b82:	1b5b      	subs	r3, r3, r5
20007b84:	b29c      	uxth	r4, r3
20007b86:	e7a9      	b.n	20007adc <tu_fifo_read_n+0x40>

20007b88 <tu_fifo_write>:
20007b88:	b5f8      	push	{r3, r4, r5, r6, r7, lr}
20007b8a:	0004      	movs	r4, r0
20007b8c:	68c0      	ldr	r0, [r0, #12]
20007b8e:	000e      	movs	r6, r1
20007b90:	2800      	cmp	r0, #0
20007b92:	d003      	beq.n	20007b9c <tu_fifo_write+0x14>
20007b94:	2101      	movs	r1, #1
20007b96:	4249      	negs	r1, r1
20007b98:	f002 fb80 	bl	2000a29c <mutex_enter_timeout_ms>
20007b9c:	8925      	ldrh	r5, [r4, #8]
20007b9e:	8920      	ldrh	r0, [r4, #8]
20007ba0:	8961      	ldrh	r1, [r4, #10]
20007ba2:	88a2      	ldrh	r2, [r4, #4]
20007ba4:	b2ad      	uxth	r5, r5
20007ba6:	b283      	uxth	r3, r0
20007ba8:	b28f      	uxth	r7, r1
20007baa:	4288      	cmp	r0, r1
20007bac:	d328      	bcc.n	20007c00 <tu_fifo_write+0x78>
20007bae:	1bdb      	subs	r3, r3, r7
20007bb0:	b29b      	uxth	r3, r3
20007bb2:	429a      	cmp	r2, r3
20007bb4:	d809      	bhi.n	20007bca <tu_fifo_write+0x42>
20007bb6:	79e7      	ldrb	r7, [r4, #7]
20007bb8:	09ff      	lsrs	r7, r7, #7
20007bba:	d106      	bne.n	20007bca <tu_fifo_write+0x42>
20007bbc:	68e0      	ldr	r0, [r4, #12]
20007bbe:	2800      	cmp	r0, #0
20007bc0:	d001      	beq.n	20007bc6 <tu_fifo_write+0x3e>
20007bc2:	f002 fba7 	bl	2000a314 <mutex_exit>
20007bc6:	0038      	movs	r0, r7
20007bc8:	bdf8      	pop	{r3, r4, r5, r6, r7, pc}
20007bca:	002b      	movs	r3, r5
20007bcc:	4295      	cmp	r5, r2
20007bce:	d303      	bcc.n	20007bd8 <tu_fifo_write+0x50>
20007bd0:	1a9b      	subs	r3, r3, r2
20007bd2:	b29b      	uxth	r3, r3
20007bd4:	4293      	cmp	r3, r2
20007bd6:	d2fb      	bcs.n	20007bd0 <tu_fifo_write+0x48>
20007bd8:	88e2      	ldrh	r2, [r4, #6]
20007bda:	6821      	ldr	r1, [r4, #0]
20007bdc:	0452      	lsls	r2, r2, #17
20007bde:	0c52      	lsrs	r2, r2, #17
20007be0:	4353      	muls	r3, r2
20007be2:	18c8      	adds	r0, r1, r3
20007be4:	0031      	movs	r1, r6
20007be6:	f7fd fe69 	bl	200058bc <__wrap___aeabi_memcpy>
20007bea:	88a2      	ldrh	r2, [r4, #4]
20007bec:	1c6b      	adds	r3, r5, #1
20007bee:	b29b      	uxth	r3, r3
20007bf0:	0052      	lsls	r2, r2, #1
20007bf2:	429d      	cmp	r5, r3
20007bf4:	d909      	bls.n	20007c0a <tu_fifo_write+0x82>
20007bf6:	1a9b      	subs	r3, r3, r2
20007bf8:	b29b      	uxth	r3, r3
20007bfa:	2701      	movs	r7, #1
20007bfc:	8123      	strh	r3, [r4, #8]
20007bfe:	e7dd      	b.n	20007bbc <tu_fifo_write+0x34>
20007c00:	0051      	lsls	r1, r2, #1
20007c02:	1bc9      	subs	r1, r1, r7
20007c04:	185b      	adds	r3, r3, r1
20007c06:	b29b      	uxth	r3, r3
20007c08:	e7d3      	b.n	20007bb2 <tu_fifo_write+0x2a>
20007c0a:	4293      	cmp	r3, r2
20007c0c:	dbf5      	blt.n	20007bfa <tu_fifo_write+0x72>
20007c0e:	e7f2      	b.n	20007bf6 <tu_fifo_write+0x6e>

20007c10 <tu_fifo_write_n>:
20007c10:	b5f0      	push	{r4, r5, r6, r7, lr}
20007c12:	464e      	mov	r6, r9
20007c14:	4645      	mov	r5, r8
20007c16:	46de      	mov	lr, fp
20007c18:	4657      	mov	r7, sl
20007c1a:	b5e0      	push	{r5, r6, r7, lr}
20007c1c:	4689      	mov	r9, r1
20007c1e:	0005      	movs	r5, r0
20007c20:	0014      	movs	r4, r2
20007c22:	b083      	sub	sp, #12
20007c24:	2a00      	cmp	r2, #0
20007c26:	d06e      	beq.n	20007d06 <tu_fifo_write_n+0xf6>
20007c28:	68c0      	ldr	r0, [r0, #12]
20007c2a:	2800      	cmp	r0, #0
20007c2c:	d003      	beq.n	20007c36 <tu_fifo_write_n+0x26>
20007c2e:	2101      	movs	r1, #1
20007c30:	4249      	negs	r1, r1
20007c32:	f002 fb33 	bl	2000a29c <mutex_enter_timeout_ms>
20007c36:	892f      	ldrh	r7, [r5, #8]
20007c38:	79ea      	ldrb	r2, [r5, #7]
20007c3a:	896b      	ldrh	r3, [r5, #10]
20007c3c:	b2bf      	uxth	r7, r7
20007c3e:	b29b      	uxth	r3, r3
20007c40:	09d2      	lsrs	r2, r2, #7
20007c42:	d142      	bne.n	20007cca <tu_fifo_write_n+0xba>
20007c44:	88ae      	ldrh	r6, [r5, #4]
20007c46:	429f      	cmp	r7, r3
20007c48:	d267      	bcs.n	20007d1a <tu_fifo_write_n+0x10a>
20007c4a:	0072      	lsls	r2, r6, #1
20007c4c:	1ad3      	subs	r3, r2, r3
20007c4e:	18fb      	adds	r3, r7, r3
20007c50:	b29b      	uxth	r3, r3
20007c52:	2200      	movs	r2, #0
20007c54:	4690      	mov	r8, r2
20007c56:	429e      	cmp	r6, r3
20007c58:	d931      	bls.n	20007cbe <tu_fifo_write_n+0xae>
20007c5a:	1af3      	subs	r3, r6, r3
20007c5c:	1c1a      	adds	r2, r3, #0
20007c5e:	b29b      	uxth	r3, r3
20007c60:	42a3      	cmp	r3, r4
20007c62:	d900      	bls.n	20007c66 <tu_fifo_write_n+0x56>
20007c64:	1c22      	adds	r2, r4, #0
20007c66:	b293      	uxth	r3, r2
20007c68:	4698      	mov	r8, r3
20007c6a:	88e8      	ldrh	r0, [r5, #6]
20007c6c:	4643      	mov	r3, r8
20007c6e:	18fb      	adds	r3, r7, r3
20007c70:	b29b      	uxth	r3, r3
20007c72:	469b      	mov	fp, r3
20007c74:	003c      	movs	r4, r7
20007c76:	42b7      	cmp	r7, r6
20007c78:	d303      	bcc.n	20007c82 <tu_fifo_write_n+0x72>
20007c7a:	1ba4      	subs	r4, r4, r6
20007c7c:	b2a4      	uxth	r4, r4
20007c7e:	42b4      	cmp	r4, r6
20007c80:	d2fb      	bcs.n	20007c7a <tu_fifo_write_n+0x6a>
20007c82:	0440      	lsls	r0, r0, #17
20007c84:	0c43      	lsrs	r3, r0, #17
20007c86:	0018      	movs	r0, r3
20007c88:	469a      	mov	sl, r3
20007c8a:	682b      	ldr	r3, [r5, #0]
20007c8c:	4360      	muls	r0, r4
20007c8e:	469c      	mov	ip, r3
20007c90:	1b31      	subs	r1, r6, r4
20007c92:	b289      	uxth	r1, r1
20007c94:	4460      	add	r0, ip
20007c96:	4541      	cmp	r1, r8
20007c98:	d34e      	bcc.n	20007d38 <tu_fifo_write_n+0x128>
20007c9a:	4652      	mov	r2, sl
20007c9c:	4643      	mov	r3, r8
20007c9e:	4649      	mov	r1, r9
20007ca0:	435a      	muls	r2, r3
20007ca2:	f7fd fe0b 	bl	200058bc <__wrap___aeabi_memcpy>
20007ca6:	88ab      	ldrh	r3, [r5, #4]
20007ca8:	005b      	lsls	r3, r3, #1
20007caa:	45bb      	cmp	fp, r7
20007cac:	d301      	bcc.n	20007cb2 <tu_fifo_write_n+0xa2>
20007cae:	459b      	cmp	fp, r3
20007cb0:	db03      	blt.n	20007cba <tu_fifo_write_n+0xaa>
20007cb2:	465a      	mov	r2, fp
20007cb4:	1ad3      	subs	r3, r2, r3
20007cb6:	b29b      	uxth	r3, r3
20007cb8:	469b      	mov	fp, r3
20007cba:	465b      	mov	r3, fp
20007cbc:	812b      	strh	r3, [r5, #8]
20007cbe:	68e8      	ldr	r0, [r5, #12]
20007cc0:	2800      	cmp	r0, #0
20007cc2:	d022      	beq.n	20007d0a <tu_fifo_write_n+0xfa>
20007cc4:	f002 fb26 	bl	2000a314 <mutex_exit>
20007cc8:	e01f      	b.n	20007d0a <tu_fifo_write_n+0xfa>
20007cca:	88aa      	ldrh	r2, [r5, #4]
20007ccc:	4690      	mov	r8, r2
20007cce:	4294      	cmp	r4, r2
20007cd0:	d226      	bcs.n	20007d20 <tu_fifo_write_n+0x110>
20007cd2:	429f      	cmp	r7, r3
20007cd4:	d344      	bcc.n	20007d60 <tu_fifo_write_n+0x150>
20007cd6:	4641      	mov	r1, r8
20007cd8:	1afa      	subs	r2, r7, r3
20007cda:	b292      	uxth	r2, r2
20007cdc:	0049      	lsls	r1, r1, #1
20007cde:	1912      	adds	r2, r2, r4
20007ce0:	428a      	cmp	r2, r1
20007ce2:	db09      	blt.n	20007cf8 <tu_fifo_write_n+0xe8>
20007ce4:	4642      	mov	r2, r8
20007ce6:	189a      	adds	r2, r3, r2
20007ce8:	b292      	uxth	r2, r2
20007cea:	1b17      	subs	r7, r2, r4
20007cec:	b2bf      	uxth	r7, r7
20007cee:	4693      	mov	fp, r2
20007cf0:	42bb      	cmp	r3, r7
20007cf2:	d93a      	bls.n	20007d6a <tu_fifo_write_n+0x15a>
20007cf4:	1a7f      	subs	r7, r7, r1
20007cf6:	b2bf      	uxth	r7, r7
20007cf8:	19e3      	adds	r3, r4, r7
20007cfa:	b29b      	uxth	r3, r3
20007cfc:	4646      	mov	r6, r8
20007cfe:	469b      	mov	fp, r3
20007d00:	46a0      	mov	r8, r4
20007d02:	88e8      	ldrh	r0, [r5, #6]
20007d04:	e7b6      	b.n	20007c74 <tu_fifo_write_n+0x64>
20007d06:	2300      	movs	r3, #0
20007d08:	4698      	mov	r8, r3
20007d0a:	4640      	mov	r0, r8
20007d0c:	b003      	add	sp, #12
20007d0e:	bcf0      	pop	{r4, r5, r6, r7}
20007d10:	46bb      	mov	fp, r7
20007d12:	46b2      	mov	sl, r6
20007d14:	46a9      	mov	r9, r5
20007d16:	46a0      	mov	r8, r4
20007d18:	bdf0      	pop	{r4, r5, r6, r7, pc}
20007d1a:	1afb      	subs	r3, r7, r3
20007d1c:	b29b      	uxth	r3, r3
20007d1e:	e798      	b.n	20007c52 <tu_fifo_write_n+0x42>
20007d20:	88e8      	ldrh	r0, [r5, #6]
20007d22:	1aa2      	subs	r2, r4, r2
20007d24:	0444      	lsls	r4, r0, #17
20007d26:	0c64      	lsrs	r4, r4, #17
20007d28:	4354      	muls	r4, r2
20007d2a:	4642      	mov	r2, r8
20007d2c:	44a1      	add	r9, r4
20007d2e:	2a00      	cmp	r2, #0
20007d30:	d0c5      	beq.n	20007cbe <tu_fifo_write_n+0xae>
20007d32:	4646      	mov	r6, r8
20007d34:	001f      	movs	r7, r3
20007d36:	e799      	b.n	20007c6c <tu_fifo_write_n+0x5c>
20007d38:	4653      	mov	r3, sl
20007d3a:	4359      	muls	r1, r3
20007d3c:	b289      	uxth	r1, r1
20007d3e:	000a      	movs	r2, r1
20007d40:	9101      	str	r1, [sp, #4]
20007d42:	4649      	mov	r1, r9
20007d44:	f7fd fdba 	bl	200058bc <__wrap___aeabi_memcpy>
20007d48:	4643      	mov	r3, r8
20007d4a:	1b9a      	subs	r2, r3, r6
20007d4c:	4653      	mov	r3, sl
20007d4e:	18a2      	adds	r2, r4, r2
20007d50:	435a      	muls	r2, r3
20007d52:	9901      	ldr	r1, [sp, #4]
20007d54:	6828      	ldr	r0, [r5, #0]
20007d56:	b292      	uxth	r2, r2
20007d58:	4449      	add	r1, r9
20007d5a:	f7fd fdaf 	bl	200058bc <__wrap___aeabi_memcpy>
20007d5e:	e7a2      	b.n	20007ca6 <tu_fifo_write_n+0x96>
20007d60:	0051      	lsls	r1, r2, #1
20007d62:	1aca      	subs	r2, r1, r3
20007d64:	18ba      	adds	r2, r7, r2
20007d66:	b292      	uxth	r2, r2
20007d68:	e7b9      	b.n	20007cde <tu_fifo_write_n+0xce>
20007d6a:	42b9      	cmp	r1, r7
20007d6c:	ddc2      	ble.n	20007cf4 <tu_fifo_write_n+0xe4>
20007d6e:	4646      	mov	r6, r8
20007d70:	88e8      	ldrh	r0, [r5, #6]
20007d72:	46a0      	mov	r8, r4
20007d74:	e77e      	b.n	20007c74 <tu_fifo_write_n+0x64>
20007d76:	46c0      	nop			; (mov r8, r8)

20007d78 <tu_fifo_clear>:
20007d78:	b510      	push	{r4, lr}
20007d7a:	0004      	movs	r4, r0
20007d7c:	68c0      	ldr	r0, [r0, #12]
20007d7e:	2800      	cmp	r0, #0
20007d80:	d003      	beq.n	20007d8a <tu_fifo_clear+0x12>
20007d82:	2101      	movs	r1, #1
20007d84:	4249      	negs	r1, r1
20007d86:	f002 fa89 	bl	2000a29c <mutex_enter_timeout_ms>
20007d8a:	6920      	ldr	r0, [r4, #16]
20007d8c:	2800      	cmp	r0, #0
20007d8e:	d003      	beq.n	20007d98 <tu_fifo_clear+0x20>
20007d90:	2101      	movs	r1, #1
20007d92:	4249      	negs	r1, r1
20007d94:	f002 fa82 	bl	2000a29c <mutex_enter_timeout_ms>
20007d98:	2300      	movs	r3, #0
20007d9a:	68e0      	ldr	r0, [r4, #12]
20007d9c:	8163      	strh	r3, [r4, #10]
20007d9e:	8123      	strh	r3, [r4, #8]
20007da0:	2800      	cmp	r0, #0
20007da2:	d001      	beq.n	20007da8 <tu_fifo_clear+0x30>
20007da4:	f002 fab6 	bl	2000a314 <mutex_exit>
20007da8:	6920      	ldr	r0, [r4, #16]
20007daa:	2800      	cmp	r0, #0
20007dac:	d001      	beq.n	20007db2 <tu_fifo_clear+0x3a>
20007dae:	f002 fab1 	bl	2000a314 <mutex_exit>
20007db2:	2001      	movs	r0, #1
20007db4:	bd10      	pop	{r4, pc}
20007db6:	46c0      	nop			; (mov r8, r8)

20007db8 <tu_fifo_set_overwritable>:
20007db8:	b570      	push	{r4, r5, r6, lr}
20007dba:	0004      	movs	r4, r0
20007dbc:	68c0      	ldr	r0, [r0, #12]
20007dbe:	000d      	movs	r5, r1
20007dc0:	2800      	cmp	r0, #0
20007dc2:	d003      	beq.n	20007dcc <tu_fifo_set_overwritable+0x14>
20007dc4:	2101      	movs	r1, #1
20007dc6:	4249      	negs	r1, r1
20007dc8:	f002 fa68 	bl	2000a29c <mutex_enter_timeout_ms>
20007dcc:	6920      	ldr	r0, [r4, #16]
20007dce:	2800      	cmp	r0, #0
20007dd0:	d003      	beq.n	20007dda <tu_fifo_set_overwritable+0x22>
20007dd2:	2101      	movs	r1, #1
20007dd4:	4249      	negs	r1, r1
20007dd6:	f002 fa61 	bl	2000a29c <mutex_enter_timeout_ms>
20007dda:	217f      	movs	r1, #127	; 0x7f
20007ddc:	79e3      	ldrb	r3, [r4, #7]
20007dde:	01ed      	lsls	r5, r5, #7
20007de0:	4019      	ands	r1, r3
20007de2:	68e0      	ldr	r0, [r4, #12]
20007de4:	4329      	orrs	r1, r5
20007de6:	71e1      	strb	r1, [r4, #7]
20007de8:	2800      	cmp	r0, #0
20007dea:	d001      	beq.n	20007df0 <tu_fifo_set_overwritable+0x38>
20007dec:	f002 fa92 	bl	2000a314 <mutex_exit>
20007df0:	6920      	ldr	r0, [r4, #16]
20007df2:	2800      	cmp	r0, #0
20007df4:	d001      	beq.n	20007dfa <tu_fifo_set_overwritable+0x42>
20007df6:	f002 fa8d 	bl	2000a314 <mutex_exit>
20007dfa:	2001      	movs	r0, #1
20007dfc:	bd70      	pop	{r4, r5, r6, pc}
20007dfe:	46c0      	nop			; (mov r8, r8)

20007e00 <hw_enumeration_fix_force_ls_j_done>:
20007e00:	2180      	movs	r1, #128	; 0x80
20007e02:	4a0a      	ldr	r2, [pc, #40]	; (20007e2c <hw_enumeration_fix_force_ls_j_done+0x2c>)
20007e04:	0249      	lsls	r1, r1, #9
20007e06:	6d13      	ldr	r3, [r2, #80]	; 0x50
20007e08:	420b      	tst	r3, r1
20007e0a:	d0fc      	beq.n	20007e06 <hw_enumeration_fix_force_ls_j_done+0x6>
20007e0c:	2309      	movs	r3, #9
20007e0e:	6753      	str	r3, [r2, #116]	; 0x74
20007e10:	2204      	movs	r2, #4
20007e12:	4b07      	ldr	r3, [pc, #28]	; (20007e30 <hw_enumeration_fix_force_ls_j_done+0x30>)
20007e14:	2000      	movs	r0, #0
20007e16:	601a      	str	r2, [r3, #0]
20007e18:	4b06      	ldr	r3, [pc, #24]	; (20007e34 <hw_enumeration_fix_force_ls_j_done+0x34>)
20007e1a:	2100      	movs	r1, #0
20007e1c:	681a      	ldr	r2, [r3, #0]
20007e1e:	4b06      	ldr	r3, [pc, #24]	; (20007e38 <hw_enumeration_fix_force_ls_j_done+0x38>)
20007e20:	67da      	str	r2, [r3, #124]	; 0x7c
20007e22:	4b06      	ldr	r3, [pc, #24]	; (20007e3c <hw_enumeration_fix_force_ls_j_done+0x3c>)
20007e24:	681a      	ldr	r2, [r3, #0]
20007e26:	4b06      	ldr	r3, [pc, #24]	; (20007e40 <hw_enumeration_fix_force_ls_j_done+0x40>)
20007e28:	641a      	str	r2, [r3, #64]	; 0x40
20007e2a:	4770      	bx	lr
20007e2c:	50110000 	.word	0x50110000
20007e30:	50113080 	.word	0x50113080
20007e34:	200110dc 	.word	0x200110dc
20007e38:	40014000 	.word	0x40014000
20007e3c:	200114e8 	.word	0x200114e8
20007e40:	4001c000 	.word	0x4001c000

20007e44 <hw_enumeration_fix_force_ls_j>:
20007e44:	b570      	push	{r4, r5, r6, lr}
20007e46:	2010      	movs	r0, #16
20007e48:	b084      	sub	sp, #16
20007e4a:	f7fc fe31 	bl	20004ab0 <gpio_get_function>
20007e4e:	2808      	cmp	r0, #8
20007e50:	d05d      	beq.n	20007f0e <hw_enumeration_fix_force_ls_j+0xca>
20007e52:	4b32      	ldr	r3, [pc, #200]	; (20007f1c <hw_enumeration_fix_force_ls_j+0xd8>)
20007e54:	4d32      	ldr	r5, [pc, #200]	; (20007f20 <hw_enumeration_fix_force_ls_j+0xdc>)
20007e56:	6fdb      	ldr	r3, [r3, #124]	; 0x7c
20007e58:	4c32      	ldr	r4, [pc, #200]	; (20007f24 <hw_enumeration_fix_force_ls_j+0xe0>)
20007e5a:	602b      	str	r3, [r5, #0]
20007e5c:	4b32      	ldr	r3, [pc, #200]	; (20007f28 <hw_enumeration_fix_force_ls_j+0xe4>)
20007e5e:	2201      	movs	r2, #1
20007e60:	6c1b      	ldr	r3, [r3, #64]	; 0x40
20007e62:	2101      	movs	r1, #1
20007e64:	200f      	movs	r0, #15
20007e66:	6023      	str	r3, [r4, #0]
20007e68:	f7fc fe2c 	bl	20004ac4 <gpio_set_pulls>
20007e6c:	2102      	movs	r1, #2
20007e6e:	200f      	movs	r0, #15
20007e70:	f7fc fe52 	bl	20004b18 <gpio_set_oeover>
20007e74:	2208      	movs	r2, #8
20007e76:	4b2d      	ldr	r3, [pc, #180]	; (20007f2c <hw_enumeration_fix_force_ls_j+0xe8>)
20007e78:	2103      	movs	r1, #3
20007e7a:	681b      	ldr	r3, [r3, #0]
20007e7c:	200f      	movs	r0, #15
20007e7e:	405a      	eors	r2, r3
20007e80:	231f      	movs	r3, #31
20007e82:	4013      	ands	r3, r2
20007e84:	4a2a      	ldr	r2, [pc, #168]	; (20007f30 <hw_enumeration_fix_force_ls_j+0xec>)
20007e86:	6013      	str	r3, [r2, #0]
20007e88:	f7fc fe34 	bl	20004af4 <gpio_set_inover>
20007e8c:	2202      	movs	r2, #2
20007e8e:	2104      	movs	r1, #4
20007e90:	4b28      	ldr	r3, [pc, #160]	; (20007f34 <hw_enumeration_fix_force_ls_j+0xf0>)
20007e92:	67da      	str	r2, [r3, #124]	; 0x7c
20007e94:	327e      	adds	r2, #126	; 0x7e
20007e96:	5099      	str	r1, [r3, r2]
20007e98:	4b27      	ldr	r3, [pc, #156]	; (20007f38 <hw_enumeration_fix_force_ls_j+0xf4>)
20007e9a:	3a74      	subs	r2, #116	; 0x74
20007e9c:	675a      	str	r2, [r3, #116]	; 0x74
20007e9e:	6d1b      	ldr	r3, [r3, #80]	; 0x50
20007ea0:	071b      	lsls	r3, r3, #28
20007ea2:	0f9b      	lsrs	r3, r3, #30
20007ea4:	2b01      	cmp	r3, #1
20007ea6:	d12f      	bne.n	20007f08 <hw_enumeration_fix_force_ls_j+0xc4>
20007ea8:	f7fb fe42 	bl	20003b30 <alarm_pool_get_default>
20007eac:	0006      	movs	r6, r0
20007eae:	f7fb ffd3 	bl	20003e58 <time_us_64>
20007eb2:	22fa      	movs	r2, #250	; 0xfa
20007eb4:	2300      	movs	r3, #0
20007eb6:	0092      	lsls	r2, r2, #2
20007eb8:	1812      	adds	r2, r2, r0
20007eba:	414b      	adcs	r3, r1
20007ebc:	2b00      	cmp	r3, #0
20007ebe:	db29      	blt.n	20007f14 <hw_enumeration_fix_force_ls_j+0xd0>
20007ec0:	2101      	movs	r1, #1
20007ec2:	9102      	str	r1, [sp, #8]
20007ec4:	2100      	movs	r1, #0
20007ec6:	9101      	str	r1, [sp, #4]
20007ec8:	491c      	ldr	r1, [pc, #112]	; (20007f3c <hw_enumeration_fix_force_ls_j+0xf8>)
20007eca:	0030      	movs	r0, r6
20007ecc:	9100      	str	r1, [sp, #0]
20007ece:	f7fb fe33 	bl	20003b38 <alarm_pool_add_alarm_at>
20007ed2:	2800      	cmp	r0, #0
20007ed4:	db01      	blt.n	20007eda <hw_enumeration_fix_force_ls_j+0x96>
20007ed6:	b004      	add	sp, #16
20007ed8:	bd70      	pop	{r4, r5, r6, pc}
20007eda:	20fa      	movs	r0, #250	; 0xfa
20007edc:	2100      	movs	r1, #0
20007ede:	0080      	lsls	r0, r0, #2
20007ee0:	f7fb ffc4 	bl	20003e6c <busy_wait_us>
20007ee4:	2180      	movs	r1, #128	; 0x80
20007ee6:	4a14      	ldr	r2, [pc, #80]	; (20007f38 <hw_enumeration_fix_force_ls_j+0xf4>)
20007ee8:	0249      	lsls	r1, r1, #9
20007eea:	6d13      	ldr	r3, [r2, #80]	; 0x50
20007eec:	420b      	tst	r3, r1
20007eee:	d0fc      	beq.n	20007eea <hw_enumeration_fix_force_ls_j+0xa6>
20007ef0:	2309      	movs	r3, #9
20007ef2:	6753      	str	r3, [r2, #116]	; 0x74
20007ef4:	2204      	movs	r2, #4
20007ef6:	4b12      	ldr	r3, [pc, #72]	; (20007f40 <hw_enumeration_fix_force_ls_j+0xfc>)
20007ef8:	601a      	str	r2, [r3, #0]
20007efa:	682a      	ldr	r2, [r5, #0]
20007efc:	4b07      	ldr	r3, [pc, #28]	; (20007f1c <hw_enumeration_fix_force_ls_j+0xd8>)
20007efe:	67da      	str	r2, [r3, #124]	; 0x7c
20007f00:	6822      	ldr	r2, [r4, #0]
20007f02:	4b09      	ldr	r3, [pc, #36]	; (20007f28 <hw_enumeration_fix_force_ls_j+0xe4>)
20007f04:	641a      	str	r2, [r3, #64]	; 0x40
20007f06:	e7e6      	b.n	20007ed6 <hw_enumeration_fix_force_ls_j+0x92>
20007f08:	f7fd f970 	bl	200051ec <hard_assertion_failure>
20007f0c:	e7cc      	b.n	20007ea8 <hw_enumeration_fix_force_ls_j+0x64>
20007f0e:	f7fd f96d 	bl	200051ec <hard_assertion_failure>
20007f12:	e79e      	b.n	20007e52 <hw_enumeration_fix_force_ls_j+0xe>
20007f14:	2201      	movs	r2, #1
20007f16:	4b0b      	ldr	r3, [pc, #44]	; (20007f44 <hw_enumeration_fix_force_ls_j+0x100>)
20007f18:	4252      	negs	r2, r2
20007f1a:	e7d1      	b.n	20007ec0 <hw_enumeration_fix_force_ls_j+0x7c>
20007f1c:	40014000 	.word	0x40014000
20007f20:	200110dc 	.word	0x200110dc
20007f24:	200114e8 	.word	0x200114e8
20007f28:	4001c000 	.word	0x4001c000
20007f2c:	4001407c 	.word	0x4001407c
20007f30:	4001507c 	.word	0x4001507c
20007f34:	50112000 	.word	0x50112000
20007f38:	50110000 	.word	0x50110000
20007f3c:	20007e01 	.word	0x20007e01
20007f40:	50113080 	.word	0x50113080
20007f44:	7fffffff 	.word	0x7fffffff

20007f48 <hw_enumeration_fix_wait_se0_callback>:
20007f48:	4b07      	ldr	r3, [pc, #28]	; (20007f68 <hw_enumeration_fix_wait_se0_callback+0x20>)
20007f4a:	b510      	push	{r4, lr}
20007f4c:	6d1b      	ldr	r3, [r3, #80]	; 0x50
20007f4e:	071b      	lsls	r3, r3, #28
20007f50:	0f9b      	lsrs	r3, r3, #30
20007f52:	d103      	bne.n	20007f5c <hw_enumeration_fix_wait_se0_callback+0x14>
20007f54:	20fa      	movs	r0, #250	; 0xfa
20007f56:	2100      	movs	r1, #0
20007f58:	0080      	lsls	r0, r0, #2
20007f5a:	bd10      	pop	{r4, pc}
20007f5c:	f7ff ff72 	bl	20007e44 <hw_enumeration_fix_force_ls_j>
20007f60:	2000      	movs	r0, #0
20007f62:	2100      	movs	r1, #0
20007f64:	e7f9      	b.n	20007f5a <hw_enumeration_fix_wait_se0_callback+0x12>
20007f66:	46c0      	nop			; (mov r8, r8)
20007f68:	50110000 	.word	0x50110000

20007f6c <rp2040_usb_device_enumeration_fix>:
20007f6c:	b510      	push	{r4, lr}
20007f6e:	b084      	sub	sp, #16
20007f70:	f7fc f87c 	bl	2000406c <rp2040_chip_version>
20007f74:	2801      	cmp	r0, #1
20007f76:	d001      	beq.n	20007f7c <rp2040_usb_device_enumeration_fix+0x10>
20007f78:	b004      	add	sp, #16
20007f7a:	bd10      	pop	{r4, pc}
20007f7c:	f7fb fdd8 	bl	20003b30 <alarm_pool_get_default>
20007f80:	0004      	movs	r4, r0
20007f82:	f7fb ff69 	bl	20003e58 <time_us_64>
20007f86:	22fa      	movs	r2, #250	; 0xfa
20007f88:	2300      	movs	r3, #0
20007f8a:	0092      	lsls	r2, r2, #2
20007f8c:	1812      	adds	r2, r2, r0
20007f8e:	414b      	adcs	r3, r1
20007f90:	2b00      	cmp	r3, #0
20007f92:	db13      	blt.n	20007fbc <rp2040_usb_device_enumeration_fix+0x50>
20007f94:	2101      	movs	r1, #1
20007f96:	9102      	str	r1, [sp, #8]
20007f98:	2100      	movs	r1, #0
20007f9a:	9101      	str	r1, [sp, #4]
20007f9c:	4909      	ldr	r1, [pc, #36]	; (20007fc4 <rp2040_usb_device_enumeration_fix+0x58>)
20007f9e:	0020      	movs	r0, r4
20007fa0:	9100      	str	r1, [sp, #0]
20007fa2:	f7fb fdc9 	bl	20003b38 <alarm_pool_add_alarm_at>
20007fa6:	2800      	cmp	r0, #0
20007fa8:	dae6      	bge.n	20007f78 <rp2040_usb_device_enumeration_fix+0xc>
20007faa:	2203      	movs	r2, #3
20007fac:	4906      	ldr	r1, [pc, #24]	; (20007fc8 <rp2040_usb_device_enumeration_fix+0x5c>)
20007fae:	6d0b      	ldr	r3, [r1, #80]	; 0x50
20007fb0:	089b      	lsrs	r3, r3, #2
20007fb2:	421a      	tst	r2, r3
20007fb4:	d0fb      	beq.n	20007fae <rp2040_usb_device_enumeration_fix+0x42>
20007fb6:	f7ff ff45 	bl	20007e44 <hw_enumeration_fix_force_ls_j>
20007fba:	e7dd      	b.n	20007f78 <rp2040_usb_device_enumeration_fix+0xc>
20007fbc:	2201      	movs	r2, #1
20007fbe:	4b03      	ldr	r3, [pc, #12]	; (20007fcc <rp2040_usb_device_enumeration_fix+0x60>)
20007fc0:	4252      	negs	r2, r2
20007fc2:	e7e7      	b.n	20007f94 <rp2040_usb_device_enumeration_fix+0x28>
20007fc4:	20007f49 	.word	0x20007f49
20007fc8:	50110000 	.word	0x50110000
20007fcc:	7fffffff 	.word	0x7fffffff

20007fd0 <board_init>:
20007fd0:	b510      	push	{r4, lr}
20007fd2:	2019      	movs	r0, #25
20007fd4:	f7fc fdb2 	bl	20004b3c <gpio_init>
20007fd8:	23d0      	movs	r3, #208	; 0xd0
20007fda:	2280      	movs	r2, #128	; 0x80
20007fdc:	21e1      	movs	r1, #225	; 0xe1
20007fde:	061b      	lsls	r3, r3, #24
20007fe0:	0492      	lsls	r2, r2, #18
20007fe2:	625a      	str	r2, [r3, #36]	; 0x24
20007fe4:	4804      	ldr	r0, [pc, #16]	; (20007ff8 <board_init+0x28>)
20007fe6:	4b05      	ldr	r3, [pc, #20]	; (20007ffc <board_init+0x2c>)
20007fe8:	2200      	movs	r2, #0
20007fea:	6018      	str	r0, [r3, #0]
20007fec:	0249      	lsls	r1, r1, #9
20007fee:	2301      	movs	r3, #1
20007ff0:	f7fd feb2 	bl	20005d58 <stdio_uart_init_full>
20007ff4:	bd10      	pop	{r4, pc}
20007ff6:	46c0      	nop			; (mov r8, r8)
20007ff8:	40034000 	.word	0x40034000
20007ffc:	200117cc 	.word	0x200117cc

20008000 <vPortSVCHandler>:
20008000:	4770      	bx	lr
20008002:	46c0      	nop			; (mov r8, r8)

20008004 <vPortStartFirstTask>:
20008004:	4a08      	ldr	r2, [pc, #32]	; (20008028 <vPortStartFirstTask+0x24>)
20008006:	6813      	ldr	r3, [r2, #0]
20008008:	6818      	ldr	r0, [r3, #0]
2000800a:	3020      	adds	r0, #32
2000800c:	f380 8809 	msr	PSP, r0
20008010:	2002      	movs	r0, #2
20008012:	f380 8814 	msr	CONTROL, r0
20008016:	f3bf 8f6f 	isb	sy
2000801a:	bc3f      	pop	{r0, r1, r2, r3, r4, r5}
2000801c:	46ae      	mov	lr, r5
2000801e:	bc08      	pop	{r3}
20008020:	bc04      	pop	{r2}
20008022:	b662      	cpsie	i
20008024:	4718      	bx	r3
20008026:	0000      	.short	0x0000
20008028:	20011504 	.word	0x20011504

2000802c <xPortPendSVHandler>:
2000802c:	f3ef 8009 	mrs	r0, PSP
20008030:	4b15      	ldr	r3, [pc, #84]	; (20008088 <xPortPendSVHandler+0x5c>)
20008032:	681a      	ldr	r2, [r3, #0]
20008034:	3820      	subs	r0, #32
20008036:	6010      	str	r0, [r2, #0]
20008038:	c0f0      	stmia	r0!, {r4, r5, r6, r7}
2000803a:	4644      	mov	r4, r8
2000803c:	464d      	mov	r5, r9
2000803e:	4656      	mov	r6, sl
20008040:	465f      	mov	r7, fp
20008042:	c0f0      	stmia	r0!, {r4, r5, r6, r7}
20008044:	220d      	movs	r2, #13
20008046:	0712      	lsls	r2, r2, #28
20008048:	6e14      	ldr	r4, [r2, #96]	; 0x60
2000804a:	6e55      	ldr	r5, [r2, #100]	; 0x64
2000804c:	6f56      	ldr	r6, [r2, #116]	; 0x74
2000804e:	6f17      	ldr	r7, [r2, #112]	; 0x70
20008050:	3830      	subs	r0, #48	; 0x30
20008052:	c0f0      	stmia	r0!, {r4, r5, r6, r7}
20008054:	b508      	push	{r3, lr}
20008056:	b672      	cpsid	i
20008058:	f001 fbc8 	bl	200097ec <vTaskSwitchContext>
2000805c:	b662      	cpsie	i
2000805e:	bc0c      	pop	{r2, r3}
20008060:	6811      	ldr	r1, [r2, #0]
20008062:	6808      	ldr	r0, [r1, #0]
20008064:	3010      	adds	r0, #16
20008066:	c8f0      	ldmia	r0!, {r4, r5, r6, r7}
20008068:	46a0      	mov	r8, r4
2000806a:	46a9      	mov	r9, r5
2000806c:	46b2      	mov	sl, r6
2000806e:	46bb      	mov	fp, r7
20008070:	f380 8809 	msr	PSP, r0
20008074:	220d      	movs	r2, #13
20008076:	0712      	lsls	r2, r2, #28
20008078:	3830      	subs	r0, #48	; 0x30
2000807a:	c8f0      	ldmia	r0!, {r4, r5, r6, r7}
2000807c:	6614      	str	r4, [r2, #96]	; 0x60
2000807e:	6655      	str	r5, [r2, #100]	; 0x64
20008080:	6756      	str	r6, [r2, #116]	; 0x74
20008082:	6717      	str	r7, [r2, #112]	; 0x70
20008084:	c8f0      	ldmia	r0!, {r4, r5, r6, r7}
20008086:	4718      	bx	r3
20008088:	20011504 	.word	0x20011504

2000808c <prvFIFOInterruptHandler>:
2000808c:	23d0      	movs	r3, #208	; 0xd0
2000808e:	b500      	push	{lr}
20008090:	061b      	lsls	r3, r3, #24
20008092:	6d1a      	ldr	r2, [r3, #80]	; 0x50
20008094:	b083      	sub	sp, #12
20008096:	07d2      	lsls	r2, r2, #31
20008098:	d504      	bpl.n	200080a4 <prvFIFOInterruptHandler+0x18>
2000809a:	2101      	movs	r1, #1
2000809c:	6d9a      	ldr	r2, [r3, #88]	; 0x58
2000809e:	6d1a      	ldr	r2, [r3, #80]	; 0x50
200080a0:	4211      	tst	r1, r2
200080a2:	d1fb      	bne.n	2000809c <prvFIFOInterruptHandler+0x10>
200080a4:	23d0      	movs	r3, #208	; 0xd0
200080a6:	22ff      	movs	r2, #255	; 0xff
200080a8:	061b      	lsls	r3, r3, #24
200080aa:	651a      	str	r2, [r3, #80]	; 0x50
200080ac:	2300      	movs	r3, #0
200080ae:	4a11      	ldr	r2, [pc, #68]	; (200080f4 <prvFIFOInterruptHandler+0x68>)
200080b0:	9301      	str	r3, [sp, #4]
200080b2:	6811      	ldr	r1, [r2, #0]
200080b4:	f3ef 8c10 	mrs	ip, PRIMASK
200080b8:	b672      	cpsid	i
200080ba:	680b      	ldr	r3, [r1, #0]
200080bc:	2b00      	cmp	r3, #0
200080be:	d0fc      	beq.n	200080ba <prvFIFOInterruptHandler+0x2e>
200080c0:	f3bf 8f5f 	dmb	sy
200080c4:	2300      	movs	r3, #0
200080c6:	480c      	ldr	r0, [pc, #48]	; (200080f8 <prvFIFOInterruptHandler+0x6c>)
200080c8:	6812      	ldr	r2, [r2, #0]
200080ca:	6801      	ldr	r1, [r0, #0]
200080cc:	6003      	str	r3, [r0, #0]
200080ce:	f3bf 8f5f 	dmb	sy
200080d2:	6013      	str	r3, [r2, #0]
200080d4:	f38c 8810 	msr	PRIMASK, ip
200080d8:	4b08      	ldr	r3, [pc, #32]	; (200080fc <prvFIFOInterruptHandler+0x70>)
200080da:	aa01      	add	r2, sp, #4
200080dc:	6818      	ldr	r0, [r3, #0]
200080de:	f000 fadd 	bl	2000869c <xEventGroupSetBitsFromISR>
200080e2:	9b01      	ldr	r3, [sp, #4]
200080e4:	2b00      	cmp	r3, #0
200080e6:	d003      	beq.n	200080f0 <prvFIFOInterruptHandler+0x64>
200080e8:	2280      	movs	r2, #128	; 0x80
200080ea:	4b05      	ldr	r3, [pc, #20]	; (20008100 <prvFIFOInterruptHandler+0x74>)
200080ec:	0552      	lsls	r2, r2, #21
200080ee:	601a      	str	r2, [r3, #0]
200080f0:	b003      	add	sp, #12
200080f2:	bd00      	pop	{pc}
200080f4:	20011500 	.word	0x20011500
200080f8:	200217f0 	.word	0x200217f0
200080fc:	20021858 	.word	0x20021858
20008100:	e000ed04 	.word	0xe000ed04

20008104 <prvTaskExitError>:
20008104:	b510      	push	{r4, lr}
20008106:	f7fd f86b 	bl	200051e0 <panic_unsupported>
2000810a:	46c0      	nop			; (mov r8, r8)

2000810c <pxPortInitialiseStack>:
2000810c:	b510      	push	{r4, lr}
2000810e:	2480      	movs	r4, #128	; 0x80
20008110:	1f03      	subs	r3, r0, #4
20008112:	0464      	lsls	r4, r4, #17
20008114:	601c      	str	r4, [r3, #0]
20008116:	3b04      	subs	r3, #4
20008118:	6019      	str	r1, [r3, #0]
2000811a:	4903      	ldr	r1, [pc, #12]	; (20008128 <pxPortInitialiseStack+0x1c>)
2000811c:	3b04      	subs	r3, #4
2000811e:	6019      	str	r1, [r3, #0]
20008120:	3b14      	subs	r3, #20
20008122:	3840      	subs	r0, #64	; 0x40
20008124:	601a      	str	r2, [r3, #0]
20008126:	bd10      	pop	{r4, pc}
20008128:	20008105 	.word	0x20008105

2000812c <vPortYield>:
2000812c:	2280      	movs	r2, #128	; 0x80
2000812e:	4b04      	ldr	r3, [pc, #16]	; (20008140 <vPortYield+0x14>)
20008130:	0552      	lsls	r2, r2, #21
20008132:	601a      	str	r2, [r3, #0]
20008134:	f3bf 8f4f 	dsb	sy
20008138:	f3bf 8f6f 	isb	sy
2000813c:	4770      	bx	lr
2000813e:	46c0      	nop			; (mov r8, r8)
20008140:	e000ed04 	.word	0xe000ed04

20008144 <vPortEnterCritical>:
20008144:	b672      	cpsid	i
20008146:	4a04      	ldr	r2, [pc, #16]	; (20008158 <vPortEnterCritical+0x14>)
20008148:	6813      	ldr	r3, [r2, #0]
2000814a:	3301      	adds	r3, #1
2000814c:	6013      	str	r3, [r2, #0]
2000814e:	f3bf 8f4f 	dsb	sy
20008152:	f3bf 8f6f 	isb	sy
20008156:	4770      	bx	lr
20008158:	200217ec 	.word	0x200217ec

2000815c <vPortExitCritical>:
2000815c:	4a09      	ldr	r2, [pc, #36]	; (20008184 <vPortExitCritical+0x28>)
2000815e:	6813      	ldr	r3, [r2, #0]
20008160:	3b01      	subs	r3, #1
20008162:	6013      	str	r3, [r2, #0]
20008164:	2b00      	cmp	r3, #0
20008166:	d10c      	bne.n	20008182 <vPortExitCritical+0x26>
20008168:	4a07      	ldr	r2, [pc, #28]	; (20008188 <vPortExitCritical+0x2c>)
2000816a:	6811      	ldr	r1, [r2, #0]
2000816c:	2900      	cmp	r1, #0
2000816e:	d007      	beq.n	20008180 <vPortExitCritical+0x24>
20008170:	4806      	ldr	r0, [pc, #24]	; (2000818c <vPortExitCritical+0x30>)
20008172:	6800      	ldr	r0, [r0, #0]
20008174:	f3bf 8f5f 	dmb	sy
20008178:	600b      	str	r3, [r1, #0]
2000817a:	f380 8810 	msr	PRIMASK, r0
2000817e:	6013      	str	r3, [r2, #0]
20008180:	b662      	cpsie	i
20008182:	4770      	bx	lr
20008184:	200217ec 	.word	0x200217ec
20008188:	20011798 	.word	0x20011798
2000818c:	200217d4 	.word	0x200217d4

20008190 <ulSetInterruptMaskFromISR>:
20008190:	f3ef 8010 	mrs	r0, PRIMASK
20008194:	b672      	cpsid	i
20008196:	4770      	bx	lr

20008198 <vClearInterruptMaskFromISR>:
20008198:	f380 8810 	msr	PRIMASK, r0
2000819c:	4770      	bx	lr
2000819e:	46c0      	nop			; (mov r8, r8)

200081a0 <xPortSysTickHandler>:
200081a0:	b510      	push	{r4, lr}
200081a2:	f7ff fff5 	bl	20008190 <ulSetInterruptMaskFromISR>
200081a6:	0004      	movs	r4, r0
200081a8:	f001 f92e 	bl	20009408 <xTaskIncrementTick>
200081ac:	2800      	cmp	r0, #0
200081ae:	d003      	beq.n	200081b8 <xPortSysTickHandler+0x18>
200081b0:	2280      	movs	r2, #128	; 0x80
200081b2:	4b03      	ldr	r3, [pc, #12]	; (200081c0 <xPortSysTickHandler+0x20>)
200081b4:	0552      	lsls	r2, r2, #21
200081b6:	601a      	str	r2, [r3, #0]
200081b8:	0020      	movs	r0, r4
200081ba:	f7ff ffed 	bl	20008198 <vClearInterruptMaskFromISR>
200081be:	bd10      	pop	{r4, pc}
200081c0:	e000ed04 	.word	0xe000ed04

200081c4 <vPortSetupTimerInterrupt>:
200081c4:	2300      	movs	r3, #0
200081c6:	b510      	push	{r4, lr}
200081c8:	4a07      	ldr	r2, [pc, #28]	; (200081e8 <vPortSetupTimerInterrupt+0x24>)
200081ca:	4c08      	ldr	r4, [pc, #32]	; (200081ec <vPortSetupTimerInterrupt+0x28>)
200081cc:	2005      	movs	r0, #5
200081ce:	6023      	str	r3, [r4, #0]
200081d0:	6013      	str	r3, [r2, #0]
200081d2:	f7fc fefd 	bl	20004fd0 <clock_get_hz>
200081d6:	4906      	ldr	r1, [pc, #24]	; (200081f0 <vPortSetupTimerInterrupt+0x2c>)
200081d8:	f7fd f868 	bl	200052ac <__wrap___aeabi_uidiv>
200081dc:	4b05      	ldr	r3, [pc, #20]	; (200081f4 <vPortSetupTimerInterrupt+0x30>)
200081de:	3801      	subs	r0, #1
200081e0:	6018      	str	r0, [r3, #0]
200081e2:	2307      	movs	r3, #7
200081e4:	6023      	str	r3, [r4, #0]
200081e6:	bd10      	pop	{r4, pc}
200081e8:	e000e018 	.word	0xe000e018
200081ec:	e000e010 	.word	0xe000e010
200081f0:	00004e20 	.word	0x00004e20
200081f4:	e000e014 	.word	0xe000e014

200081f8 <xPortStartScheduler>:
200081f8:	22ff      	movs	r2, #255	; 0xff
200081fa:	4b22      	ldr	r3, [pc, #136]	; (20008284 <xPortStartScheduler+0x8c>)
200081fc:	0412      	lsls	r2, r2, #16
200081fe:	6819      	ldr	r1, [r3, #0]
20008200:	b510      	push	{r4, lr}
20008202:	430a      	orrs	r2, r1
20008204:	601a      	str	r2, [r3, #0]
20008206:	22ff      	movs	r2, #255	; 0xff
20008208:	2002      	movs	r0, #2
2000820a:	6819      	ldr	r1, [r3, #0]
2000820c:	0612      	lsls	r2, r2, #24
2000820e:	430a      	orrs	r2, r1
20008210:	601a      	str	r2, [r3, #0]
20008212:	491d      	ldr	r1, [pc, #116]	; (20008288 <xPortStartScheduler+0x90>)
20008214:	4240      	negs	r0, r0
20008216:	f001 ff57 	bl	2000a0c8 <exception_set_exclusive_handler>
2000821a:	2001      	movs	r0, #1
2000821c:	491b      	ldr	r1, [pc, #108]	; (2000828c <xPortStartScheduler+0x94>)
2000821e:	4240      	negs	r0, r0
20008220:	f001 ff52 	bl	2000a0c8 <exception_set_exclusive_handler>
20008224:	2005      	movs	r0, #5
20008226:	491a      	ldr	r1, [pc, #104]	; (20008290 <xPortStartScheduler+0x98>)
20008228:	4240      	negs	r0, r0
2000822a:	f001 ff4d 	bl	2000a0c8 <exception_set_exclusive_handler>
2000822e:	f7ff ffc9 	bl	200081c4 <vPortSetupTimerInterrupt>
20008232:	2200      	movs	r2, #0
20008234:	4b17      	ldr	r3, [pc, #92]	; (20008294 <xPortStartScheduler+0x9c>)
20008236:	601a      	str	r2, [r3, #0]
20008238:	23d0      	movs	r3, #208	; 0xd0
2000823a:	061b      	lsls	r3, r3, #24
2000823c:	4a16      	ldr	r2, [pc, #88]	; (20008298 <xPortStartScheduler+0xa0>)
2000823e:	6819      	ldr	r1, [r3, #0]
20008240:	7011      	strb	r1, [r2, #0]
20008242:	22ff      	movs	r2, #255	; 0xff
20008244:	651a      	str	r2, [r3, #80]	; 0x50
20008246:	6d1a      	ldr	r2, [r3, #80]	; 0x50
20008248:	07d2      	lsls	r2, r2, #31
2000824a:	d504      	bpl.n	20008256 <xPortStartScheduler+0x5e>
2000824c:	2101      	movs	r1, #1
2000824e:	6d9a      	ldr	r2, [r3, #88]	; 0x58
20008250:	6d1a      	ldr	r2, [r3, #80]	; 0x50
20008252:	4211      	tst	r1, r2
20008254:	d1fb      	bne.n	2000824e <xPortStartScheduler+0x56>
20008256:	23d0      	movs	r3, #208	; 0xd0
20008258:	061b      	lsls	r3, r3, #24
2000825a:	681c      	ldr	r4, [r3, #0]
2000825c:	21ff      	movs	r1, #255	; 0xff
2000825e:	340f      	adds	r4, #15
20008260:	0020      	movs	r0, r4
20008262:	f7fc f9b3 	bl	200045cc <irq_set_priority>
20008266:	0020      	movs	r0, r4
20008268:	490c      	ldr	r1, [pc, #48]	; (2000829c <xPortStartScheduler+0xa4>)
2000826a:	f7fb ffb9 	bl	200041e0 <irq_set_exclusive_handler>
2000826e:	2101      	movs	r1, #1
20008270:	0020      	movs	r0, r4
20008272:	f7fb ff9b 	bl	200041ac <irq_set_enabled>
20008276:	f7ff fec5 	bl	20008004 <vPortStartFirstTask>
2000827a:	f001 fab7 	bl	200097ec <vTaskSwitchContext>
2000827e:	f7fc ffaf 	bl	200051e0 <panic_unsupported>
20008282:	46c0      	nop			; (mov r8, r8)
20008284:	e000ed20 	.word	0xe000ed20
20008288:	2000802d 	.word	0x2000802d
2000828c:	200081a1 	.word	0x200081a1
20008290:	20008001 	.word	0x20008001
20008294:	200217ec 	.word	0x200217ec
20008298:	2000b54d 	.word	0x2000b54d
2000829c:	2000808d 	.word	0x2000808d

200082a0 <ulPortLockGetCurrentOwnerId>:
200082a0:	23d0      	movs	r3, #208	; 0xd0
200082a2:	b510      	push	{r4, lr}
200082a4:	061b      	lsls	r3, r3, #24
200082a6:	6818      	ldr	r0, [r3, #0]
200082a8:	4b07      	ldr	r3, [pc, #28]	; (200082c8 <ulPortLockGetCurrentOwnerId+0x28>)
200082aa:	781b      	ldrb	r3, [r3, #0]
200082ac:	4283      	cmp	r3, r0
200082ae:	d000      	beq.n	200082b2 <ulPortLockGetCurrentOwnerId+0x12>
200082b0:	bd10      	pop	{r4, pc}
200082b2:	f3ef 8305 	mrs	r3, IPSR
200082b6:	2b00      	cmp	r3, #0
200082b8:	d002      	beq.n	200082c0 <ulPortLockGetCurrentOwnerId+0x20>
200082ba:	005b      	lsls	r3, r3, #1
200082bc:	18c0      	adds	r0, r0, r3
200082be:	e7f7      	b.n	200082b0 <ulPortLockGetCurrentOwnerId+0x10>
200082c0:	f001 fcb4 	bl	20009c2c <xTaskGetCurrentTaskHandle>
200082c4:	e7f4      	b.n	200082b0 <ulPortLockGetCurrentOwnerId+0x10>
200082c6:	46c0      	nop			; (mov r8, r8)
200082c8:	2000b54d 	.word	0x2000b54d

200082cc <vPortLockInternalSpinUnlockWithNotify>:
200082cc:	000a      	movs	r2, r1
200082ce:	492b      	ldr	r1, [pc, #172]	; (2000837c <vPortLockInternalSpinUnlockWithNotify+0xb0>)
200082d0:	6803      	ldr	r3, [r0, #0]
200082d2:	468c      	mov	ip, r1
200082d4:	2102      	movs	r1, #2
200082d6:	b530      	push	{r4, r5, lr}
200082d8:	4463      	add	r3, ip
200082da:	109b      	asrs	r3, r3, #2
200082dc:	31ff      	adds	r1, #255	; 0xff
200082de:	4099      	lsls	r1, r3
200082e0:	4b27      	ldr	r3, [pc, #156]	; (20008380 <vPortLockInternalSpinUnlockWithNotify+0xb4>)
200082e2:	b083      	sub	sp, #12
200082e4:	781c      	ldrb	r4, [r3, #0]
200082e6:	23d0      	movs	r3, #208	; 0xd0
200082e8:	061b      	lsls	r3, r3, #24
200082ea:	681b      	ldr	r3, [r3, #0]
200082ec:	0a09      	lsrs	r1, r1, #8
200082ee:	429c      	cmp	r4, r3
200082f0:	d01f      	beq.n	20008332 <vPortLockInternalSpinUnlockWithNotify+0x66>
200082f2:	bf40      	sev
200082f4:	4d23      	ldr	r5, [pc, #140]	; (20008384 <vPortLockInternalSpinUnlockWithNotify+0xb8>)
200082f6:	6803      	ldr	r3, [r0, #0]
200082f8:	682c      	ldr	r4, [r5, #0]
200082fa:	42a3      	cmp	r3, r4
200082fc:	d034      	beq.n	20008368 <vPortLockInternalSpinUnlockWithNotify+0x9c>
200082fe:	6823      	ldr	r3, [r4, #0]
20008300:	2b00      	cmp	r3, #0
20008302:	d0fc      	beq.n	200082fe <vPortLockInternalSpinUnlockWithNotify+0x32>
20008304:	f3bf 8f5f 	dmb	sy
20008308:	4b1f      	ldr	r3, [pc, #124]	; (20008388 <vPortLockInternalSpinUnlockWithNotify+0xbc>)
2000830a:	681c      	ldr	r4, [r3, #0]
2000830c:	4321      	orrs	r1, r4
2000830e:	6019      	str	r1, [r3, #0]
20008310:	682b      	ldr	r3, [r5, #0]
20008312:	f3bf 8f5f 	dmb	sy
20008316:	2100      	movs	r1, #0
20008318:	6019      	str	r1, [r3, #0]
2000831a:	6803      	ldr	r3, [r0, #0]
2000831c:	20d0      	movs	r0, #208	; 0xd0
2000831e:	2100      	movs	r1, #0
20008320:	0600      	lsls	r0, r0, #24
20008322:	6541      	str	r1, [r0, #84]	; 0x54
20008324:	f3bf 8f5f 	dmb	sy
20008328:	6019      	str	r1, [r3, #0]
2000832a:	f382 8810 	msr	PRIMASK, r2
2000832e:	b003      	add	sp, #12
20008330:	bd30      	pop	{r4, r5, pc}
20008332:	bf40      	sev
20008334:	6803      	ldr	r3, [r0, #0]
20008336:	f3bf 8f5f 	dmb	sy
2000833a:	2000      	movs	r0, #0
2000833c:	6018      	str	r0, [r3, #0]
2000833e:	f382 8810 	msr	PRIMASK, r2
20008342:	f3ef 8305 	mrs	r3, IPSR
20008346:	b2db      	uxtb	r3, r3
20008348:	2b00      	cmp	r3, #0
2000834a:	d012      	beq.n	20008372 <vPortLockInternalSpinUnlockWithNotify+0xa6>
2000834c:	4b0f      	ldr	r3, [pc, #60]	; (2000838c <vPortLockInternalSpinUnlockWithNotify+0xc0>)
2000834e:	9001      	str	r0, [sp, #4]
20008350:	aa01      	add	r2, sp, #4
20008352:	6818      	ldr	r0, [r3, #0]
20008354:	f000 f9a2 	bl	2000869c <xEventGroupSetBitsFromISR>
20008358:	9b01      	ldr	r3, [sp, #4]
2000835a:	2b00      	cmp	r3, #0
2000835c:	d0e7      	beq.n	2000832e <vPortLockInternalSpinUnlockWithNotify+0x62>
2000835e:	2280      	movs	r2, #128	; 0x80
20008360:	4b0b      	ldr	r3, [pc, #44]	; (20008390 <vPortLockInternalSpinUnlockWithNotify+0xc4>)
20008362:	0552      	lsls	r2, r2, #21
20008364:	601a      	str	r2, [r3, #0]
20008366:	e7e2      	b.n	2000832e <vPortLockInternalSpinUnlockWithNotify+0x62>
20008368:	4807      	ldr	r0, [pc, #28]	; (20008388 <vPortLockInternalSpinUnlockWithNotify+0xbc>)
2000836a:	6804      	ldr	r4, [r0, #0]
2000836c:	4321      	orrs	r1, r4
2000836e:	6001      	str	r1, [r0, #0]
20008370:	e7d4      	b.n	2000831c <vPortLockInternalSpinUnlockWithNotify+0x50>
20008372:	4b06      	ldr	r3, [pc, #24]	; (2000838c <vPortLockInternalSpinUnlockWithNotify+0xc0>)
20008374:	6818      	ldr	r0, [r3, #0]
20008376:	f000 f949 	bl	2000860c <xEventGroupSetBits>
2000837a:	e7d8      	b.n	2000832e <vPortLockInternalSpinUnlockWithNotify+0x62>
2000837c:	2fffff00 	.word	0x2fffff00
20008380:	2000b54d 	.word	0x2000b54d
20008384:	20011500 	.word	0x20011500
20008388:	200217f0 	.word	0x200217f0
2000838c:	20021858 	.word	0x20021858
20008390:	e000ed04 	.word	0xe000ed04

20008394 <xPortLockInternalSpinUnlockWithBestEffortWaitOrTimeout>:
20008394:	b5f0      	push	{r4, r5, r6, r7, lr}
20008396:	46ce      	mov	lr, r9
20008398:	4647      	mov	r7, r8
2000839a:	b580      	push	{r7, lr}
2000839c:	001d      	movs	r5, r3
2000839e:	4b33      	ldr	r3, [pc, #204]	; (2000846c <xPortLockInternalSpinUnlockWithBestEffortWaitOrTimeout+0xd8>)
200083a0:	0014      	movs	r4, r2
200083a2:	781a      	ldrb	r2, [r3, #0]
200083a4:	23d0      	movs	r3, #208	; 0xd0
200083a6:	061b      	lsls	r3, r3, #24
200083a8:	681b      	ldr	r3, [r3, #0]
200083aa:	4681      	mov	r9, r0
200083ac:	4688      	mov	r8, r1
200083ae:	b083      	sub	sp, #12
200083b0:	429a      	cmp	r2, r3
200083b2:	d00f      	beq.n	200083d4 <xPortLockInternalSpinUnlockWithBestEffortWaitOrTimeout+0x40>
200083b4:	6803      	ldr	r3, [r0, #0]
200083b6:	f3bf 8f5f 	dmb	sy
200083ba:	2200      	movs	r2, #0
200083bc:	601a      	str	r2, [r3, #0]
200083be:	f381 8810 	msr	PRIMASK, r1
200083c2:	0020      	movs	r0, r4
200083c4:	0029      	movs	r1, r5
200083c6:	f7fb fc73 	bl	20003cb0 <best_effort_wfe_or_timeout>
200083ca:	b003      	add	sp, #12
200083cc:	bcc0      	pop	{r6, r7}
200083ce:	46b9      	mov	r9, r7
200083d0:	46b0      	mov	r8, r6
200083d2:	bdf0      	pop	{r4, r5, r6, r7, pc}
200083d4:	f7fb fd40 	bl	20003e58 <time_us_64>
200083d8:	0022      	movs	r2, r4
200083da:	002b      	movs	r3, r5
200083dc:	2632      	movs	r6, #50	; 0x32
200083de:	4276      	negs	r6, r6
200083e0:	17f7      	asrs	r7, r6, #31
200083e2:	1a12      	subs	r2, r2, r0
200083e4:	418b      	sbcs	r3, r1
200083e6:	18b6      	adds	r6, r6, r2
200083e8:	415f      	adcs	r7, r3
200083ea:	2f00      	cmp	r7, #0
200083ec:	dc1e      	bgt.n	2000842c <xPortLockInternalSpinUnlockWithBestEffortWaitOrTimeout+0x98>
200083ee:	d01b      	beq.n	20008428 <xPortLockInternalSpinUnlockWithBestEffortWaitOrTimeout+0x94>
200083f0:	464b      	mov	r3, r9
200083f2:	681b      	ldr	r3, [r3, #0]
200083f4:	f3bf 8f5f 	dmb	sy
200083f8:	2200      	movs	r2, #0
200083fa:	601a      	str	r2, [r3, #0]
200083fc:	f388 8810 	msr	PRIMASK, r8
20008400:	4b1b      	ldr	r3, [pc, #108]	; (20008470 <xPortLockInternalSpinUnlockWithBestEffortWaitOrTimeout+0xdc>)
20008402:	6a5a      	ldr	r2, [r3, #36]	; 0x24
20008404:	4295      	cmp	r5, r2
20008406:	d805      	bhi.n	20008414 <xPortLockInternalSpinUnlockWithBestEffortWaitOrTimeout+0x80>
20008408:	6a9b      	ldr	r3, [r3, #40]	; 0x28
2000840a:	2001      	movs	r0, #1
2000840c:	42a3      	cmp	r3, r4
2000840e:	d2dc      	bcs.n	200083ca <xPortLockInternalSpinUnlockWithBestEffortWaitOrTimeout+0x36>
20008410:	4295      	cmp	r5, r2
20008412:	d1da      	bne.n	200083ca <xPortLockInternalSpinUnlockWithBestEffortWaitOrTimeout+0x36>
20008414:	2280      	movs	r2, #128	; 0x80
20008416:	4b17      	ldr	r3, [pc, #92]	; (20008474 <xPortLockInternalSpinUnlockWithBestEffortWaitOrTimeout+0xe0>)
20008418:	0552      	lsls	r2, r2, #21
2000841a:	601a      	str	r2, [r3, #0]
2000841c:	f3bf 8f4f 	dsb	sy
20008420:	f3bf 8f6f 	isb	sy
20008424:	2000      	movs	r0, #0
20008426:	e7d0      	b.n	200083ca <xPortLockInternalSpinUnlockWithBestEffortWaitOrTimeout+0x36>
20008428:	2e31      	cmp	r6, #49	; 0x31
2000842a:	d9e1      	bls.n	200083f0 <xPortLockInternalSpinUnlockWithBestEffortWaitOrTimeout+0x5c>
2000842c:	2300      	movs	r3, #0
2000842e:	2232      	movs	r2, #50	; 0x32
20008430:	0030      	movs	r0, r6
20008432:	0039      	movs	r1, r7
20008434:	f7fc ff60 	bl	200052f8 <__wrap___aeabi_ldivmod>
20008438:	1e03      	subs	r3, r0, #0
2000843a:	d0d9      	beq.n	200083f0 <xPortLockInternalSpinUnlockWithBestEffortWaitOrTimeout+0x5c>
2000843c:	464a      	mov	r2, r9
2000843e:	4640      	mov	r0, r8
20008440:	6812      	ldr	r2, [r2, #0]
20008442:	490d      	ldr	r1, [pc, #52]	; (20008478 <xPortLockInternalSpinUnlockWithBestEffortWaitOrTimeout+0xe4>)
20008444:	600a      	str	r2, [r1, #0]
20008446:	490d      	ldr	r1, [pc, #52]	; (2000847c <xPortLockInternalSpinUnlockWithBestEffortWaitOrTimeout+0xe8>)
20008448:	6008      	str	r0, [r1, #0]
2000844a:	490d      	ldr	r1, [pc, #52]	; (20008480 <xPortLockInternalSpinUnlockWithBestEffortWaitOrTimeout+0xec>)
2000844c:	468c      	mov	ip, r1
2000844e:	2102      	movs	r1, #2
20008450:	4462      	add	r2, ip
20008452:	1092      	asrs	r2, r2, #2
20008454:	31ff      	adds	r1, #255	; 0xff
20008456:	4091      	lsls	r1, r2
20008458:	4a0a      	ldr	r2, [pc, #40]	; (20008484 <xPortLockInternalSpinUnlockWithBestEffortWaitOrTimeout+0xf0>)
2000845a:	0a09      	lsrs	r1, r1, #8
2000845c:	6810      	ldr	r0, [r2, #0]
2000845e:	9300      	str	r3, [sp, #0]
20008460:	2201      	movs	r2, #1
20008462:	2300      	movs	r3, #0
20008464:	f000 f876 	bl	20008554 <xEventGroupWaitBits>
20008468:	e7ca      	b.n	20008400 <xPortLockInternalSpinUnlockWithBestEffortWaitOrTimeout+0x6c>
2000846a:	46c0      	nop			; (mov r8, r8)
2000846c:	2000b54d 	.word	0x2000b54d
20008470:	40054000 	.word	0x40054000
20008474:	e000ed04 	.word	0xe000ed04
20008478:	20011798 	.word	0x20011798
2000847c:	200217d4 	.word	0x200217d4
20008480:	2fffff00 	.word	0x2fffff00
20008484:	20021858 	.word	0x20021858

20008488 <prvRuntimeInitializer>:
20008488:	b510      	push	{r4, lr}
2000848a:	f7fb fe73 	bl	20004174 <next_striped_spin_lock_num>
2000848e:	4b05      	ldr	r3, [pc, #20]	; (200084a4 <prvRuntimeInitializer+0x1c>)
20008490:	469c      	mov	ip, r3
20008492:	4b05      	ldr	r3, [pc, #20]	; (200084a8 <prvRuntimeInitializer+0x20>)
20008494:	4460      	add	r0, ip
20008496:	0080      	lsls	r0, r0, #2
20008498:	6018      	str	r0, [r3, #0]
2000849a:	f000 f84f 	bl	2000853c <xEventGroupCreate>
2000849e:	4b03      	ldr	r3, [pc, #12]	; (200084ac <prvRuntimeInitializer+0x24>)
200084a0:	6018      	str	r0, [r3, #0]
200084a2:	bd10      	pop	{r4, pc}
200084a4:	34000040 	.word	0x34000040
200084a8:	20011500 	.word	0x20011500
200084ac:	20021858 	.word	0x20021858

200084b0 <vEventGroupSetBitsCallback>:
200084b0:	b5f8      	push	{r3, r4, r5, r6, r7, lr}
200084b2:	46de      	mov	lr, fp
200084b4:	4657      	mov	r7, sl
200084b6:	464e      	mov	r6, r9
200084b8:	4645      	mov	r5, r8
200084ba:	b5e0      	push	{r5, r6, r7, lr}
200084bc:	0005      	movs	r5, r0
200084be:	000f      	movs	r7, r1
200084c0:	0006      	movs	r6, r0
200084c2:	f000 ff8d 	bl	200093e0 <vTaskSuspendAll>
200084c6:	6829      	ldr	r1, [r5, #0]
200084c8:	692c      	ldr	r4, [r5, #16]
200084ca:	4339      	orrs	r1, r7
200084cc:	360c      	adds	r6, #12
200084ce:	6029      	str	r1, [r5, #0]
200084d0:	42a6      	cmp	r6, r4
200084d2:	d02a      	beq.n	2000852a <vEventGroupSetBitsCallback+0x7a>
200084d4:	2300      	movs	r3, #0
200084d6:	4698      	mov	r8, r3
200084d8:	2380      	movs	r3, #128	; 0x80
200084da:	04db      	lsls	r3, r3, #19
200084dc:	469b      	mov	fp, r3
200084de:	2380      	movs	r3, #128	; 0x80
200084e0:	045b      	lsls	r3, r3, #17
200084e2:	469a      	mov	sl, r3
200084e4:	2380      	movs	r3, #128	; 0x80
200084e6:	049b      	lsls	r3, r3, #18
200084e8:	4699      	mov	r9, r3
200084ea:	e00e      	b.n	2000850a <vEventGroupSetBitsCallback+0x5a>
200084ec:	420b      	tst	r3, r1
200084ee:	d00a      	beq.n	20008506 <vEventGroupSetBitsCallback+0x56>
200084f0:	4657      	mov	r7, sl
200084f2:	423a      	tst	r2, r7
200084f4:	d002      	beq.n	200084fc <vEventGroupSetBitsCallback+0x4c>
200084f6:	4642      	mov	r2, r8
200084f8:	431a      	orrs	r2, r3
200084fa:	4690      	mov	r8, r2
200084fc:	464b      	mov	r3, r9
200084fe:	4319      	orrs	r1, r3
20008500:	f001 fafc 	bl	20009afc <vTaskRemoveFromUnorderedEventList>
20008504:	6829      	ldr	r1, [r5, #0]
20008506:	42a6      	cmp	r6, r4
20008508:	d00d      	beq.n	20008526 <vEventGroupSetBitsCallback+0x76>
2000850a:	0020      	movs	r0, r4
2000850c:	465f      	mov	r7, fp
2000850e:	6802      	ldr	r2, [r0, #0]
20008510:	6864      	ldr	r4, [r4, #4]
20008512:	0213      	lsls	r3, r2, #8
20008514:	0a1b      	lsrs	r3, r3, #8
20008516:	423a      	tst	r2, r7
20008518:	d0e8      	beq.n	200084ec <vEventGroupSetBitsCallback+0x3c>
2000851a:	001f      	movs	r7, r3
2000851c:	400f      	ands	r7, r1
2000851e:	42bb      	cmp	r3, r7
20008520:	d0e6      	beq.n	200084f0 <vEventGroupSetBitsCallback+0x40>
20008522:	42a6      	cmp	r6, r4
20008524:	d1f1      	bne.n	2000850a <vEventGroupSetBitsCallback+0x5a>
20008526:	4643      	mov	r3, r8
20008528:	4399      	bics	r1, r3
2000852a:	6029      	str	r1, [r5, #0]
2000852c:	f001 f854 	bl	200095d8 <xTaskResumeAll>
20008530:	bcf0      	pop	{r4, r5, r6, r7}
20008532:	46bb      	mov	fp, r7
20008534:	46b2      	mov	sl, r6
20008536:	46a9      	mov	r9, r5
20008538:	46a0      	mov	r8, r4
2000853a:	bdf8      	pop	{r3, r4, r5, r6, r7, pc}

2000853c <xEventGroupCreate>:
2000853c:	b510      	push	{r4, lr}
2000853e:	201c      	movs	r0, #28
20008540:	f001 fde6 	bl	2000a110 <pvPortMalloc>
20008544:	1e04      	subs	r4, r0, #0
20008546:	d003      	beq.n	20008550 <xEventGroupCreate+0x14>
20008548:	2300      	movs	r3, #0
2000854a:	c008      	stmia	r0!, {r3}
2000854c:	f000 f8b0 	bl	200086b0 <vListInitialise>
20008550:	0020      	movs	r0, r4
20008552:	bd10      	pop	{r4, pc}

20008554 <xEventGroupWaitBits>:
20008554:	b5f0      	push	{r4, r5, r6, r7, lr}
20008556:	46c6      	mov	lr, r8
20008558:	0006      	movs	r6, r0
2000855a:	b500      	push	{lr}
2000855c:	000d      	movs	r5, r1
2000855e:	4690      	mov	r8, r2
20008560:	001f      	movs	r7, r3
20008562:	f000 ff3d 	bl	200093e0 <vTaskSuspendAll>
20008566:	6834      	ldr	r4, [r6, #0]
20008568:	2f00      	cmp	r7, #0
2000856a:	d10a      	bne.n	20008582 <xEventGroupWaitBits+0x2e>
2000856c:	4225      	tst	r5, r4
2000856e:	d00c      	beq.n	2000858a <xEventGroupWaitBits+0x36>
20008570:	4643      	mov	r3, r8
20008572:	2b00      	cmp	r3, #0
20008574:	d00c      	beq.n	20008590 <xEventGroupWaitBits+0x3c>
20008576:	0023      	movs	r3, r4
20008578:	43ab      	bics	r3, r5
2000857a:	6033      	str	r3, [r6, #0]
2000857c:	f001 f82c 	bl	200095d8 <xTaskResumeAll>
20008580:	e008      	b.n	20008594 <xEventGroupWaitBits+0x40>
20008582:	002b      	movs	r3, r5
20008584:	4023      	ands	r3, r4
20008586:	429d      	cmp	r5, r3
20008588:	d0f2      	beq.n	20008570 <xEventGroupWaitBits+0x1c>
2000858a:	9b06      	ldr	r3, [sp, #24]
2000858c:	2b00      	cmp	r3, #0
2000858e:	d105      	bne.n	2000859c <xEventGroupWaitBits+0x48>
20008590:	f001 f822 	bl	200095d8 <xTaskResumeAll>
20008594:	0020      	movs	r0, r4
20008596:	bc80      	pop	{r7}
20008598:	46b8      	mov	r8, r7
2000859a:	bdf0      	pop	{r4, r5, r6, r7, pc}
2000859c:	4643      	mov	r3, r8
2000859e:	2b00      	cmp	r3, #0
200085a0:	d116      	bne.n	200085d0 <xEventGroupWaitBits+0x7c>
200085a2:	2180      	movs	r1, #128	; 0x80
200085a4:	2300      	movs	r3, #0
200085a6:	04c9      	lsls	r1, r1, #19
200085a8:	2f00      	cmp	r7, #0
200085aa:	d100      	bne.n	200085ae <xEventGroupWaitBits+0x5a>
200085ac:	0019      	movs	r1, r3
200085ae:	9a06      	ldr	r2, [sp, #24]
200085b0:	4329      	orrs	r1, r5
200085b2:	1d30      	adds	r0, r6, #4
200085b4:	f001 f976 	bl	200098a4 <vTaskPlaceOnUnorderedEventList>
200085b8:	f001 f80e 	bl	200095d8 <xTaskResumeAll>
200085bc:	2800      	cmp	r0, #0
200085be:	d01c      	beq.n	200085fa <xEventGroupWaitBits+0xa6>
200085c0:	f001 fb6c 	bl	20009c9c <uxTaskResetEventItemValue>
200085c4:	0004      	movs	r4, r0
200085c6:	0183      	lsls	r3, r0, #6
200085c8:	d507      	bpl.n	200085da <xEventGroupWaitBits+0x86>
200085ca:	0224      	lsls	r4, r4, #8
200085cc:	0a24      	lsrs	r4, r4, #8
200085ce:	e7e1      	b.n	20008594 <xEventGroupWaitBits+0x40>
200085d0:	21a0      	movs	r1, #160	; 0xa0
200085d2:	2380      	movs	r3, #128	; 0x80
200085d4:	04c9      	lsls	r1, r1, #19
200085d6:	045b      	lsls	r3, r3, #17
200085d8:	e7e6      	b.n	200085a8 <xEventGroupWaitBits+0x54>
200085da:	f7ff fdb3 	bl	20008144 <vPortEnterCritical>
200085de:	6834      	ldr	r4, [r6, #0]
200085e0:	2f00      	cmp	r7, #0
200085e2:	d10d      	bne.n	20008600 <xEventGroupWaitBits+0xac>
200085e4:	422c      	tst	r4, r5
200085e6:	d005      	beq.n	200085f4 <xEventGroupWaitBits+0xa0>
200085e8:	4643      	mov	r3, r8
200085ea:	2b00      	cmp	r3, #0
200085ec:	d002      	beq.n	200085f4 <xEventGroupWaitBits+0xa0>
200085ee:	0023      	movs	r3, r4
200085f0:	43ab      	bics	r3, r5
200085f2:	6033      	str	r3, [r6, #0]
200085f4:	f7ff fdb2 	bl	2000815c <vPortExitCritical>
200085f8:	e7e7      	b.n	200085ca <xEventGroupWaitBits+0x76>
200085fa:	f7ff fd97 	bl	2000812c <vPortYield>
200085fe:	e7df      	b.n	200085c0 <xEventGroupWaitBits+0x6c>
20008600:	0023      	movs	r3, r4
20008602:	402b      	ands	r3, r5
20008604:	429d      	cmp	r5, r3
20008606:	d1f5      	bne.n	200085f4 <xEventGroupWaitBits+0xa0>
20008608:	e7ee      	b.n	200085e8 <xEventGroupWaitBits+0x94>
2000860a:	46c0      	nop			; (mov r8, r8)

2000860c <xEventGroupSetBits>:
2000860c:	b5f8      	push	{r3, r4, r5, r6, r7, lr}
2000860e:	46de      	mov	lr, fp
20008610:	4657      	mov	r7, sl
20008612:	464e      	mov	r6, r9
20008614:	4645      	mov	r5, r8
20008616:	b5e0      	push	{r5, r6, r7, lr}
20008618:	0005      	movs	r5, r0
2000861a:	000f      	movs	r7, r1
2000861c:	0006      	movs	r6, r0
2000861e:	f000 fedf 	bl	200093e0 <vTaskSuspendAll>
20008622:	6829      	ldr	r1, [r5, #0]
20008624:	692c      	ldr	r4, [r5, #16]
20008626:	4339      	orrs	r1, r7
20008628:	360c      	adds	r6, #12
2000862a:	6029      	str	r1, [r5, #0]
2000862c:	42a6      	cmp	r6, r4
2000862e:	d02a      	beq.n	20008686 <xEventGroupSetBits+0x7a>
20008630:	2300      	movs	r3, #0
20008632:	4698      	mov	r8, r3
20008634:	2380      	movs	r3, #128	; 0x80
20008636:	04db      	lsls	r3, r3, #19
20008638:	469b      	mov	fp, r3
2000863a:	2380      	movs	r3, #128	; 0x80
2000863c:	045b      	lsls	r3, r3, #17
2000863e:	469a      	mov	sl, r3
20008640:	2380      	movs	r3, #128	; 0x80
20008642:	049b      	lsls	r3, r3, #18
20008644:	4699      	mov	r9, r3
20008646:	e00e      	b.n	20008666 <xEventGroupSetBits+0x5a>
20008648:	4219      	tst	r1, r3
2000864a:	d00a      	beq.n	20008662 <xEventGroupSetBits+0x56>
2000864c:	4657      	mov	r7, sl
2000864e:	423a      	tst	r2, r7
20008650:	d002      	beq.n	20008658 <xEventGroupSetBits+0x4c>
20008652:	4642      	mov	r2, r8
20008654:	431a      	orrs	r2, r3
20008656:	4690      	mov	r8, r2
20008658:	464b      	mov	r3, r9
2000865a:	4319      	orrs	r1, r3
2000865c:	f001 fa4e 	bl	20009afc <vTaskRemoveFromUnorderedEventList>
20008660:	6829      	ldr	r1, [r5, #0]
20008662:	42a6      	cmp	r6, r4
20008664:	d00d      	beq.n	20008682 <xEventGroupSetBits+0x76>
20008666:	0020      	movs	r0, r4
20008668:	465f      	mov	r7, fp
2000866a:	6802      	ldr	r2, [r0, #0]
2000866c:	6864      	ldr	r4, [r4, #4]
2000866e:	0213      	lsls	r3, r2, #8
20008670:	0a1b      	lsrs	r3, r3, #8
20008672:	423a      	tst	r2, r7
20008674:	d0e8      	beq.n	20008648 <xEventGroupSetBits+0x3c>
20008676:	000f      	movs	r7, r1
20008678:	401f      	ands	r7, r3
2000867a:	429f      	cmp	r7, r3
2000867c:	d0e6      	beq.n	2000864c <xEventGroupSetBits+0x40>
2000867e:	42a6      	cmp	r6, r4
20008680:	d1f1      	bne.n	20008666 <xEventGroupSetBits+0x5a>
20008682:	4643      	mov	r3, r8
20008684:	4399      	bics	r1, r3
20008686:	6029      	str	r1, [r5, #0]
20008688:	f000 ffa6 	bl	200095d8 <xTaskResumeAll>
2000868c:	6828      	ldr	r0, [r5, #0]
2000868e:	bcf0      	pop	{r4, r5, r6, r7}
20008690:	46bb      	mov	fp, r7
20008692:	46b2      	mov	sl, r6
20008694:	46a9      	mov	r9, r5
20008696:	46a0      	mov	r8, r4
20008698:	bdf8      	pop	{r3, r4, r5, r6, r7, pc}
2000869a:	46c0      	nop			; (mov r8, r8)

2000869c <xEventGroupSetBitsFromISR>:
2000869c:	b510      	push	{r4, lr}
2000869e:	0013      	movs	r3, r2
200086a0:	000a      	movs	r2, r1
200086a2:	0001      	movs	r1, r0
200086a4:	4801      	ldr	r0, [pc, #4]	; (200086ac <xEventGroupSetBitsFromISR+0x10>)
200086a6:	f001 fcfb 	bl	2000a0a0 <xTimerPendFunctionCallFromISR>
200086aa:	bd10      	pop	{r4, pc}
200086ac:	200084b1 	.word	0x200084b1

200086b0 <vListInitialise>:
200086b0:	0003      	movs	r3, r0
200086b2:	3308      	adds	r3, #8
200086b4:	2201      	movs	r2, #1
200086b6:	6043      	str	r3, [r0, #4]
200086b8:	60c3      	str	r3, [r0, #12]
200086ba:	6103      	str	r3, [r0, #16]
200086bc:	2300      	movs	r3, #0
200086be:	4252      	negs	r2, r2
200086c0:	6082      	str	r2, [r0, #8]
200086c2:	6003      	str	r3, [r0, #0]
200086c4:	4770      	bx	lr
200086c6:	46c0      	nop			; (mov r8, r8)

200086c8 <vListInitialiseItem>:
200086c8:	2300      	movs	r3, #0
200086ca:	6103      	str	r3, [r0, #16]
200086cc:	4770      	bx	lr
200086ce:	46c0      	nop			; (mov r8, r8)

200086d0 <vListInsertEnd>:
200086d0:	6843      	ldr	r3, [r0, #4]
200086d2:	689a      	ldr	r2, [r3, #8]
200086d4:	604b      	str	r3, [r1, #4]
200086d6:	608a      	str	r2, [r1, #8]
200086d8:	689a      	ldr	r2, [r3, #8]
200086da:	6051      	str	r1, [r2, #4]
200086dc:	6099      	str	r1, [r3, #8]
200086de:	6803      	ldr	r3, [r0, #0]
200086e0:	6108      	str	r0, [r1, #16]
200086e2:	3301      	adds	r3, #1
200086e4:	6003      	str	r3, [r0, #0]
200086e6:	4770      	bx	lr

200086e8 <vListInsert>:
200086e8:	0003      	movs	r3, r0
200086ea:	b530      	push	{r4, r5, lr}
200086ec:	680c      	ldr	r4, [r1, #0]
200086ee:	3308      	adds	r3, #8
200086f0:	1c62      	adds	r2, r4, #1
200086f2:	d00d      	beq.n	20008710 <vListInsert+0x28>
200086f4:	001a      	movs	r2, r3
200086f6:	685b      	ldr	r3, [r3, #4]
200086f8:	681d      	ldr	r5, [r3, #0]
200086fa:	42a5      	cmp	r5, r4
200086fc:	d9fa      	bls.n	200086f4 <vListInsert+0xc>
200086fe:	604b      	str	r3, [r1, #4]
20008700:	6099      	str	r1, [r3, #8]
20008702:	6803      	ldr	r3, [r0, #0]
20008704:	608a      	str	r2, [r1, #8]
20008706:	3301      	adds	r3, #1
20008708:	6051      	str	r1, [r2, #4]
2000870a:	6108      	str	r0, [r1, #16]
2000870c:	6003      	str	r3, [r0, #0]
2000870e:	bd30      	pop	{r4, r5, pc}
20008710:	6902      	ldr	r2, [r0, #16]
20008712:	6853      	ldr	r3, [r2, #4]
20008714:	e7f3      	b.n	200086fe <vListInsert+0x16>
20008716:	46c0      	nop			; (mov r8, r8)

20008718 <uxListRemove>:
20008718:	6903      	ldr	r3, [r0, #16]
2000871a:	6841      	ldr	r1, [r0, #4]
2000871c:	6882      	ldr	r2, [r0, #8]
2000871e:	608a      	str	r2, [r1, #8]
20008720:	6051      	str	r1, [r2, #4]
20008722:	6859      	ldr	r1, [r3, #4]
20008724:	4281      	cmp	r1, r0
20008726:	d006      	beq.n	20008736 <uxListRemove+0x1e>
20008728:	2200      	movs	r2, #0
2000872a:	6102      	str	r2, [r0, #16]
2000872c:	681a      	ldr	r2, [r3, #0]
2000872e:	3a01      	subs	r2, #1
20008730:	601a      	str	r2, [r3, #0]
20008732:	6818      	ldr	r0, [r3, #0]
20008734:	4770      	bx	lr
20008736:	605a      	str	r2, [r3, #4]
20008738:	e7f6      	b.n	20008728 <uxListRemove+0x10>
2000873a:	46c0      	nop			; (mov r8, r8)

2000873c <prvUnlockQueue>:
2000873c:	b5f0      	push	{r4, r5, r6, r7, lr}
2000873e:	46de      	mov	lr, fp
20008740:	464e      	mov	r6, r9
20008742:	4657      	mov	r7, sl
20008744:	4645      	mov	r5, r8
20008746:	b5e0      	push	{r5, r6, r7, lr}
20008748:	b085      	sub	sp, #20
2000874a:	0006      	movs	r6, r0
2000874c:	f7ff fcfa 	bl	20008144 <vPortEnterCritical>
20008750:	2345      	movs	r3, #69	; 0x45
20008752:	5cf4      	ldrb	r4, [r6, r3]
20008754:	b264      	sxtb	r4, r4
20008756:	2c00      	cmp	r4, #0
20008758:	dd21      	ble.n	2000879e <prvUnlockQueue+0x62>
2000875a:	3b21      	subs	r3, #33	; 0x21
2000875c:	4699      	mov	r9, r3
2000875e:	3321      	adds	r3, #33	; 0x21
20008760:	469b      	mov	fp, r3
20008762:	44b1      	add	r9, r6
20008764:	e009      	b.n	2000877a <prvUnlockQueue+0x3e>
20008766:	6bab      	ldr	r3, [r5, #56]	; 0x38
20008768:	6bea      	ldr	r2, [r5, #60]	; 0x3c
2000876a:	9603      	str	r6, [sp, #12]
2000876c:	4293      	cmp	r3, r2
2000876e:	d345      	bcc.n	200087fc <prvUnlockQueue+0xc0>
20008770:	3c01      	subs	r4, #1
20008772:	b2e3      	uxtb	r3, r4
20008774:	b264      	sxtb	r4, r4
20008776:	2b00      	cmp	r3, #0
20008778:	d011      	beq.n	2000879e <prvUnlockQueue+0x62>
2000877a:	6cb5      	ldr	r5, [r6, #72]	; 0x48
2000877c:	2d00      	cmp	r5, #0
2000877e:	d1f2      	bne.n	20008766 <prvUnlockQueue+0x2a>
20008780:	6a73      	ldr	r3, [r6, #36]	; 0x24
20008782:	2b00      	cmp	r3, #0
20008784:	d00b      	beq.n	2000879e <prvUnlockQueue+0x62>
20008786:	4648      	mov	r0, r9
20008788:	f001 f94c 	bl	20009a24 <xTaskRemoveFromEventList>
2000878c:	2800      	cmp	r0, #0
2000878e:	d0ef      	beq.n	20008770 <prvUnlockQueue+0x34>
20008790:	f001 fa46 	bl	20009c20 <vTaskMissedYield>
20008794:	3c01      	subs	r4, #1
20008796:	b2e3      	uxtb	r3, r4
20008798:	b264      	sxtb	r4, r4
2000879a:	2b00      	cmp	r3, #0
2000879c:	d1ed      	bne.n	2000877a <prvUnlockQueue+0x3e>
2000879e:	2345      	movs	r3, #69	; 0x45
200087a0:	22ff      	movs	r2, #255	; 0xff
200087a2:	54f2      	strb	r2, [r6, r3]
200087a4:	f7ff fcda 	bl	2000815c <vPortExitCritical>
200087a8:	f7ff fccc 	bl	20008144 <vPortEnterCritical>
200087ac:	2344      	movs	r3, #68	; 0x44
200087ae:	5cf4      	ldrb	r4, [r6, r3]
200087b0:	b264      	sxtb	r4, r4
200087b2:	2c00      	cmp	r4, #0
200087b4:	dd16      	ble.n	200087e4 <prvUnlockQueue+0xa8>
200087b6:	0035      	movs	r5, r6
200087b8:	3510      	adds	r5, #16
200087ba:	e004      	b.n	200087c6 <prvUnlockQueue+0x8a>
200087bc:	3c01      	subs	r4, #1
200087be:	b2e2      	uxtb	r2, r4
200087c0:	b264      	sxtb	r4, r4
200087c2:	2a00      	cmp	r2, #0
200087c4:	d00e      	beq.n	200087e4 <prvUnlockQueue+0xa8>
200087c6:	6933      	ldr	r3, [r6, #16]
200087c8:	2b00      	cmp	r3, #0
200087ca:	d00b      	beq.n	200087e4 <prvUnlockQueue+0xa8>
200087cc:	0028      	movs	r0, r5
200087ce:	f001 f929 	bl	20009a24 <xTaskRemoveFromEventList>
200087d2:	2800      	cmp	r0, #0
200087d4:	d0f2      	beq.n	200087bc <prvUnlockQueue+0x80>
200087d6:	3c01      	subs	r4, #1
200087d8:	f001 fa22 	bl	20009c20 <vTaskMissedYield>
200087dc:	b2e2      	uxtb	r2, r4
200087de:	b264      	sxtb	r4, r4
200087e0:	2a00      	cmp	r2, #0
200087e2:	d1f0      	bne.n	200087c6 <prvUnlockQueue+0x8a>
200087e4:	2344      	movs	r3, #68	; 0x44
200087e6:	22ff      	movs	r2, #255	; 0xff
200087e8:	54f2      	strb	r2, [r6, r3]
200087ea:	f7ff fcb7 	bl	2000815c <vPortExitCritical>
200087ee:	b005      	add	sp, #20
200087f0:	bcf0      	pop	{r4, r5, r6, r7}
200087f2:	46bb      	mov	fp, r7
200087f4:	46b2      	mov	sl, r6
200087f6:	46a9      	mov	r9, r5
200087f8:	46a0      	mov	r8, r4
200087fa:	bdf0      	pop	{r4, r5, r6, r7, pc}
200087fc:	465b      	mov	r3, fp
200087fe:	6c2a      	ldr	r2, [r5, #64]	; 0x40
20008800:	5cef      	ldrb	r7, [r5, r3]
20008802:	6bab      	ldr	r3, [r5, #56]	; 0x38
20008804:	b27f      	sxtb	r7, r7
20008806:	4698      	mov	r8, r3
20008808:	2a00      	cmp	r2, #0
2000880a:	d113      	bne.n	20008834 <prvUnlockQueue+0xf8>
2000880c:	682b      	ldr	r3, [r5, #0]
2000880e:	9301      	str	r3, [sp, #4]
20008810:	2b00      	cmp	r3, #0
20008812:	d030      	beq.n	20008876 <prvUnlockQueue+0x13a>
20008814:	2300      	movs	r3, #0
20008816:	469a      	mov	sl, r3
20008818:	4643      	mov	r3, r8
2000881a:	3301      	adds	r3, #1
2000881c:	63ab      	str	r3, [r5, #56]	; 0x38
2000881e:	1c7b      	adds	r3, r7, #1
20008820:	d117      	bne.n	20008852 <prvUnlockQueue+0x116>
20008822:	6a6b      	ldr	r3, [r5, #36]	; 0x24
20008824:	2b00      	cmp	r3, #0
20008826:	d11d      	bne.n	20008864 <prvUnlockQueue+0x128>
20008828:	4653      	mov	r3, sl
2000882a:	2b00      	cmp	r3, #0
2000882c:	d0a0      	beq.n	20008770 <prvUnlockQueue+0x34>
2000882e:	f001 f9f7 	bl	20009c20 <vTaskMissedYield>
20008832:	e7af      	b.n	20008794 <prvUnlockQueue+0x58>
20008834:	6868      	ldr	r0, [r5, #4]
20008836:	a903      	add	r1, sp, #12
20008838:	f7fd f840 	bl	200058bc <__wrap___aeabi_memcpy>
2000883c:	6c2a      	ldr	r2, [r5, #64]	; 0x40
2000883e:	686b      	ldr	r3, [r5, #4]
20008840:	4694      	mov	ip, r2
20008842:	68aa      	ldr	r2, [r5, #8]
20008844:	4463      	add	r3, ip
20008846:	606b      	str	r3, [r5, #4]
20008848:	4293      	cmp	r3, r2
2000884a:	d3e3      	bcc.n	20008814 <prvUnlockQueue+0xd8>
2000884c:	682b      	ldr	r3, [r5, #0]
2000884e:	606b      	str	r3, [r5, #4]
20008850:	e7e0      	b.n	20008814 <prvUnlockQueue+0xd8>
20008852:	f000 fdd3 	bl	200093fc <uxTaskGetNumberOfTasks>
20008856:	42b8      	cmp	r0, r7
20008858:	d9e6      	bls.n	20008828 <prvUnlockQueue+0xec>
2000885a:	465b      	mov	r3, fp
2000885c:	3701      	adds	r7, #1
2000885e:	b27f      	sxtb	r7, r7
20008860:	54ef      	strb	r7, [r5, r3]
20008862:	e7e1      	b.n	20008828 <prvUnlockQueue+0xec>
20008864:	0028      	movs	r0, r5
20008866:	3024      	adds	r0, #36	; 0x24
20008868:	f001 f8dc 	bl	20009a24 <xTaskRemoveFromEventList>
2000886c:	2800      	cmp	r0, #0
2000886e:	d0db      	beq.n	20008828 <prvUnlockQueue+0xec>
20008870:	f001 f9d6 	bl	20009c20 <vTaskMissedYield>
20008874:	e78e      	b.n	20008794 <prvUnlockQueue+0x58>
20008876:	68a8      	ldr	r0, [r5, #8]
20008878:	f001 f9de 	bl	20009c38 <xTaskPriorityDisinherit>
2000887c:	9b01      	ldr	r3, [sp, #4]
2000887e:	4682      	mov	sl, r0
20008880:	60ab      	str	r3, [r5, #8]
20008882:	e7c9      	b.n	20008818 <prvUnlockQueue+0xdc>

20008884 <prvNotifyQueueSetContainer>:
20008884:	b5f0      	push	{r4, r5, r6, r7, lr}
20008886:	46c6      	mov	lr, r8
20008888:	b500      	push	{lr}
2000888a:	6c84      	ldr	r4, [r0, #72]	; 0x48
2000888c:	b082      	sub	sp, #8
2000888e:	6ba3      	ldr	r3, [r4, #56]	; 0x38
20008890:	6be2      	ldr	r2, [r4, #60]	; 0x3c
20008892:	2500      	movs	r5, #0
20008894:	9001      	str	r0, [sp, #4]
20008896:	4293      	cmp	r3, r2
20008898:	d304      	bcc.n	200088a4 <prvNotifyQueueSetContainer+0x20>
2000889a:	0028      	movs	r0, r5
2000889c:	b002      	add	sp, #8
2000889e:	bc80      	pop	{r7}
200088a0:	46b8      	mov	r8, r7
200088a2:	bdf0      	pop	{r4, r5, r6, r7, pc}
200088a4:	2345      	movs	r3, #69	; 0x45
200088a6:	6c22      	ldr	r2, [r4, #64]	; 0x40
200088a8:	5ce6      	ldrb	r6, [r4, r3]
200088aa:	6ba7      	ldr	r7, [r4, #56]	; 0x38
200088ac:	b276      	sxtb	r6, r6
200088ae:	2a00      	cmp	r2, #0
200088b0:	d01c      	beq.n	200088ec <prvNotifyQueueSetContainer+0x68>
200088b2:	6860      	ldr	r0, [r4, #4]
200088b4:	a901      	add	r1, sp, #4
200088b6:	f7fd f801 	bl	200058bc <__wrap___aeabi_memcpy>
200088ba:	6c22      	ldr	r2, [r4, #64]	; 0x40
200088bc:	6863      	ldr	r3, [r4, #4]
200088be:	4694      	mov	ip, r2
200088c0:	68a2      	ldr	r2, [r4, #8]
200088c2:	4463      	add	r3, ip
200088c4:	6063      	str	r3, [r4, #4]
200088c6:	4293      	cmp	r3, r2
200088c8:	d314      	bcc.n	200088f4 <prvNotifyQueueSetContainer+0x70>
200088ca:	6823      	ldr	r3, [r4, #0]
200088cc:	6063      	str	r3, [r4, #4]
200088ce:	3701      	adds	r7, #1
200088d0:	63a7      	str	r7, [r4, #56]	; 0x38
200088d2:	1c73      	adds	r3, r6, #1
200088d4:	d113      	bne.n	200088fe <prvNotifyQueueSetContainer+0x7a>
200088d6:	6a63      	ldr	r3, [r4, #36]	; 0x24
200088d8:	2b00      	cmp	r3, #0
200088da:	d0de      	beq.n	2000889a <prvNotifyQueueSetContainer+0x16>
200088dc:	0020      	movs	r0, r4
200088de:	3024      	adds	r0, #36	; 0x24
200088e0:	f001 f8a0 	bl	20009a24 <xTaskRemoveFromEventList>
200088e4:	2800      	cmp	r0, #0
200088e6:	d0d8      	beq.n	2000889a <prvNotifyQueueSetContainer+0x16>
200088e8:	2501      	movs	r5, #1
200088ea:	e7d6      	b.n	2000889a <prvNotifyQueueSetContainer+0x16>
200088ec:	6823      	ldr	r3, [r4, #0]
200088ee:	4698      	mov	r8, r3
200088f0:	2b00      	cmp	r3, #0
200088f2:	d00d      	beq.n	20008910 <prvNotifyQueueSetContainer+0x8c>
200088f4:	3701      	adds	r7, #1
200088f6:	2500      	movs	r5, #0
200088f8:	63a7      	str	r7, [r4, #56]	; 0x38
200088fa:	1c73      	adds	r3, r6, #1
200088fc:	d0eb      	beq.n	200088d6 <prvNotifyQueueSetContainer+0x52>
200088fe:	f000 fd7d 	bl	200093fc <uxTaskGetNumberOfTasks>
20008902:	4286      	cmp	r6, r0
20008904:	d2c9      	bcs.n	2000889a <prvNotifyQueueSetContainer+0x16>
20008906:	2345      	movs	r3, #69	; 0x45
20008908:	3601      	adds	r6, #1
2000890a:	b276      	sxtb	r6, r6
2000890c:	54e6      	strb	r6, [r4, r3]
2000890e:	e7c4      	b.n	2000889a <prvNotifyQueueSetContainer+0x16>
20008910:	68a0      	ldr	r0, [r4, #8]
20008912:	f001 f991 	bl	20009c38 <xTaskPriorityDisinherit>
20008916:	4643      	mov	r3, r8
20008918:	0005      	movs	r5, r0
2000891a:	60a3      	str	r3, [r4, #8]
2000891c:	e7d7      	b.n	200088ce <prvNotifyQueueSetContainer+0x4a>
2000891e:	46c0      	nop			; (mov r8, r8)

20008920 <xQueueGenericCreate>:
20008920:	b5f8      	push	{r3, r4, r5, r6, r7, lr}
20008922:	0005      	movs	r5, r0
20008924:	000e      	movs	r6, r1
20008926:	0017      	movs	r7, r2
20008928:	2800      	cmp	r0, #0
2000892a:	d046      	beq.n	200089ba <xQueueGenericCreate+0x9a>
2000892c:	0c0b      	lsrs	r3, r1, #16
2000892e:	0c02      	lsrs	r2, r0, #16
20008930:	2b00      	cmp	r3, #0
20008932:	d134      	bne.n	2000899e <xQueueGenericCreate+0x7e>
20008934:	1c33      	adds	r3, r6, #0
20008936:	2a00      	cmp	r2, #0
20008938:	d135      	bne.n	200089a6 <xQueueGenericCreate+0x86>
2000893a:	0030      	movs	r0, r6
2000893c:	4368      	muls	r0, r5
2000893e:	0003      	movs	r3, r0
20008940:	3355      	adds	r3, #85	; 0x55
20008942:	d83a      	bhi.n	200089ba <xQueueGenericCreate+0x9a>
20008944:	3054      	adds	r0, #84	; 0x54
20008946:	f001 fbe3 	bl	2000a110 <pvPortMalloc>
2000894a:	1e04      	subs	r4, r0, #0
2000894c:	d035      	beq.n	200089ba <xQueueGenericCreate+0x9a>
2000894e:	0003      	movs	r3, r0
20008950:	2e00      	cmp	r6, #0
20008952:	d000      	beq.n	20008956 <xQueueGenericCreate+0x36>
20008954:	3354      	adds	r3, #84	; 0x54
20008956:	6023      	str	r3, [r4, #0]
20008958:	63e5      	str	r5, [r4, #60]	; 0x3c
2000895a:	6426      	str	r6, [r4, #64]	; 0x40
2000895c:	f7ff fbf2 	bl	20008144 <vPortEnterCritical>
20008960:	6c21      	ldr	r1, [r4, #64]	; 0x40
20008962:	6be3      	ldr	r3, [r4, #60]	; 0x3c
20008964:	6822      	ldr	r2, [r4, #0]
20008966:	434b      	muls	r3, r1
20008968:	18d0      	adds	r0, r2, r3
2000896a:	1a5b      	subs	r3, r3, r1
2000896c:	18d3      	adds	r3, r2, r3
2000896e:	6062      	str	r2, [r4, #4]
20008970:	60e3      	str	r3, [r4, #12]
20008972:	2500      	movs	r5, #0
20008974:	23ff      	movs	r3, #255	; 0xff
20008976:	2244      	movs	r2, #68	; 0x44
20008978:	60a0      	str	r0, [r4, #8]
2000897a:	0020      	movs	r0, r4
2000897c:	63a5      	str	r5, [r4, #56]	; 0x38
2000897e:	54a3      	strb	r3, [r4, r2]
20008980:	3201      	adds	r2, #1
20008982:	54a3      	strb	r3, [r4, r2]
20008984:	3010      	adds	r0, #16
20008986:	f7ff fe93 	bl	200086b0 <vListInitialise>
2000898a:	0020      	movs	r0, r4
2000898c:	3024      	adds	r0, #36	; 0x24
2000898e:	f7ff fe8f 	bl	200086b0 <vListInitialise>
20008992:	f7ff fbe3 	bl	2000815c <vPortExitCritical>
20008996:	2350      	movs	r3, #80	; 0x50
20008998:	54e7      	strb	r7, [r4, r3]
2000899a:	64a5      	str	r5, [r4, #72]	; 0x48
2000899c:	e00e      	b.n	200089bc <xQueueGenericCreate+0x9c>
2000899e:	2a00      	cmp	r2, #0
200089a0:	d10b      	bne.n	200089ba <xQueueGenericCreate+0x9a>
200089a2:	1c1a      	adds	r2, r3, #0
200089a4:	1c03      	adds	r3, r0, #0
200089a6:	b2b0      	uxth	r0, r6
200089a8:	b2a9      	uxth	r1, r5
200089aa:	4341      	muls	r1, r0
200089ac:	b298      	uxth	r0, r3
200089ae:	b293      	uxth	r3, r2
200089b0:	4343      	muls	r3, r0
200089b2:	0c09      	lsrs	r1, r1, #16
200089b4:	185b      	adds	r3, r3, r1
200089b6:	0c1b      	lsrs	r3, r3, #16
200089b8:	d0bf      	beq.n	2000893a <xQueueGenericCreate+0x1a>
200089ba:	2400      	movs	r4, #0
200089bc:	0020      	movs	r0, r4
200089be:	bdf8      	pop	{r3, r4, r5, r6, r7, pc}

200089c0 <xQueueGenericSendFromISR>:
200089c0:	b5f8      	push	{r3, r4, r5, r6, r7, lr}
200089c2:	464e      	mov	r6, r9
200089c4:	46de      	mov	lr, fp
200089c6:	4657      	mov	r7, sl
200089c8:	4645      	mov	r5, r8
200089ca:	0004      	movs	r4, r0
200089cc:	b5e0      	push	{r5, r6, r7, lr}
200089ce:	4691      	mov	r9, r2
200089d0:	001d      	movs	r5, r3
200089d2:	000f      	movs	r7, r1
200089d4:	f7ff fbdc 	bl	20008190 <ulSetInterruptMaskFromISR>
200089d8:	6ba3      	ldr	r3, [r4, #56]	; 0x38
200089da:	6be2      	ldr	r2, [r4, #60]	; 0x3c
200089dc:	0006      	movs	r6, r0
200089de:	4293      	cmp	r3, r2
200089e0:	d33a      	bcc.n	20008a58 <xQueueGenericSendFromISR+0x98>
200089e2:	2d02      	cmp	r5, #2
200089e4:	d00a      	beq.n	200089fc <xQueueGenericSendFromISR+0x3c>
200089e6:	2400      	movs	r4, #0
200089e8:	0030      	movs	r0, r6
200089ea:	f7ff fbd5 	bl	20008198 <vClearInterruptMaskFromISR>
200089ee:	0020      	movs	r0, r4
200089f0:	bcf0      	pop	{r4, r5, r6, r7}
200089f2:	46bb      	mov	fp, r7
200089f4:	46b2      	mov	sl, r6
200089f6:	46a9      	mov	r9, r5
200089f8:	46a0      	mov	r8, r4
200089fa:	bdf8      	pop	{r3, r4, r5, r6, r7, pc}
200089fc:	2345      	movs	r3, #69	; 0x45
200089fe:	5ce3      	ldrb	r3, [r4, r3]
20008a00:	6c22      	ldr	r2, [r4, #64]	; 0x40
20008a02:	b25b      	sxtb	r3, r3
20008a04:	4698      	mov	r8, r3
20008a06:	6ba3      	ldr	r3, [r4, #56]	; 0x38
20008a08:	469b      	mov	fp, r3
20008a0a:	6ba3      	ldr	r3, [r4, #56]	; 0x38
20008a0c:	469a      	mov	sl, r3
20008a0e:	2a00      	cmp	r2, #0
20008a10:	d02d      	beq.n	20008a6e <xQueueGenericSendFromISR+0xae>
20008a12:	0039      	movs	r1, r7
20008a14:	68e0      	ldr	r0, [r4, #12]
20008a16:	f7fc ff51 	bl	200058bc <__wrap___aeabi_memcpy>
20008a1a:	68e1      	ldr	r1, [r4, #12]
20008a1c:	6c23      	ldr	r3, [r4, #64]	; 0x40
20008a1e:	425a      	negs	r2, r3
20008a20:	1acb      	subs	r3, r1, r3
20008a22:	6821      	ldr	r1, [r4, #0]
20008a24:	60e3      	str	r3, [r4, #12]
20008a26:	428b      	cmp	r3, r1
20008a28:	d203      	bcs.n	20008a32 <xQueueGenericSendFromISR+0x72>
20008a2a:	68a3      	ldr	r3, [r4, #8]
20008a2c:	469c      	mov	ip, r3
20008a2e:	4462      	add	r2, ip
20008a30:	60e2      	str	r2, [r4, #12]
20008a32:	4653      	mov	r3, sl
20008a34:	2d02      	cmp	r5, #2
20008a36:	d054      	beq.n	20008ae2 <xQueueGenericSendFromISR+0x122>
20008a38:	3301      	adds	r3, #1
20008a3a:	63a3      	str	r3, [r4, #56]	; 0x38
20008a3c:	4643      	mov	r3, r8
20008a3e:	3301      	adds	r3, #1
20008a40:	d01e      	beq.n	20008a80 <xQueueGenericSendFromISR+0xc0>
20008a42:	f000 fcdb 	bl	200093fc <uxTaskGetNumberOfTasks>
20008a46:	4580      	cmp	r8, r0
20008a48:	d22d      	bcs.n	20008aa6 <xQueueGenericSendFromISR+0xe6>
20008a4a:	4643      	mov	r3, r8
20008a4c:	2245      	movs	r2, #69	; 0x45
20008a4e:	3301      	adds	r3, #1
20008a50:	b25b      	sxtb	r3, r3
20008a52:	54a3      	strb	r3, [r4, r2]
20008a54:	2401      	movs	r4, #1
20008a56:	e7c7      	b.n	200089e8 <xQueueGenericSendFromISR+0x28>
20008a58:	2345      	movs	r3, #69	; 0x45
20008a5a:	5ce3      	ldrb	r3, [r4, r3]
20008a5c:	6c22      	ldr	r2, [r4, #64]	; 0x40
20008a5e:	b25b      	sxtb	r3, r3
20008a60:	4698      	mov	r8, r3
20008a62:	6ba3      	ldr	r3, [r4, #56]	; 0x38
20008a64:	469b      	mov	fp, r3
20008a66:	6ba3      	ldr	r3, [r4, #56]	; 0x38
20008a68:	469a      	mov	sl, r3
20008a6a:	2a00      	cmp	r2, #0
20008a6c:	d11d      	bne.n	20008aaa <xQueueGenericSendFromISR+0xea>
20008a6e:	6827      	ldr	r7, [r4, #0]
20008a70:	2f00      	cmp	r7, #0
20008a72:	d03a      	beq.n	20008aea <xQueueGenericSendFromISR+0x12a>
20008a74:	4653      	mov	r3, sl
20008a76:	3301      	adds	r3, #1
20008a78:	63a3      	str	r3, [r4, #56]	; 0x38
20008a7a:	4643      	mov	r3, r8
20008a7c:	3301      	adds	r3, #1
20008a7e:	d1e0      	bne.n	20008a42 <xQueueGenericSendFromISR+0x82>
20008a80:	6ca3      	ldr	r3, [r4, #72]	; 0x48
20008a82:	2b00      	cmp	r3, #0
20008a84:	d022      	beq.n	20008acc <xQueueGenericSendFromISR+0x10c>
20008a86:	2d02      	cmp	r5, #2
20008a88:	d102      	bne.n	20008a90 <xQueueGenericSendFromISR+0xd0>
20008a8a:	465b      	mov	r3, fp
20008a8c:	2b00      	cmp	r3, #0
20008a8e:	d10a      	bne.n	20008aa6 <xQueueGenericSendFromISR+0xe6>
20008a90:	0020      	movs	r0, r4
20008a92:	f7ff fef7 	bl	20008884 <prvNotifyQueueSetContainer>
20008a96:	2800      	cmp	r0, #0
20008a98:	d005      	beq.n	20008aa6 <xQueueGenericSendFromISR+0xe6>
20008a9a:	464b      	mov	r3, r9
20008a9c:	2b00      	cmp	r3, #0
20008a9e:	d002      	beq.n	20008aa6 <xQueueGenericSendFromISR+0xe6>
20008aa0:	2301      	movs	r3, #1
20008aa2:	464a      	mov	r2, r9
20008aa4:	6013      	str	r3, [r2, #0]
20008aa6:	2401      	movs	r4, #1
20008aa8:	e79e      	b.n	200089e8 <xQueueGenericSendFromISR+0x28>
20008aaa:	2d00      	cmp	r5, #0
20008aac:	d1b1      	bne.n	20008a12 <xQueueGenericSendFromISR+0x52>
20008aae:	0039      	movs	r1, r7
20008ab0:	6860      	ldr	r0, [r4, #4]
20008ab2:	f7fc ff03 	bl	200058bc <__wrap___aeabi_memcpy>
20008ab6:	6c22      	ldr	r2, [r4, #64]	; 0x40
20008ab8:	6863      	ldr	r3, [r4, #4]
20008aba:	4694      	mov	ip, r2
20008abc:	68a2      	ldr	r2, [r4, #8]
20008abe:	4463      	add	r3, ip
20008ac0:	6063      	str	r3, [r4, #4]
20008ac2:	4293      	cmp	r3, r2
20008ac4:	d3d6      	bcc.n	20008a74 <xQueueGenericSendFromISR+0xb4>
20008ac6:	6823      	ldr	r3, [r4, #0]
20008ac8:	6063      	str	r3, [r4, #4]
20008aca:	e7d3      	b.n	20008a74 <xQueueGenericSendFromISR+0xb4>
20008acc:	6a63      	ldr	r3, [r4, #36]	; 0x24
20008ace:	2b00      	cmp	r3, #0
20008ad0:	d0e9      	beq.n	20008aa6 <xQueueGenericSendFromISR+0xe6>
20008ad2:	0020      	movs	r0, r4
20008ad4:	3024      	adds	r0, #36	; 0x24
20008ad6:	f000 ffa5 	bl	20009a24 <xTaskRemoveFromEventList>
20008ada:	2800      	cmp	r0, #0
20008adc:	d1dd      	bne.n	20008a9a <xQueueGenericSendFromISR+0xda>
20008ade:	2401      	movs	r4, #1
20008ae0:	e782      	b.n	200089e8 <xQueueGenericSendFromISR+0x28>
20008ae2:	2b00      	cmp	r3, #0
20008ae4:	d1c8      	bne.n	20008a78 <xQueueGenericSendFromISR+0xb8>
20008ae6:	3301      	adds	r3, #1
20008ae8:	e7a7      	b.n	20008a3a <xQueueGenericSendFromISR+0x7a>
20008aea:	68a0      	ldr	r0, [r4, #8]
20008aec:	f001 f8a4 	bl	20009c38 <xTaskPriorityDisinherit>
20008af0:	4653      	mov	r3, sl
20008af2:	60a7      	str	r7, [r4, #8]
20008af4:	3301      	adds	r3, #1
20008af6:	e7bf      	b.n	20008a78 <xQueueGenericSendFromISR+0xb8>

20008af8 <xQueueReceive>:
20008af8:	b5f0      	push	{r4, r5, r6, r7, lr}
20008afa:	4647      	mov	r7, r8
20008afc:	46ce      	mov	lr, r9
20008afe:	0004      	movs	r4, r0
20008b00:	b580      	push	{r7, lr}
20008b02:	b085      	sub	sp, #20
20008b04:	4688      	mov	r8, r1
20008b06:	9201      	str	r2, [sp, #4]
20008b08:	f7ff fb1c 	bl	20008144 <vPortEnterCritical>
20008b0c:	6ba7      	ldr	r7, [r4, #56]	; 0x38
20008b0e:	2f00      	cmp	r7, #0
20008b10:	d15e      	bne.n	20008bd0 <xQueueReceive+0xd8>
20008b12:	9b01      	ldr	r3, [sp, #4]
20008b14:	2b00      	cmp	r3, #0
20008b16:	d03b      	beq.n	20008b90 <xQueueReceive+0x98>
20008b18:	a802      	add	r0, sp, #8
20008b1a:	f001 f83b 	bl	20009b94 <vTaskInternalSetTimeOutState>
20008b1e:	2300      	movs	r3, #0
20008b20:	2644      	movs	r6, #68	; 0x44
20008b22:	4699      	mov	r9, r3
20008b24:	2545      	movs	r5, #69	; 0x45
20008b26:	f7ff fb19 	bl	2000815c <vPortExitCritical>
20008b2a:	f000 fc59 	bl	200093e0 <vTaskSuspendAll>
20008b2e:	f7ff fb09 	bl	20008144 <vPortEnterCritical>
20008b32:	5da3      	ldrb	r3, [r4, r6]
20008b34:	b25b      	sxtb	r3, r3
20008b36:	3301      	adds	r3, #1
20008b38:	d101      	bne.n	20008b3e <xQueueReceive+0x46>
20008b3a:	464b      	mov	r3, r9
20008b3c:	55a3      	strb	r3, [r4, r6]
20008b3e:	5d63      	ldrb	r3, [r4, r5]
20008b40:	b25b      	sxtb	r3, r3
20008b42:	3301      	adds	r3, #1
20008b44:	d101      	bne.n	20008b4a <xQueueReceive+0x52>
20008b46:	464b      	mov	r3, r9
20008b48:	5563      	strb	r3, [r4, r5]
20008b4a:	f7ff fb07 	bl	2000815c <vPortExitCritical>
20008b4e:	a901      	add	r1, sp, #4
20008b50:	a802      	add	r0, sp, #8
20008b52:	f001 f82b 	bl	20009bac <xTaskCheckForTimeOut>
20008b56:	2800      	cmp	r0, #0
20008b58:	d122      	bne.n	20008ba0 <xQueueReceive+0xa8>
20008b5a:	f7ff faf3 	bl	20008144 <vPortEnterCritical>
20008b5e:	6ba3      	ldr	r3, [r4, #56]	; 0x38
20008b60:	2b00      	cmp	r3, #0
20008b62:	d12a      	bne.n	20008bba <xQueueReceive+0xc2>
20008b64:	f7ff fafa 	bl	2000815c <vPortExitCritical>
20008b68:	0020      	movs	r0, r4
20008b6a:	9901      	ldr	r1, [sp, #4]
20008b6c:	3024      	adds	r0, #36	; 0x24
20008b6e:	f000 fe4d 	bl	2000980c <vTaskPlaceOnEventList>
20008b72:	0020      	movs	r0, r4
20008b74:	f7ff fde2 	bl	2000873c <prvUnlockQueue>
20008b78:	f000 fd2e 	bl	200095d8 <xTaskResumeAll>
20008b7c:	2800      	cmp	r0, #0
20008b7e:	d024      	beq.n	20008bca <xQueueReceive+0xd2>
20008b80:	f7ff fae0 	bl	20008144 <vPortEnterCritical>
20008b84:	6ba7      	ldr	r7, [r4, #56]	; 0x38
20008b86:	2f00      	cmp	r7, #0
20008b88:	d122      	bne.n	20008bd0 <xQueueReceive+0xd8>
20008b8a:	9b01      	ldr	r3, [sp, #4]
20008b8c:	2b00      	cmp	r3, #0
20008b8e:	d1ca      	bne.n	20008b26 <xQueueReceive+0x2e>
20008b90:	f7ff fae4 	bl	2000815c <vPortExitCritical>
20008b94:	2000      	movs	r0, #0
20008b96:	b005      	add	sp, #20
20008b98:	bcc0      	pop	{r6, r7}
20008b9a:	46b9      	mov	r9, r7
20008b9c:	46b0      	mov	r8, r6
20008b9e:	bdf0      	pop	{r4, r5, r6, r7, pc}
20008ba0:	0020      	movs	r0, r4
20008ba2:	f7ff fdcb 	bl	2000873c <prvUnlockQueue>
20008ba6:	f000 fd17 	bl	200095d8 <xTaskResumeAll>
20008baa:	f7ff facb 	bl	20008144 <vPortEnterCritical>
20008bae:	6ba3      	ldr	r3, [r4, #56]	; 0x38
20008bb0:	2b00      	cmp	r3, #0
20008bb2:	d0ed      	beq.n	20008b90 <xQueueReceive+0x98>
20008bb4:	f7ff fad2 	bl	2000815c <vPortExitCritical>
20008bb8:	e7e2      	b.n	20008b80 <xQueueReceive+0x88>
20008bba:	f7ff facf 	bl	2000815c <vPortExitCritical>
20008bbe:	0020      	movs	r0, r4
20008bc0:	f7ff fdbc 	bl	2000873c <prvUnlockQueue>
20008bc4:	f000 fd08 	bl	200095d8 <xTaskResumeAll>
20008bc8:	e7da      	b.n	20008b80 <xQueueReceive+0x88>
20008bca:	f7ff faaf 	bl	2000812c <vPortYield>
20008bce:	e7d7      	b.n	20008b80 <xQueueReceive+0x88>
20008bd0:	6c22      	ldr	r2, [r4, #64]	; 0x40
20008bd2:	2a00      	cmp	r2, #0
20008bd4:	d008      	beq.n	20008be8 <xQueueReceive+0xf0>
20008bd6:	68e3      	ldr	r3, [r4, #12]
20008bd8:	1899      	adds	r1, r3, r2
20008bda:	68a3      	ldr	r3, [r4, #8]
20008bdc:	60e1      	str	r1, [r4, #12]
20008bde:	4299      	cmp	r1, r3
20008be0:	d20b      	bcs.n	20008bfa <xQueueReceive+0x102>
20008be2:	4640      	mov	r0, r8
20008be4:	f7fc fe6a 	bl	200058bc <__wrap___aeabi_memcpy>
20008be8:	3f01      	subs	r7, #1
20008bea:	63a7      	str	r7, [r4, #56]	; 0x38
20008bec:	6923      	ldr	r3, [r4, #16]
20008bee:	2b00      	cmp	r3, #0
20008bf0:	d106      	bne.n	20008c00 <xQueueReceive+0x108>
20008bf2:	f7ff fab3 	bl	2000815c <vPortExitCritical>
20008bf6:	2001      	movs	r0, #1
20008bf8:	e7cd      	b.n	20008b96 <xQueueReceive+0x9e>
20008bfa:	6821      	ldr	r1, [r4, #0]
20008bfc:	60e1      	str	r1, [r4, #12]
20008bfe:	e7f0      	b.n	20008be2 <xQueueReceive+0xea>
20008c00:	0020      	movs	r0, r4
20008c02:	3010      	adds	r0, #16
20008c04:	f000 ff0e 	bl	20009a24 <xTaskRemoveFromEventList>
20008c08:	2800      	cmp	r0, #0
20008c0a:	d0f2      	beq.n	20008bf2 <xQueueReceive+0xfa>
20008c0c:	f7ff fa8e 	bl	2000812c <vPortYield>
20008c10:	e7ef      	b.n	20008bf2 <xQueueReceive+0xfa>
20008c12:	46c0      	nop			; (mov r8, r8)

20008c14 <vQueueAddToRegistry>:
20008c14:	b570      	push	{r4, r5, r6, lr}
20008c16:	2900      	cmp	r1, #0
20008c18:	d00e      	beq.n	20008c38 <vQueueAddToRegistry+0x24>
20008c1a:	2600      	movs	r6, #0
20008c1c:	2300      	movs	r3, #0
20008c1e:	4d37      	ldr	r5, [pc, #220]	; (20008cfc <vQueueAddToRegistry+0xe8>)
20008c20:	00da      	lsls	r2, r3, #3
20008c22:	18ac      	adds	r4, r5, r2
20008c24:	6864      	ldr	r4, [r4, #4]
20008c26:	4284      	cmp	r4, r0
20008c28:	d059      	beq.n	20008cde <vQueueAddToRegistry+0xca>
20008c2a:	2e00      	cmp	r6, #0
20008c2c:	d005      	beq.n	20008c3a <vQueueAddToRegistry+0x26>
20008c2e:	3301      	adds	r3, #1
20008c30:	2b08      	cmp	r3, #8
20008c32:	d1f5      	bne.n	20008c20 <vQueueAddToRegistry+0xc>
20008c34:	6031      	str	r1, [r6, #0]
20008c36:	6070      	str	r0, [r6, #4]
20008c38:	bd70      	pop	{r4, r5, r6, pc}
20008c3a:	58ac      	ldr	r4, [r5, r2]
20008c3c:	2c00      	cmp	r4, #0
20008c3e:	d04b      	beq.n	20008cd8 <vQueueAddToRegistry+0xc4>
20008c40:	1c5c      	adds	r4, r3, #1
20008c42:	2b07      	cmp	r3, #7
20008c44:	d0f8      	beq.n	20008c38 <vQueueAddToRegistry+0x24>
20008c46:	00e2      	lsls	r2, r4, #3
20008c48:	18ae      	adds	r6, r5, r2
20008c4a:	6876      	ldr	r6, [r6, #4]
20008c4c:	42b0      	cmp	r0, r6
20008c4e:	d046      	beq.n	20008cde <vQueueAddToRegistry+0xca>
20008c50:	58ae      	ldr	r6, [r5, r2]
20008c52:	2e00      	cmp	r6, #0
20008c54:	d047      	beq.n	20008ce6 <vQueueAddToRegistry+0xd2>
20008c56:	1c9c      	adds	r4, r3, #2
20008c58:	2b06      	cmp	r3, #6
20008c5a:	d0ed      	beq.n	20008c38 <vQueueAddToRegistry+0x24>
20008c5c:	00e2      	lsls	r2, r4, #3
20008c5e:	18ae      	adds	r6, r5, r2
20008c60:	6876      	ldr	r6, [r6, #4]
20008c62:	42b0      	cmp	r0, r6
20008c64:	d03b      	beq.n	20008cde <vQueueAddToRegistry+0xca>
20008c66:	58ae      	ldr	r6, [r5, r2]
20008c68:	2e00      	cmp	r6, #0
20008c6a:	d03c      	beq.n	20008ce6 <vQueueAddToRegistry+0xd2>
20008c6c:	1cdc      	adds	r4, r3, #3
20008c6e:	2b05      	cmp	r3, #5
20008c70:	d0e2      	beq.n	20008c38 <vQueueAddToRegistry+0x24>
20008c72:	00e2      	lsls	r2, r4, #3
20008c74:	18ae      	adds	r6, r5, r2
20008c76:	6876      	ldr	r6, [r6, #4]
20008c78:	4286      	cmp	r6, r0
20008c7a:	d030      	beq.n	20008cde <vQueueAddToRegistry+0xca>
20008c7c:	58ae      	ldr	r6, [r5, r2]
20008c7e:	2e00      	cmp	r6, #0
20008c80:	d031      	beq.n	20008ce6 <vQueueAddToRegistry+0xd2>
20008c82:	1d1c      	adds	r4, r3, #4
20008c84:	2b04      	cmp	r3, #4
20008c86:	d0d7      	beq.n	20008c38 <vQueueAddToRegistry+0x24>
20008c88:	00e2      	lsls	r2, r4, #3
20008c8a:	18ae      	adds	r6, r5, r2
20008c8c:	6876      	ldr	r6, [r6, #4]
20008c8e:	42b0      	cmp	r0, r6
20008c90:	d025      	beq.n	20008cde <vQueueAddToRegistry+0xca>
20008c92:	58ae      	ldr	r6, [r5, r2]
20008c94:	2e00      	cmp	r6, #0
20008c96:	d026      	beq.n	20008ce6 <vQueueAddToRegistry+0xd2>
20008c98:	1d5c      	adds	r4, r3, #5
20008c9a:	2b03      	cmp	r3, #3
20008c9c:	d0cc      	beq.n	20008c38 <vQueueAddToRegistry+0x24>
20008c9e:	00e2      	lsls	r2, r4, #3
20008ca0:	18ae      	adds	r6, r5, r2
20008ca2:	6876      	ldr	r6, [r6, #4]
20008ca4:	42b0      	cmp	r0, r6
20008ca6:	d01a      	beq.n	20008cde <vQueueAddToRegistry+0xca>
20008ca8:	58ae      	ldr	r6, [r5, r2]
20008caa:	2e00      	cmp	r6, #0
20008cac:	d01b      	beq.n	20008ce6 <vQueueAddToRegistry+0xd2>
20008cae:	1d9a      	adds	r2, r3, #6
20008cb0:	2b02      	cmp	r3, #2
20008cb2:	d0c1      	beq.n	20008c38 <vQueueAddToRegistry+0x24>
20008cb4:	00d4      	lsls	r4, r2, #3
20008cb6:	192e      	adds	r6, r5, r4
20008cb8:	6876      	ldr	r6, [r6, #4]
20008cba:	42b0      	cmp	r0, r6
20008cbc:	d00e      	beq.n	20008cdc <vQueueAddToRegistry+0xc8>
20008cbe:	592c      	ldr	r4, [r5, r4]
20008cc0:	2c00      	cmp	r4, #0
20008cc2:	d013      	beq.n	20008cec <vQueueAddToRegistry+0xd8>
20008cc4:	2b01      	cmp	r3, #1
20008cc6:	d0b7      	beq.n	20008c38 <vQueueAddToRegistry+0x24>
20008cc8:	6beb      	ldr	r3, [r5, #60]	; 0x3c
20008cca:	4298      	cmp	r0, r3
20008ccc:	d012      	beq.n	20008cf4 <vQueueAddToRegistry+0xe0>
20008cce:	6bab      	ldr	r3, [r5, #56]	; 0x38
20008cd0:	2b00      	cmp	r3, #0
20008cd2:	d1b1      	bne.n	20008c38 <vQueueAddToRegistry+0x24>
20008cd4:	2307      	movs	r3, #7
20008cd6:	2238      	movs	r2, #56	; 0x38
20008cd8:	18ae      	adds	r6, r5, r2
20008cda:	e7a8      	b.n	20008c2e <vQueueAddToRegistry+0x1a>
20008cdc:	00d2      	lsls	r2, r2, #3
20008cde:	18ae      	adds	r6, r5, r2
20008ce0:	6031      	str	r1, [r6, #0]
20008ce2:	6070      	str	r0, [r6, #4]
20008ce4:	e7a8      	b.n	20008c38 <vQueueAddToRegistry+0x24>
20008ce6:	0023      	movs	r3, r4
20008ce8:	18ae      	adds	r6, r5, r2
20008cea:	e7a0      	b.n	20008c2e <vQueueAddToRegistry+0x1a>
20008cec:	0013      	movs	r3, r2
20008cee:	00d2      	lsls	r2, r2, #3
20008cf0:	18ae      	adds	r6, r5, r2
20008cf2:	e79c      	b.n	20008c2e <vQueueAddToRegistry+0x1a>
20008cf4:	2238      	movs	r2, #56	; 0x38
20008cf6:	18ae      	adds	r6, r5, r2
20008cf8:	e7f2      	b.n	20008ce0 <vQueueAddToRegistry+0xcc>
20008cfa:	46c0      	nop			; (mov r8, r8)
20008cfc:	2000b880 	.word	0x2000b880

20008d00 <vQueueWaitForMessageRestricted>:
20008d00:	b570      	push	{r4, r5, r6, lr}
20008d02:	0004      	movs	r4, r0
20008d04:	0016      	movs	r6, r2
20008d06:	000d      	movs	r5, r1
20008d08:	f7ff fa1c 	bl	20008144 <vPortEnterCritical>
20008d0c:	2244      	movs	r2, #68	; 0x44
20008d0e:	5ca3      	ldrb	r3, [r4, r2]
20008d10:	b25b      	sxtb	r3, r3
20008d12:	3301      	adds	r3, #1
20008d14:	d101      	bne.n	20008d1a <vQueueWaitForMessageRestricted+0x1a>
20008d16:	2300      	movs	r3, #0
20008d18:	54a3      	strb	r3, [r4, r2]
20008d1a:	2245      	movs	r2, #69	; 0x45
20008d1c:	5ca3      	ldrb	r3, [r4, r2]
20008d1e:	b25b      	sxtb	r3, r3
20008d20:	3301      	adds	r3, #1
20008d22:	d101      	bne.n	20008d28 <vQueueWaitForMessageRestricted+0x28>
20008d24:	2300      	movs	r3, #0
20008d26:	54a3      	strb	r3, [r4, r2]
20008d28:	f7ff fa18 	bl	2000815c <vPortExitCritical>
20008d2c:	6ba3      	ldr	r3, [r4, #56]	; 0x38
20008d2e:	2b00      	cmp	r3, #0
20008d30:	d003      	beq.n	20008d3a <vQueueWaitForMessageRestricted+0x3a>
20008d32:	0020      	movs	r0, r4
20008d34:	f7ff fd02 	bl	2000873c <prvUnlockQueue>
20008d38:	bd70      	pop	{r4, r5, r6, pc}
20008d3a:	0020      	movs	r0, r4
20008d3c:	0032      	movs	r2, r6
20008d3e:	0029      	movs	r1, r5
20008d40:	3024      	adds	r0, #36	; 0x24
20008d42:	f000 fe0d 	bl	20009960 <vTaskPlaceOnEventListRestricted>
20008d46:	e7f4      	b.n	20008d32 <vQueueWaitForMessageRestricted+0x32>

20008d48 <prvIdleTask>:
20008d48:	b5f0      	push	{r4, r5, r6, r7, lr}
20008d4a:	46c6      	mov	lr, r8
20008d4c:	4b12      	ldr	r3, [pc, #72]	; (20008d98 <prvIdleTask+0x50>)
20008d4e:	b500      	push	{lr}
20008d50:	4698      	mov	r8, r3
20008d52:	4d12      	ldr	r5, [pc, #72]	; (20008d9c <prvIdleTask+0x54>)
20008d54:	4f12      	ldr	r7, [pc, #72]	; (20008da0 <prvIdleTask+0x58>)
20008d56:	4e13      	ldr	r6, [pc, #76]	; (20008da4 <prvIdleTask+0x5c>)
20008d58:	e014      	b.n	20008d84 <prvIdleTask+0x3c>
20008d5a:	f7ff f9f3 	bl	20008144 <vPortEnterCritical>
20008d5e:	68fb      	ldr	r3, [r7, #12]
20008d60:	68dc      	ldr	r4, [r3, #12]
20008d62:	1d20      	adds	r0, r4, #4
20008d64:	f7ff fcd8 	bl	20008718 <uxListRemove>
20008d68:	6833      	ldr	r3, [r6, #0]
20008d6a:	3b01      	subs	r3, #1
20008d6c:	6033      	str	r3, [r6, #0]
20008d6e:	682b      	ldr	r3, [r5, #0]
20008d70:	3b01      	subs	r3, #1
20008d72:	602b      	str	r3, [r5, #0]
20008d74:	f7ff f9f2 	bl	2000815c <vPortExitCritical>
20008d78:	6b20      	ldr	r0, [r4, #48]	; 0x30
20008d7a:	f001 fa09 	bl	2000a190 <vPortFree>
20008d7e:	0020      	movs	r0, r4
20008d80:	f001 fa06 	bl	2000a190 <vPortFree>
20008d84:	682b      	ldr	r3, [r5, #0]
20008d86:	2b00      	cmp	r3, #0
20008d88:	d1e7      	bne.n	20008d5a <prvIdleTask+0x12>
20008d8a:	4643      	mov	r3, r8
20008d8c:	681b      	ldr	r3, [r3, #0]
20008d8e:	2b01      	cmp	r3, #1
20008d90:	d9f8      	bls.n	20008d84 <prvIdleTask+0x3c>
20008d92:	f7ff f9cb 	bl	2000812c <vPortYield>
20008d96:	e7f5      	b.n	20008d84 <prvIdleTask+0x3c>
20008d98:	20011518 	.word	0x20011518
20008d9c:	200217f8 	.word	0x200217f8
20008da0:	200218a0 	.word	0x200218a0
20008da4:	200217f4 	.word	0x200217f4

20008da8 <vTaskSwitchContext.part.0>:
20008da8:	2200      	movs	r2, #0
20008daa:	4b1a      	ldr	r3, [pc, #104]	; (20008e14 <vTaskSwitchContext.part.0+0x6c>)
20008dac:	b570      	push	{r4, r5, r6, lr}
20008dae:	4c1a      	ldr	r4, [pc, #104]	; (20008e18 <vTaskSwitchContext.part.0+0x70>)
20008db0:	601a      	str	r2, [r3, #0]
20008db2:	6823      	ldr	r3, [r4, #0]
20008db4:	4919      	ldr	r1, [pc, #100]	; (20008e1c <vTaskSwitchContext.part.0+0x74>)
20008db6:	6b1b      	ldr	r3, [r3, #48]	; 0x30
20008db8:	681a      	ldr	r2, [r3, #0]
20008dba:	428a      	cmp	r2, r1
20008dbc:	d102      	bne.n	20008dc4 <vTaskSwitchContext.part.0+0x1c>
20008dbe:	6859      	ldr	r1, [r3, #4]
20008dc0:	4291      	cmp	r1, r2
20008dc2:	d020      	beq.n	20008e06 <vTaskSwitchContext.part.0+0x5e>
20008dc4:	6820      	ldr	r0, [r4, #0]
20008dc6:	6821      	ldr	r1, [r4, #0]
20008dc8:	3134      	adds	r1, #52	; 0x34
20008dca:	f7f9 fdc7 	bl	2000295c <vApplicationStackOverflowHook>
20008dce:	4d14      	ldr	r5, [pc, #80]	; (20008e20 <vTaskSwitchContext.part.0+0x78>)
20008dd0:	4814      	ldr	r0, [pc, #80]	; (20008e24 <vTaskSwitchContext.part.0+0x7c>)
20008dd2:	682b      	ldr	r3, [r5, #0]
20008dd4:	e000      	b.n	20008dd8 <vTaskSwitchContext.part.0+0x30>
20008dd6:	3b01      	subs	r3, #1
20008dd8:	0099      	lsls	r1, r3, #2
20008dda:	18ca      	adds	r2, r1, r3
20008ddc:	0092      	lsls	r2, r2, #2
20008dde:	5882      	ldr	r2, [r0, r2]
20008de0:	2a00      	cmp	r2, #0
20008de2:	d0f8      	beq.n	20008dd6 <vTaskSwitchContext.part.0+0x2e>
20008de4:	18c9      	adds	r1, r1, r3
20008de6:	0089      	lsls	r1, r1, #2
20008de8:	1846      	adds	r6, r0, r1
20008dea:	6872      	ldr	r2, [r6, #4]
20008dec:	3108      	adds	r1, #8
20008dee:	6852      	ldr	r2, [r2, #4]
20008df0:	1841      	adds	r1, r0, r1
20008df2:	6072      	str	r2, [r6, #4]
20008df4:	428a      	cmp	r2, r1
20008df6:	d003      	beq.n	20008e00 <vTaskSwitchContext.part.0+0x58>
20008df8:	68d2      	ldr	r2, [r2, #12]
20008dfa:	6022      	str	r2, [r4, #0]
20008dfc:	602b      	str	r3, [r5, #0]
20008dfe:	bd70      	pop	{r4, r5, r6, pc}
20008e00:	6852      	ldr	r2, [r2, #4]
20008e02:	6072      	str	r2, [r6, #4]
20008e04:	e7f8      	b.n	20008df8 <vTaskSwitchContext.part.0+0x50>
20008e06:	689a      	ldr	r2, [r3, #8]
20008e08:	428a      	cmp	r2, r1
20008e0a:	d1db      	bne.n	20008dc4 <vTaskSwitchContext.part.0+0x1c>
20008e0c:	68db      	ldr	r3, [r3, #12]
20008e0e:	4293      	cmp	r3, r2
20008e10:	d1d8      	bne.n	20008dc4 <vTaskSwitchContext.part.0+0x1c>
20008e12:	e7dc      	b.n	20008dce <vTaskSwitchContext.part.0+0x26>
20008e14:	200218c0 	.word	0x200218c0
20008e18:	20011504 	.word	0x20011504
20008e1c:	a5a5a5a5 	.word	0xa5a5a5a5
20008e20:	20021804 	.word	0x20021804
20008e24:	20011518 	.word	0x20011518

20008e28 <xTaskCreate>:
20008e28:	b5f8      	push	{r3, r4, r5, r6, r7, lr}
20008e2a:	46ce      	mov	lr, r9
20008e2c:	4647      	mov	r7, r8
20008e2e:	0096      	lsls	r6, r2, #2
20008e30:	b580      	push	{r7, lr}
20008e32:	4680      	mov	r8, r0
20008e34:	0030      	movs	r0, r6
20008e36:	000d      	movs	r5, r1
20008e38:	4699      	mov	r9, r3
20008e3a:	f001 f969 	bl	2000a110 <pvPortMalloc>
20008e3e:	1e07      	subs	r7, r0, #0
20008e40:	d100      	bne.n	20008e44 <xTaskCreate+0x1c>
20008e42:	e0ce      	b.n	20008fe2 <xTaskCreate+0x1ba>
20008e44:	2070      	movs	r0, #112	; 0x70
20008e46:	f001 f963 	bl	2000a110 <pvPortMalloc>
20008e4a:	1e04      	subs	r4, r0, #0
20008e4c:	d100      	bne.n	20008e50 <xTaskCreate+0x28>
20008e4e:	e0cf      	b.n	20008ff0 <xTaskCreate+0x1c8>
20008e50:	2270      	movs	r2, #112	; 0x70
20008e52:	2100      	movs	r1, #0
20008e54:	f7fc fd2c 	bl	200058b0 <__wrap_memset>
20008e58:	0032      	movs	r2, r6
20008e5a:	21a5      	movs	r1, #165	; 0xa5
20008e5c:	0038      	movs	r0, r7
20008e5e:	6327      	str	r7, [r4, #48]	; 0x30
20008e60:	f7fc fd26 	bl	200058b0 <__wrap_memset>
20008e64:	6b23      	ldr	r3, [r4, #48]	; 0x30
20008e66:	3e04      	subs	r6, #4
20008e68:	469c      	mov	ip, r3
20008e6a:	2307      	movs	r3, #7
20008e6c:	4466      	add	r6, ip
20008e6e:	439e      	bics	r6, r3
20008e70:	2d00      	cmp	r5, #0
20008e72:	d05f      	beq.n	20008f34 <xTaskCreate+0x10c>
20008e74:	2334      	movs	r3, #52	; 0x34
20008e76:	782a      	ldrb	r2, [r5, #0]
20008e78:	54e2      	strb	r2, [r4, r3]
20008e7a:	782b      	ldrb	r3, [r5, #0]
20008e7c:	2b00      	cmp	r3, #0
20008e7e:	d056      	beq.n	20008f2e <xTaskCreate+0x106>
20008e80:	2335      	movs	r3, #53	; 0x35
20008e82:	786a      	ldrb	r2, [r5, #1]
20008e84:	54e2      	strb	r2, [r4, r3]
20008e86:	786b      	ldrb	r3, [r5, #1]
20008e88:	2b00      	cmp	r3, #0
20008e8a:	d050      	beq.n	20008f2e <xTaskCreate+0x106>
20008e8c:	2336      	movs	r3, #54	; 0x36
20008e8e:	78aa      	ldrb	r2, [r5, #2]
20008e90:	54e2      	strb	r2, [r4, r3]
20008e92:	78ab      	ldrb	r3, [r5, #2]
20008e94:	2b00      	cmp	r3, #0
20008e96:	d04a      	beq.n	20008f2e <xTaskCreate+0x106>
20008e98:	2337      	movs	r3, #55	; 0x37
20008e9a:	78ea      	ldrb	r2, [r5, #3]
20008e9c:	54e2      	strb	r2, [r4, r3]
20008e9e:	78eb      	ldrb	r3, [r5, #3]
20008ea0:	2b00      	cmp	r3, #0
20008ea2:	d044      	beq.n	20008f2e <xTaskCreate+0x106>
20008ea4:	2338      	movs	r3, #56	; 0x38
20008ea6:	792a      	ldrb	r2, [r5, #4]
20008ea8:	54e2      	strb	r2, [r4, r3]
20008eaa:	792b      	ldrb	r3, [r5, #4]
20008eac:	2b00      	cmp	r3, #0
20008eae:	d03e      	beq.n	20008f2e <xTaskCreate+0x106>
20008eb0:	2339      	movs	r3, #57	; 0x39
20008eb2:	796a      	ldrb	r2, [r5, #5]
20008eb4:	54e2      	strb	r2, [r4, r3]
20008eb6:	796b      	ldrb	r3, [r5, #5]
20008eb8:	2b00      	cmp	r3, #0
20008eba:	d038      	beq.n	20008f2e <xTaskCreate+0x106>
20008ebc:	233a      	movs	r3, #58	; 0x3a
20008ebe:	79aa      	ldrb	r2, [r5, #6]
20008ec0:	54e2      	strb	r2, [r4, r3]
20008ec2:	79ab      	ldrb	r3, [r5, #6]
20008ec4:	2b00      	cmp	r3, #0
20008ec6:	d032      	beq.n	20008f2e <xTaskCreate+0x106>
20008ec8:	233b      	movs	r3, #59	; 0x3b
20008eca:	79ea      	ldrb	r2, [r5, #7]
20008ecc:	54e2      	strb	r2, [r4, r3]
20008ece:	79eb      	ldrb	r3, [r5, #7]
20008ed0:	2b00      	cmp	r3, #0
20008ed2:	d02c      	beq.n	20008f2e <xTaskCreate+0x106>
20008ed4:	233c      	movs	r3, #60	; 0x3c
20008ed6:	7a2a      	ldrb	r2, [r5, #8]
20008ed8:	54e2      	strb	r2, [r4, r3]
20008eda:	7a2b      	ldrb	r3, [r5, #8]
20008edc:	2b00      	cmp	r3, #0
20008ede:	d026      	beq.n	20008f2e <xTaskCreate+0x106>
20008ee0:	233d      	movs	r3, #61	; 0x3d
20008ee2:	7a6a      	ldrb	r2, [r5, #9]
20008ee4:	54e2      	strb	r2, [r4, r3]
20008ee6:	7a6b      	ldrb	r3, [r5, #9]
20008ee8:	2b00      	cmp	r3, #0
20008eea:	d020      	beq.n	20008f2e <xTaskCreate+0x106>
20008eec:	233e      	movs	r3, #62	; 0x3e
20008eee:	7aaa      	ldrb	r2, [r5, #10]
20008ef0:	54e2      	strb	r2, [r4, r3]
20008ef2:	7aab      	ldrb	r3, [r5, #10]
20008ef4:	2b00      	cmp	r3, #0
20008ef6:	d01a      	beq.n	20008f2e <xTaskCreate+0x106>
20008ef8:	233f      	movs	r3, #63	; 0x3f
20008efa:	7aea      	ldrb	r2, [r5, #11]
20008efc:	54e2      	strb	r2, [r4, r3]
20008efe:	7aeb      	ldrb	r3, [r5, #11]
20008f00:	2b00      	cmp	r3, #0
20008f02:	d014      	beq.n	20008f2e <xTaskCreate+0x106>
20008f04:	2340      	movs	r3, #64	; 0x40
20008f06:	7b2a      	ldrb	r2, [r5, #12]
20008f08:	54e2      	strb	r2, [r4, r3]
20008f0a:	7b2b      	ldrb	r3, [r5, #12]
20008f0c:	2b00      	cmp	r3, #0
20008f0e:	d00e      	beq.n	20008f2e <xTaskCreate+0x106>
20008f10:	2341      	movs	r3, #65	; 0x41
20008f12:	7b6a      	ldrb	r2, [r5, #13]
20008f14:	54e2      	strb	r2, [r4, r3]
20008f16:	7b6b      	ldrb	r3, [r5, #13]
20008f18:	2b00      	cmp	r3, #0
20008f1a:	d008      	beq.n	20008f2e <xTaskCreate+0x106>
20008f1c:	2342      	movs	r3, #66	; 0x42
20008f1e:	7baa      	ldrb	r2, [r5, #14]
20008f20:	54e2      	strb	r2, [r4, r3]
20008f22:	7bab      	ldrb	r3, [r5, #14]
20008f24:	2b00      	cmp	r3, #0
20008f26:	d002      	beq.n	20008f2e <xTaskCreate+0x106>
20008f28:	2343      	movs	r3, #67	; 0x43
20008f2a:	7bea      	ldrb	r2, [r5, #15]
20008f2c:	54e2      	strb	r2, [r4, r3]
20008f2e:	2343      	movs	r3, #67	; 0x43
20008f30:	2200      	movs	r2, #0
20008f32:	54e2      	strb	r2, [r4, r3]
20008f34:	9d08      	ldr	r5, [sp, #32]
20008f36:	2d1f      	cmp	r5, #31
20008f38:	d860      	bhi.n	20008ffc <xTaskCreate+0x1d4>
20008f3a:	1d27      	adds	r7, r4, #4
20008f3c:	0038      	movs	r0, r7
20008f3e:	62e5      	str	r5, [r4, #44]	; 0x2c
20008f40:	64e5      	str	r5, [r4, #76]	; 0x4c
20008f42:	f7ff fbc1 	bl	200086c8 <vListInitialiseItem>
20008f46:	0020      	movs	r0, r4
20008f48:	3018      	adds	r0, #24
20008f4a:	f7ff fbbd 	bl	200086c8 <vListInitialiseItem>
20008f4e:	2320      	movs	r3, #32
20008f50:	1b5d      	subs	r5, r3, r5
20008f52:	464a      	mov	r2, r9
20008f54:	4641      	mov	r1, r8
20008f56:	0030      	movs	r0, r6
20008f58:	6124      	str	r4, [r4, #16]
20008f5a:	61a5      	str	r5, [r4, #24]
20008f5c:	6264      	str	r4, [r4, #36]	; 0x24
20008f5e:	f7ff f8d5 	bl	2000810c <pxPortInitialiseStack>
20008f62:	9b09      	ldr	r3, [sp, #36]	; 0x24
20008f64:	6020      	str	r0, [r4, #0]
20008f66:	2b00      	cmp	r3, #0
20008f68:	d000      	beq.n	20008f6c <xTaskCreate+0x144>
20008f6a:	601c      	str	r4, [r3, #0]
20008f6c:	f7ff f8ea 	bl	20008144 <vPortEnterCritical>
20008f70:	4a40      	ldr	r2, [pc, #256]	; (20009074 <xTaskCreate+0x24c>)
20008f72:	4e41      	ldr	r6, [pc, #260]	; (20009078 <xTaskCreate+0x250>)
20008f74:	6813      	ldr	r3, [r2, #0]
20008f76:	3301      	adds	r3, #1
20008f78:	6013      	str	r3, [r2, #0]
20008f7a:	6833      	ldr	r3, [r6, #0]
20008f7c:	2b00      	cmp	r3, #0
20008f7e:	d048      	beq.n	20009012 <xTaskCreate+0x1ea>
20008f80:	4d3e      	ldr	r5, [pc, #248]	; (2000907c <xTaskCreate+0x254>)
20008f82:	682b      	ldr	r3, [r5, #0]
20008f84:	2b00      	cmp	r3, #0
20008f86:	d03b      	beq.n	20009000 <xTaskCreate+0x1d8>
20008f88:	4b3d      	ldr	r3, [pc, #244]	; (20009080 <xTaskCreate+0x258>)
20008f8a:	6ae1      	ldr	r1, [r4, #44]	; 0x2c
20008f8c:	4698      	mov	r8, r3
20008f8e:	4b3d      	ldr	r3, [pc, #244]	; (20009084 <xTaskCreate+0x25c>)
20008f90:	681a      	ldr	r2, [r3, #0]
20008f92:	3201      	adds	r2, #1
20008f94:	601a      	str	r2, [r3, #0]
20008f96:	4b3c      	ldr	r3, [pc, #240]	; (20009088 <xTaskCreate+0x260>)
20008f98:	6462      	str	r2, [r4, #68]	; 0x44
20008f9a:	681a      	ldr	r2, [r3, #0]
20008f9c:	428a      	cmp	r2, r1
20008f9e:	d200      	bcs.n	20008fa2 <xTaskCreate+0x17a>
20008fa0:	6019      	str	r1, [r3, #0]
20008fa2:	4642      	mov	r2, r8
20008fa4:	008b      	lsls	r3, r1, #2
20008fa6:	185b      	adds	r3, r3, r1
20008fa8:	009b      	lsls	r3, r3, #2
20008faa:	18d1      	adds	r1, r2, r3
20008fac:	684a      	ldr	r2, [r1, #4]
20008fae:	6890      	ldr	r0, [r2, #8]
20008fb0:	60a2      	str	r2, [r4, #8]
20008fb2:	60e0      	str	r0, [r4, #12]
20008fb4:	6890      	ldr	r0, [r2, #8]
20008fb6:	6047      	str	r7, [r0, #4]
20008fb8:	6097      	str	r7, [r2, #8]
20008fba:	4642      	mov	r2, r8
20008fbc:	6161      	str	r1, [r4, #20]
20008fbe:	4641      	mov	r1, r8
20008fc0:	58d2      	ldr	r2, [r2, r3]
20008fc2:	3201      	adds	r2, #1
20008fc4:	50ca      	str	r2, [r1, r3]
20008fc6:	f7ff f8c9 	bl	2000815c <vPortExitCritical>
20008fca:	682b      	ldr	r3, [r5, #0]
20008fcc:	2501      	movs	r5, #1
20008fce:	2b00      	cmp	r3, #0
20008fd0:	d009      	beq.n	20008fe6 <xTaskCreate+0x1be>
20008fd2:	6833      	ldr	r3, [r6, #0]
20008fd4:	6ada      	ldr	r2, [r3, #44]	; 0x2c
20008fd6:	6ae3      	ldr	r3, [r4, #44]	; 0x2c
20008fd8:	429a      	cmp	r2, r3
20008fda:	d204      	bcs.n	20008fe6 <xTaskCreate+0x1be>
20008fdc:	f7ff f8a6 	bl	2000812c <vPortYield>
20008fe0:	e001      	b.n	20008fe6 <xTaskCreate+0x1be>
20008fe2:	2501      	movs	r5, #1
20008fe4:	426d      	negs	r5, r5
20008fe6:	0028      	movs	r0, r5
20008fe8:	bcc0      	pop	{r6, r7}
20008fea:	46b9      	mov	r9, r7
20008fec:	46b0      	mov	r8, r6
20008fee:	bdf8      	pop	{r3, r4, r5, r6, r7, pc}
20008ff0:	2501      	movs	r5, #1
20008ff2:	0038      	movs	r0, r7
20008ff4:	f001 f8cc 	bl	2000a190 <vPortFree>
20008ff8:	426d      	negs	r5, r5
20008ffa:	e7f4      	b.n	20008fe6 <xTaskCreate+0x1be>
20008ffc:	251f      	movs	r5, #31
20008ffe:	e79c      	b.n	20008f3a <xTaskCreate+0x112>
20009000:	6833      	ldr	r3, [r6, #0]
20009002:	6ae1      	ldr	r1, [r4, #44]	; 0x2c
20009004:	6adb      	ldr	r3, [r3, #44]	; 0x2c
20009006:	428b      	cmp	r3, r1
20009008:	d800      	bhi.n	2000900c <xTaskCreate+0x1e4>
2000900a:	6034      	str	r4, [r6, #0]
2000900c:	4b1c      	ldr	r3, [pc, #112]	; (20009080 <xTaskCreate+0x258>)
2000900e:	4698      	mov	r8, r3
20009010:	e7bd      	b.n	20008f8e <xTaskCreate+0x166>
20009012:	6034      	str	r4, [r6, #0]
20009014:	6813      	ldr	r3, [r2, #0]
20009016:	2b01      	cmp	r3, #1
20009018:	d004      	beq.n	20009024 <xTaskCreate+0x1fc>
2000901a:	4b19      	ldr	r3, [pc, #100]	; (20009080 <xTaskCreate+0x258>)
2000901c:	6ae1      	ldr	r1, [r4, #44]	; 0x2c
2000901e:	4698      	mov	r8, r3
20009020:	4d16      	ldr	r5, [pc, #88]	; (2000907c <xTaskCreate+0x254>)
20009022:	e7b4      	b.n	20008f8e <xTaskCreate+0x166>
20009024:	4b16      	ldr	r3, [pc, #88]	; (20009080 <xTaskCreate+0x258>)
20009026:	4698      	mov	r8, r3
20009028:	001d      	movs	r5, r3
2000902a:	23a0      	movs	r3, #160	; 0xa0
2000902c:	009b      	lsls	r3, r3, #2
2000902e:	4443      	add	r3, r8
20009030:	4699      	mov	r9, r3
20009032:	0028      	movs	r0, r5
20009034:	3514      	adds	r5, #20
20009036:	f7ff fb3b 	bl	200086b0 <vListInitialise>
2000903a:	45a9      	cmp	r9, r5
2000903c:	d1f9      	bne.n	20009032 <xTaskCreate+0x20a>
2000903e:	4b13      	ldr	r3, [pc, #76]	; (2000908c <xTaskCreate+0x264>)
20009040:	4699      	mov	r9, r3
20009042:	0018      	movs	r0, r3
20009044:	f7ff fb34 	bl	200086b0 <vListInitialise>
20009048:	4d11      	ldr	r5, [pc, #68]	; (20009090 <xTaskCreate+0x268>)
2000904a:	0028      	movs	r0, r5
2000904c:	f7ff fb30 	bl	200086b0 <vListInitialise>
20009050:	4810      	ldr	r0, [pc, #64]	; (20009094 <xTaskCreate+0x26c>)
20009052:	f7ff fb2d 	bl	200086b0 <vListInitialise>
20009056:	4810      	ldr	r0, [pc, #64]	; (20009098 <xTaskCreate+0x270>)
20009058:	f7ff fb2a 	bl	200086b0 <vListInitialise>
2000905c:	480f      	ldr	r0, [pc, #60]	; (2000909c <xTaskCreate+0x274>)
2000905e:	f7ff fb27 	bl	200086b0 <vListInitialise>
20009062:	464a      	mov	r2, r9
20009064:	4b0e      	ldr	r3, [pc, #56]	; (200090a0 <xTaskCreate+0x278>)
20009066:	6ae1      	ldr	r1, [r4, #44]	; 0x2c
20009068:	601a      	str	r2, [r3, #0]
2000906a:	4b0e      	ldr	r3, [pc, #56]	; (200090a4 <xTaskCreate+0x27c>)
2000906c:	601d      	str	r5, [r3, #0]
2000906e:	4d03      	ldr	r5, [pc, #12]	; (2000907c <xTaskCreate+0x254>)
20009070:	e78d      	b.n	20008f8e <xTaskCreate+0x166>
20009072:	46c0      	nop			; (mov r8, r8)
20009074:	200217f4 	.word	0x200217f4
20009078:	20011504 	.word	0x20011504
2000907c:	20021888 	.word	0x20021888
20009080:	20011518 	.word	0x20011518
20009084:	20021800 	.word	0x20021800
20009088:	20021804 	.word	0x20021804
2000908c:	20021830 	.word	0x20021830
20009090:	20021844 	.word	0x20021844
20009094:	20021874 	.word	0x20021874
20009098:	200218a0 	.word	0x200218a0
2000909c:	2002188c 	.word	0x2002188c
200090a0:	2001150c 	.word	0x2001150c
200090a4:	20011510 	.word	0x20011510

200090a8 <vTaskSuspend>:
200090a8:	b5f8      	push	{r3, r4, r5, r6, r7, lr}
200090aa:	0004      	movs	r4, r0
200090ac:	f7ff f84a 	bl	20008144 <vPortEnterCritical>
200090b0:	4e28      	ldr	r6, [pc, #160]	; (20009154 <vTaskSuspend+0xac>)
200090b2:	2c00      	cmp	r4, #0
200090b4:	d040      	beq.n	20009138 <vTaskSuspend+0x90>
200090b6:	1d25      	adds	r5, r4, #4
200090b8:	0028      	movs	r0, r5
200090ba:	f7ff fb2d 	bl	20008718 <uxListRemove>
200090be:	6aa3      	ldr	r3, [r4, #40]	; 0x28
200090c0:	2b00      	cmp	r3, #0
200090c2:	d003      	beq.n	200090cc <vTaskSuspend+0x24>
200090c4:	0020      	movs	r0, r4
200090c6:	3018      	adds	r0, #24
200090c8:	f7ff fb26 	bl	20008718 <uxListRemove>
200090cc:	4f22      	ldr	r7, [pc, #136]	; (20009158 <vTaskSuspend+0xb0>)
200090ce:	0029      	movs	r1, r5
200090d0:	0038      	movs	r0, r7
200090d2:	f7ff fafd 	bl	200086d0 <vListInsertEnd>
200090d6:	226c      	movs	r2, #108	; 0x6c
200090d8:	5ca3      	ldrb	r3, [r4, r2]
200090da:	2b01      	cmp	r3, #1
200090dc:	d101      	bne.n	200090e2 <vTaskSuspend+0x3a>
200090de:	2300      	movs	r3, #0
200090e0:	54a3      	strb	r3, [r4, r2]
200090e2:	f7ff f83b 	bl	2000815c <vPortExitCritical>
200090e6:	4d1d      	ldr	r5, [pc, #116]	; (2000915c <vTaskSuspend+0xb4>)
200090e8:	682b      	ldr	r3, [r5, #0]
200090ea:	2b00      	cmp	r3, #0
200090ec:	d103      	bne.n	200090f6 <vTaskSuspend+0x4e>
200090ee:	6833      	ldr	r3, [r6, #0]
200090f0:	42a3      	cmp	r3, r4
200090f2:	d011      	beq.n	20009118 <vTaskSuspend+0x70>
200090f4:	bdf8      	pop	{r3, r4, r5, r6, r7, pc}
200090f6:	f7ff f825 	bl	20008144 <vPortEnterCritical>
200090fa:	4b19      	ldr	r3, [pc, #100]	; (20009160 <vTaskSuspend+0xb8>)
200090fc:	681a      	ldr	r2, [r3, #0]
200090fe:	6812      	ldr	r2, [r2, #0]
20009100:	2a00      	cmp	r2, #0
20009102:	d01b      	beq.n	2000913c <vTaskSuspend+0x94>
20009104:	681b      	ldr	r3, [r3, #0]
20009106:	68db      	ldr	r3, [r3, #12]
20009108:	681a      	ldr	r2, [r3, #0]
2000910a:	4b16      	ldr	r3, [pc, #88]	; (20009164 <vTaskSuspend+0xbc>)
2000910c:	601a      	str	r2, [r3, #0]
2000910e:	f7ff f825 	bl	2000815c <vPortExitCritical>
20009112:	6833      	ldr	r3, [r6, #0]
20009114:	42a3      	cmp	r3, r4
20009116:	d1ed      	bne.n	200090f4 <vTaskSuspend+0x4c>
20009118:	682b      	ldr	r3, [r5, #0]
2000911a:	2b00      	cmp	r3, #0
2000911c:	d114      	bne.n	20009148 <vTaskSuspend+0xa0>
2000911e:	4a12      	ldr	r2, [pc, #72]	; (20009168 <vTaskSuspend+0xc0>)
20009120:	6839      	ldr	r1, [r7, #0]
20009122:	6812      	ldr	r2, [r2, #0]
20009124:	4291      	cmp	r1, r2
20009126:	d00d      	beq.n	20009144 <vTaskSuspend+0x9c>
20009128:	4b10      	ldr	r3, [pc, #64]	; (2000916c <vTaskSuspend+0xc4>)
2000912a:	681b      	ldr	r3, [r3, #0]
2000912c:	2b00      	cmp	r3, #0
2000912e:	d00e      	beq.n	2000914e <vTaskSuspend+0xa6>
20009130:	2201      	movs	r2, #1
20009132:	4b0f      	ldr	r3, [pc, #60]	; (20009170 <vTaskSuspend+0xc8>)
20009134:	601a      	str	r2, [r3, #0]
20009136:	e7dd      	b.n	200090f4 <vTaskSuspend+0x4c>
20009138:	6834      	ldr	r4, [r6, #0]
2000913a:	e7bc      	b.n	200090b6 <vTaskSuspend+0xe>
2000913c:	4b09      	ldr	r3, [pc, #36]	; (20009164 <vTaskSuspend+0xbc>)
2000913e:	3a01      	subs	r2, #1
20009140:	601a      	str	r2, [r3, #0]
20009142:	e7e4      	b.n	2000910e <vTaskSuspend+0x66>
20009144:	6033      	str	r3, [r6, #0]
20009146:	e7d5      	b.n	200090f4 <vTaskSuspend+0x4c>
20009148:	f7fe fff0 	bl	2000812c <vPortYield>
2000914c:	e7d2      	b.n	200090f4 <vTaskSuspend+0x4c>
2000914e:	f7ff fe2b 	bl	20008da8 <vTaskSwitchContext.part.0>
20009152:	e7cf      	b.n	200090f4 <vTaskSuspend+0x4c>
20009154:	20011504 	.word	0x20011504
20009158:	2002188c 	.word	0x2002188c
2000915c:	20021888 	.word	0x20021888
20009160:	2001150c 	.word	0x2001150c
20009164:	20021868 	.word	0x20021868
20009168:	200217f4 	.word	0x200217f4
2000916c:	200217fc 	.word	0x200217fc
20009170:	200218c0 	.word	0x200218c0

20009174 <vTaskResume>:
20009174:	b5f8      	push	{r3, r4, r5, r6, r7, lr}
20009176:	4d1d      	ldr	r5, [pc, #116]	; (200091ec <vTaskResume+0x78>)
20009178:	0004      	movs	r4, r0
2000917a:	682b      	ldr	r3, [r5, #0]
2000917c:	4283      	cmp	r3, r0
2000917e:	d009      	beq.n	20009194 <vTaskResume+0x20>
20009180:	2800      	cmp	r0, #0
20009182:	d007      	beq.n	20009194 <vTaskResume+0x20>
20009184:	f7fe ffde 	bl	20008144 <vPortEnterCritical>
20009188:	4b19      	ldr	r3, [pc, #100]	; (200091f0 <vTaskResume+0x7c>)
2000918a:	6962      	ldr	r2, [r4, #20]
2000918c:	429a      	cmp	r2, r3
2000918e:	d002      	beq.n	20009196 <vTaskResume+0x22>
20009190:	f7fe ffe4 	bl	2000815c <vPortExitCritical>
20009194:	bdf8      	pop	{r3, r4, r5, r6, r7, pc}
20009196:	6aa3      	ldr	r3, [r4, #40]	; 0x28
20009198:	4a16      	ldr	r2, [pc, #88]	; (200091f4 <vTaskResume+0x80>)
2000919a:	4293      	cmp	r3, r2
2000919c:	d0f8      	beq.n	20009190 <vTaskResume+0x1c>
2000919e:	2b00      	cmp	r3, #0
200091a0:	d1f6      	bne.n	20009190 <vTaskResume+0x1c>
200091a2:	1d26      	adds	r6, r4, #4
200091a4:	0030      	movs	r0, r6
200091a6:	f7ff fab7 	bl	20008718 <uxListRemove>
200091aa:	4b13      	ldr	r3, [pc, #76]	; (200091f8 <vTaskResume+0x84>)
200091ac:	6ae2      	ldr	r2, [r4, #44]	; 0x2c
200091ae:	6819      	ldr	r1, [r3, #0]
200091b0:	428a      	cmp	r2, r1
200091b2:	d900      	bls.n	200091b6 <vTaskResume+0x42>
200091b4:	601a      	str	r2, [r3, #0]
200091b6:	4b11      	ldr	r3, [pc, #68]	; (200091fc <vTaskResume+0x88>)
200091b8:	469c      	mov	ip, r3
200091ba:	4661      	mov	r1, ip
200091bc:	0093      	lsls	r3, r2, #2
200091be:	189b      	adds	r3, r3, r2
200091c0:	009b      	lsls	r3, r3, #2
200091c2:	18cf      	adds	r7, r1, r3
200091c4:	6879      	ldr	r1, [r7, #4]
200091c6:	6888      	ldr	r0, [r1, #8]
200091c8:	60a1      	str	r1, [r4, #8]
200091ca:	60e0      	str	r0, [r4, #12]
200091cc:	6888      	ldr	r0, [r1, #8]
200091ce:	6046      	str	r6, [r0, #4]
200091d0:	608e      	str	r6, [r1, #8]
200091d2:	4661      	mov	r1, ip
200091d4:	4660      	mov	r0, ip
200091d6:	58c9      	ldr	r1, [r1, r3]
200091d8:	6167      	str	r7, [r4, #20]
200091da:	3101      	adds	r1, #1
200091dc:	50c1      	str	r1, [r0, r3]
200091de:	682b      	ldr	r3, [r5, #0]
200091e0:	6adb      	ldr	r3, [r3, #44]	; 0x2c
200091e2:	429a      	cmp	r2, r3
200091e4:	d3d4      	bcc.n	20009190 <vTaskResume+0x1c>
200091e6:	f7fe ffa1 	bl	2000812c <vPortYield>
200091ea:	e7d1      	b.n	20009190 <vTaskResume+0x1c>
200091ec:	20011504 	.word	0x20011504
200091f0:	2002188c 	.word	0x2002188c
200091f4:	20021874 	.word	0x20021874
200091f8:	20021804 	.word	0x20021804
200091fc:	20011518 	.word	0x20011518

20009200 <vTaskStartScheduler>:
20009200:	b5f8      	push	{r3, r4, r5, r6, r7, lr}
20009202:	2080      	movs	r0, #128	; 0x80
20009204:	46ce      	mov	lr, r9
20009206:	4647      	mov	r7, r8
20009208:	00c0      	lsls	r0, r0, #3
2000920a:	b580      	push	{r7, lr}
2000920c:	f000 ff80 	bl	2000a110 <pvPortMalloc>
20009210:	1e05      	subs	r5, r0, #0
20009212:	d078      	beq.n	20009306 <vTaskStartScheduler+0x106>
20009214:	2070      	movs	r0, #112	; 0x70
20009216:	f000 ff7b 	bl	2000a110 <pvPortMalloc>
2000921a:	1e04      	subs	r4, r0, #0
2000921c:	d100      	bne.n	20009220 <vTaskStartScheduler+0x20>
2000921e:	e078      	b.n	20009312 <vTaskStartScheduler+0x112>
20009220:	2270      	movs	r2, #112	; 0x70
20009222:	2100      	movs	r1, #0
20009224:	f7fc fb44 	bl	200058b0 <__wrap_memset>
20009228:	2280      	movs	r2, #128	; 0x80
2000922a:	21a5      	movs	r1, #165	; 0xa5
2000922c:	0028      	movs	r0, r5
2000922e:	6325      	str	r5, [r4, #48]	; 0x30
20009230:	00d2      	lsls	r2, r2, #3
20009232:	f7fc fb3d 	bl	200058b0 <__wrap_memset>
20009236:	23ff      	movs	r3, #255	; 0xff
20009238:	009b      	lsls	r3, r3, #2
2000923a:	469c      	mov	ip, r3
2000923c:	2307      	movs	r3, #7
2000923e:	6b25      	ldr	r5, [r4, #48]	; 0x30
20009240:	2238      	movs	r2, #56	; 0x38
20009242:	4465      	add	r5, ip
20009244:	439d      	bics	r5, r3
20009246:	4b53      	ldr	r3, [pc, #332]	; (20009394 <vTaskStartScheduler+0x194>)
20009248:	1d26      	adds	r6, r4, #4
2000924a:	6363      	str	r3, [r4, #52]	; 0x34
2000924c:	2300      	movs	r3, #0
2000924e:	54a3      	strb	r3, [r4, r2]
20009250:	320b      	adds	r2, #11
20009252:	54a3      	strb	r3, [r4, r2]
20009254:	0030      	movs	r0, r6
20009256:	62e3      	str	r3, [r4, #44]	; 0x2c
20009258:	64e3      	str	r3, [r4, #76]	; 0x4c
2000925a:	f7ff fa35 	bl	200086c8 <vListInitialiseItem>
2000925e:	0020      	movs	r0, r4
20009260:	3018      	adds	r0, #24
20009262:	f7ff fa31 	bl	200086c8 <vListInitialiseItem>
20009266:	2320      	movs	r3, #32
20009268:	2200      	movs	r2, #0
2000926a:	494b      	ldr	r1, [pc, #300]	; (20009398 <vTaskStartScheduler+0x198>)
2000926c:	61a3      	str	r3, [r4, #24]
2000926e:	0028      	movs	r0, r5
20009270:	6124      	str	r4, [r4, #16]
20009272:	6264      	str	r4, [r4, #36]	; 0x24
20009274:	f7fe ff4a 	bl	2000810c <pxPortInitialiseStack>
20009278:	4b48      	ldr	r3, [pc, #288]	; (2000939c <vTaskStartScheduler+0x19c>)
2000927a:	6020      	str	r0, [r4, #0]
2000927c:	601c      	str	r4, [r3, #0]
2000927e:	f7fe ff61 	bl	20008144 <vPortEnterCritical>
20009282:	4a47      	ldr	r2, [pc, #284]	; (200093a0 <vTaskStartScheduler+0x1a0>)
20009284:	6813      	ldr	r3, [r2, #0]
20009286:	3301      	adds	r3, #1
20009288:	6013      	str	r3, [r2, #0]
2000928a:	4b46      	ldr	r3, [pc, #280]	; (200093a4 <vTaskStartScheduler+0x1a4>)
2000928c:	4698      	mov	r8, r3
2000928e:	681b      	ldr	r3, [r3, #0]
20009290:	2b00      	cmp	r3, #0
20009292:	d04c      	beq.n	2000932e <vTaskStartScheduler+0x12e>
20009294:	4d44      	ldr	r5, [pc, #272]	; (200093a8 <vTaskStartScheduler+0x1a8>)
20009296:	682b      	ldr	r3, [r5, #0]
20009298:	2b00      	cmp	r3, #0
2000929a:	d03e      	beq.n	2000931a <vTaskStartScheduler+0x11a>
2000929c:	6ae1      	ldr	r1, [r4, #44]	; 0x2c
2000929e:	4f43      	ldr	r7, [pc, #268]	; (200093ac <vTaskStartScheduler+0x1ac>)
200092a0:	4b43      	ldr	r3, [pc, #268]	; (200093b0 <vTaskStartScheduler+0x1b0>)
200092a2:	681a      	ldr	r2, [r3, #0]
200092a4:	3201      	adds	r2, #1
200092a6:	601a      	str	r2, [r3, #0]
200092a8:	4b42      	ldr	r3, [pc, #264]	; (200093b4 <vTaskStartScheduler+0x1b4>)
200092aa:	6462      	str	r2, [r4, #68]	; 0x44
200092ac:	681a      	ldr	r2, [r3, #0]
200092ae:	428a      	cmp	r2, r1
200092b0:	d200      	bcs.n	200092b4 <vTaskStartScheduler+0xb4>
200092b2:	6019      	str	r1, [r3, #0]
200092b4:	008b      	lsls	r3, r1, #2
200092b6:	185b      	adds	r3, r3, r1
200092b8:	009b      	lsls	r3, r3, #2
200092ba:	18f9      	adds	r1, r7, r3
200092bc:	684a      	ldr	r2, [r1, #4]
200092be:	6890      	ldr	r0, [r2, #8]
200092c0:	60a2      	str	r2, [r4, #8]
200092c2:	60e0      	str	r0, [r4, #12]
200092c4:	6890      	ldr	r0, [r2, #8]
200092c6:	6046      	str	r6, [r0, #4]
200092c8:	6096      	str	r6, [r2, #8]
200092ca:	58fa      	ldr	r2, [r7, r3]
200092cc:	6161      	str	r1, [r4, #20]
200092ce:	3201      	adds	r2, #1
200092d0:	50fa      	str	r2, [r7, r3]
200092d2:	f7fe ff43 	bl	2000815c <vPortExitCritical>
200092d6:	682b      	ldr	r3, [r5, #0]
200092d8:	2b00      	cmp	r3, #0
200092da:	d005      	beq.n	200092e8 <vTaskStartScheduler+0xe8>
200092dc:	4643      	mov	r3, r8
200092de:	681b      	ldr	r3, [r3, #0]
200092e0:	6ada      	ldr	r2, [r3, #44]	; 0x2c
200092e2:	6ae3      	ldr	r3, [r4, #44]	; 0x2c
200092e4:	429a      	cmp	r2, r3
200092e6:	d32b      	bcc.n	20009340 <vTaskStartScheduler+0x140>
200092e8:	f000 fe94 	bl	2000a014 <xTimerCreateTimerTask>
200092ec:	2801      	cmp	r0, #1
200092ee:	d10a      	bne.n	20009306 <vTaskStartScheduler+0x106>
200092f0:	b672      	cpsid	i
200092f2:	2201      	movs	r2, #1
200092f4:	4b30      	ldr	r3, [pc, #192]	; (200093b8 <vTaskStartScheduler+0x1b8>)
200092f6:	4252      	negs	r2, r2
200092f8:	601a      	str	r2, [r3, #0]
200092fa:	2200      	movs	r2, #0
200092fc:	4b2f      	ldr	r3, [pc, #188]	; (200093bc <vTaskStartScheduler+0x1bc>)
200092fe:	6028      	str	r0, [r5, #0]
20009300:	601a      	str	r2, [r3, #0]
20009302:	f7fe ff79 	bl	200081f8 <xPortStartScheduler>
20009306:	4b2e      	ldr	r3, [pc, #184]	; (200093c0 <vTaskStartScheduler+0x1c0>)
20009308:	681b      	ldr	r3, [r3, #0]
2000930a:	bcc0      	pop	{r6, r7}
2000930c:	46b9      	mov	r9, r7
2000930e:	46b0      	mov	r8, r6
20009310:	bdf8      	pop	{r3, r4, r5, r6, r7, pc}
20009312:	0028      	movs	r0, r5
20009314:	f000 ff3c 	bl	2000a190 <vPortFree>
20009318:	e7f5      	b.n	20009306 <vTaskStartScheduler+0x106>
2000931a:	4643      	mov	r3, r8
2000931c:	681b      	ldr	r3, [r3, #0]
2000931e:	6ae1      	ldr	r1, [r4, #44]	; 0x2c
20009320:	6adb      	ldr	r3, [r3, #44]	; 0x2c
20009322:	428b      	cmp	r3, r1
20009324:	d801      	bhi.n	2000932a <vTaskStartScheduler+0x12a>
20009326:	4643      	mov	r3, r8
20009328:	601c      	str	r4, [r3, #0]
2000932a:	4f20      	ldr	r7, [pc, #128]	; (200093ac <vTaskStartScheduler+0x1ac>)
2000932c:	e7b8      	b.n	200092a0 <vTaskStartScheduler+0xa0>
2000932e:	4643      	mov	r3, r8
20009330:	601c      	str	r4, [r3, #0]
20009332:	6813      	ldr	r3, [r2, #0]
20009334:	2b01      	cmp	r3, #1
20009336:	d006      	beq.n	20009346 <vTaskStartScheduler+0x146>
20009338:	6ae1      	ldr	r1, [r4, #44]	; 0x2c
2000933a:	4f1c      	ldr	r7, [pc, #112]	; (200093ac <vTaskStartScheduler+0x1ac>)
2000933c:	4d1a      	ldr	r5, [pc, #104]	; (200093a8 <vTaskStartScheduler+0x1a8>)
2000933e:	e7af      	b.n	200092a0 <vTaskStartScheduler+0xa0>
20009340:	f7fe fef4 	bl	2000812c <vPortYield>
20009344:	e7d0      	b.n	200092e8 <vTaskStartScheduler+0xe8>
20009346:	23a0      	movs	r3, #160	; 0xa0
20009348:	4f18      	ldr	r7, [pc, #96]	; (200093ac <vTaskStartScheduler+0x1ac>)
2000934a:	009b      	lsls	r3, r3, #2
2000934c:	4699      	mov	r9, r3
2000934e:	003d      	movs	r5, r7
20009350:	44b9      	add	r9, r7
20009352:	0028      	movs	r0, r5
20009354:	3514      	adds	r5, #20
20009356:	f7ff f9ab 	bl	200086b0 <vListInitialise>
2000935a:	454d      	cmp	r5, r9
2000935c:	d1f9      	bne.n	20009352 <vTaskStartScheduler+0x152>
2000935e:	4b19      	ldr	r3, [pc, #100]	; (200093c4 <vTaskStartScheduler+0x1c4>)
20009360:	4699      	mov	r9, r3
20009362:	0018      	movs	r0, r3
20009364:	f7ff f9a4 	bl	200086b0 <vListInitialise>
20009368:	4d17      	ldr	r5, [pc, #92]	; (200093c8 <vTaskStartScheduler+0x1c8>)
2000936a:	0028      	movs	r0, r5
2000936c:	f7ff f9a0 	bl	200086b0 <vListInitialise>
20009370:	4816      	ldr	r0, [pc, #88]	; (200093cc <vTaskStartScheduler+0x1cc>)
20009372:	f7ff f99d 	bl	200086b0 <vListInitialise>
20009376:	4816      	ldr	r0, [pc, #88]	; (200093d0 <vTaskStartScheduler+0x1d0>)
20009378:	f7ff f99a 	bl	200086b0 <vListInitialise>
2000937c:	4815      	ldr	r0, [pc, #84]	; (200093d4 <vTaskStartScheduler+0x1d4>)
2000937e:	f7ff f997 	bl	200086b0 <vListInitialise>
20009382:	464a      	mov	r2, r9
20009384:	4b14      	ldr	r3, [pc, #80]	; (200093d8 <vTaskStartScheduler+0x1d8>)
20009386:	6ae1      	ldr	r1, [r4, #44]	; 0x2c
20009388:	601a      	str	r2, [r3, #0]
2000938a:	4b14      	ldr	r3, [pc, #80]	; (200093dc <vTaskStartScheduler+0x1dc>)
2000938c:	601d      	str	r5, [r3, #0]
2000938e:	4d06      	ldr	r5, [pc, #24]	; (200093a8 <vTaskStartScheduler+0x1a8>)
20009390:	e786      	b.n	200092a0 <vTaskStartScheduler+0xa0>
20009392:	46c0      	nop			; (mov r8, r8)
20009394:	454c4449 	.word	0x454c4449
20009398:	20008d49 	.word	0x20008d49
2000939c:	2002185c 	.word	0x2002185c
200093a0:	200217f4 	.word	0x200217f4
200093a4:	20011504 	.word	0x20011504
200093a8:	20021888 	.word	0x20021888
200093ac:	20011518 	.word	0x20011518
200093b0:	20021800 	.word	0x20021800
200093b4:	20021804 	.word	0x20021804
200093b8:	20021868 	.word	0x20021868
200093bc:	200218b4 	.word	0x200218b4
200093c0:	2000b550 	.word	0x2000b550
200093c4:	20021830 	.word	0x20021830
200093c8:	20021844 	.word	0x20021844
200093cc:	20021874 	.word	0x20021874
200093d0:	200218a0 	.word	0x200218a0
200093d4:	2002188c 	.word	0x2002188c
200093d8:	2001150c 	.word	0x2001150c
200093dc:	20011510 	.word	0x20011510

200093e0 <vTaskSuspendAll>:
200093e0:	4a02      	ldr	r2, [pc, #8]	; (200093ec <vTaskSuspendAll+0xc>)
200093e2:	6813      	ldr	r3, [r2, #0]
200093e4:	3301      	adds	r3, #1
200093e6:	6013      	str	r3, [r2, #0]
200093e8:	4770      	bx	lr
200093ea:	46c0      	nop			; (mov r8, r8)
200093ec:	200217fc 	.word	0x200217fc

200093f0 <xTaskGetTickCount>:
200093f0:	4b01      	ldr	r3, [pc, #4]	; (200093f8 <xTaskGetTickCount+0x8>)
200093f2:	6818      	ldr	r0, [r3, #0]
200093f4:	4770      	bx	lr
200093f6:	46c0      	nop			; (mov r8, r8)
200093f8:	200218b4 	.word	0x200218b4

200093fc <uxTaskGetNumberOfTasks>:
200093fc:	4b01      	ldr	r3, [pc, #4]	; (20009404 <uxTaskGetNumberOfTasks+0x8>)
200093fe:	6818      	ldr	r0, [r3, #0]
20009400:	4770      	bx	lr
20009402:	46c0      	nop			; (mov r8, r8)
20009404:	200217f4 	.word	0x200217f4

20009408 <xTaskIncrementTick>:
20009408:	b5f0      	push	{r4, r5, r6, r7, lr}
2000940a:	46de      	mov	lr, fp
2000940c:	4657      	mov	r7, sl
2000940e:	464e      	mov	r6, r9
20009410:	4645      	mov	r5, r8
20009412:	b5e0      	push	{r5, r6, r7, lr}
20009414:	4b65      	ldr	r3, [pc, #404]	; (200095ac <xTaskIncrementTick+0x1a4>)
20009416:	b083      	sub	sp, #12
20009418:	681b      	ldr	r3, [r3, #0]
2000941a:	2b00      	cmp	r3, #0
2000941c:	d000      	beq.n	20009420 <xTaskIncrementTick+0x18>
2000941e:	e0a4      	b.n	2000956a <xTaskIncrementTick+0x162>
20009420:	4b63      	ldr	r3, [pc, #396]	; (200095b0 <xTaskIncrementTick+0x1a8>)
20009422:	681a      	ldr	r2, [r3, #0]
20009424:	3201      	adds	r2, #1
20009426:	4694      	mov	ip, r2
20009428:	601a      	str	r2, [r3, #0]
2000942a:	2a00      	cmp	r2, #0
2000942c:	d064      	beq.n	200094f8 <xTaskIncrementTick+0xf0>
2000942e:	4b61      	ldr	r3, [pc, #388]	; (200095b4 <xTaskIncrementTick+0x1ac>)
20009430:	9301      	str	r3, [sp, #4]
20009432:	681b      	ldr	r3, [r3, #0]
20009434:	459c      	cmp	ip, r3
20009436:	d377      	bcc.n	20009528 <xTaskIncrementTick+0x120>
20009438:	4b5f      	ldr	r3, [pc, #380]	; (200095b8 <xTaskIncrementTick+0x1b0>)
2000943a:	2600      	movs	r6, #0
2000943c:	4698      	mov	r8, r3
2000943e:	681b      	ldr	r3, [r3, #0]
20009440:	4d5e      	ldr	r5, [pc, #376]	; (200095bc <xTaskIncrementTick+0x1b4>)
20009442:	681b      	ldr	r3, [r3, #0]
20009444:	2b00      	cmp	r3, #0
20009446:	d100      	bne.n	2000944a <xTaskIncrementTick+0x42>
20009448:	e0ac      	b.n	200095a4 <xTaskIncrementTick+0x19c>
2000944a:	4b5d      	ldr	r3, [pc, #372]	; (200095c0 <xTaskIncrementTick+0x1b8>)
2000944c:	469a      	mov	sl, r3
2000944e:	2300      	movs	r3, #0
20009450:	469b      	mov	fp, r3
20009452:	4b5c      	ldr	r3, [pc, #368]	; (200095c4 <xTaskIncrementTick+0x1bc>)
20009454:	4699      	mov	r9, r3
20009456:	4663      	mov	r3, ip
20009458:	46b4      	mov	ip, r6
2000945a:	9300      	str	r3, [sp, #0]
2000945c:	e039      	b.n	200094d2 <xTaskIncrementTick+0xca>
2000945e:	4659      	mov	r1, fp
20009460:	6159      	str	r1, [r3, #20]
20009462:	6811      	ldr	r1, [r2, #0]
20009464:	3901      	subs	r1, #1
20009466:	6011      	str	r1, [r2, #0]
20009468:	6a9a      	ldr	r2, [r3, #40]	; 0x28
2000946a:	2a00      	cmp	r2, #0
2000946c:	d00f      	beq.n	2000948e <xTaskIncrementTick+0x86>
2000946e:	69d9      	ldr	r1, [r3, #28]
20009470:	6a18      	ldr	r0, [r3, #32]
20009472:	6856      	ldr	r6, [r2, #4]
20009474:	6088      	str	r0, [r1, #8]
20009476:	6a18      	ldr	r0, [r3, #32]
20009478:	6041      	str	r1, [r0, #4]
2000947a:	0019      	movs	r1, r3
2000947c:	3118      	adds	r1, #24
2000947e:	428e      	cmp	r6, r1
20009480:	d100      	bne.n	20009484 <xTaskIncrementTick+0x7c>
20009482:	e070      	b.n	20009566 <xTaskIncrementTick+0x15e>
20009484:	4659      	mov	r1, fp
20009486:	6299      	str	r1, [r3, #40]	; 0x28
20009488:	6811      	ldr	r1, [r2, #0]
2000948a:	3901      	subs	r1, #1
2000948c:	6011      	str	r1, [r2, #0]
2000948e:	464a      	mov	r2, r9
20009490:	6ad9      	ldr	r1, [r3, #44]	; 0x2c
20009492:	6812      	ldr	r2, [r2, #0]
20009494:	4291      	cmp	r1, r2
20009496:	d901      	bls.n	2000949c <xTaskIncrementTick+0x94>
20009498:	464a      	mov	r2, r9
2000949a:	6011      	str	r1, [r2, #0]
2000949c:	008a      	lsls	r2, r1, #2
2000949e:	1852      	adds	r2, r2, r1
200094a0:	0092      	lsls	r2, r2, #2
200094a2:	18ae      	adds	r6, r5, r2
200094a4:	6870      	ldr	r0, [r6, #4]
200094a6:	6887      	ldr	r7, [r0, #8]
200094a8:	6098      	str	r0, [r3, #8]
200094aa:	60df      	str	r7, [r3, #12]
200094ac:	6887      	ldr	r7, [r0, #8]
200094ae:	607c      	str	r4, [r7, #4]
200094b0:	6084      	str	r4, [r0, #8]
200094b2:	615e      	str	r6, [r3, #20]
200094b4:	58ab      	ldr	r3, [r5, r2]
200094b6:	3301      	adds	r3, #1
200094b8:	50ab      	str	r3, [r5, r2]
200094ba:	4653      	mov	r3, sl
200094bc:	681b      	ldr	r3, [r3, #0]
200094be:	6adb      	ldr	r3, [r3, #44]	; 0x2c
200094c0:	4299      	cmp	r1, r3
200094c2:	d301      	bcc.n	200094c8 <xTaskIncrementTick+0xc0>
200094c4:	2301      	movs	r3, #1
200094c6:	469c      	mov	ip, r3
200094c8:	4643      	mov	r3, r8
200094ca:	681b      	ldr	r3, [r3, #0]
200094cc:	681b      	ldr	r3, [r3, #0]
200094ce:	2b00      	cmp	r3, #0
200094d0:	d062      	beq.n	20009598 <xTaskIncrementTick+0x190>
200094d2:	4643      	mov	r3, r8
200094d4:	681b      	ldr	r3, [r3, #0]
200094d6:	9900      	ldr	r1, [sp, #0]
200094d8:	68db      	ldr	r3, [r3, #12]
200094da:	68db      	ldr	r3, [r3, #12]
200094dc:	685a      	ldr	r2, [r3, #4]
200094de:	4291      	cmp	r1, r2
200094e0:	d356      	bcc.n	20009590 <xTaskIncrementTick+0x188>
200094e2:	695a      	ldr	r2, [r3, #20]
200094e4:	6898      	ldr	r0, [r3, #8]
200094e6:	68d9      	ldr	r1, [r3, #12]
200094e8:	1d1c      	adds	r4, r3, #4
200094ea:	6081      	str	r1, [r0, #8]
200094ec:	6048      	str	r0, [r1, #4]
200094ee:	6850      	ldr	r0, [r2, #4]
200094f0:	42a0      	cmp	r0, r4
200094f2:	d1b4      	bne.n	2000945e <xTaskIncrementTick+0x56>
200094f4:	6051      	str	r1, [r2, #4]
200094f6:	e7b2      	b.n	2000945e <xTaskIncrementTick+0x56>
200094f8:	4b2f      	ldr	r3, [pc, #188]	; (200095b8 <xTaskIncrementTick+0x1b0>)
200094fa:	4a33      	ldr	r2, [pc, #204]	; (200095c8 <xTaskIncrementTick+0x1c0>)
200094fc:	6819      	ldr	r1, [r3, #0]
200094fe:	6810      	ldr	r0, [r2, #0]
20009500:	6018      	str	r0, [r3, #0]
20009502:	6011      	str	r1, [r2, #0]
20009504:	4931      	ldr	r1, [pc, #196]	; (200095cc <xTaskIncrementTick+0x1c4>)
20009506:	680a      	ldr	r2, [r1, #0]
20009508:	3201      	adds	r2, #1
2000950a:	600a      	str	r2, [r1, #0]
2000950c:	681a      	ldr	r2, [r3, #0]
2000950e:	6812      	ldr	r2, [r2, #0]
20009510:	2a00      	cmp	r2, #0
20009512:	d135      	bne.n	20009580 <xTaskIncrementTick+0x178>
20009514:	4b27      	ldr	r3, [pc, #156]	; (200095b4 <xTaskIncrementTick+0x1ac>)
20009516:	001a      	movs	r2, r3
20009518:	9301      	str	r3, [sp, #4]
2000951a:	2301      	movs	r3, #1
2000951c:	425b      	negs	r3, r3
2000951e:	6013      	str	r3, [r2, #0]
20009520:	0013      	movs	r3, r2
20009522:	681b      	ldr	r3, [r3, #0]
20009524:	459c      	cmp	ip, r3
20009526:	d287      	bcs.n	20009438 <xTaskIncrementTick+0x30>
20009528:	4b25      	ldr	r3, [pc, #148]	; (200095c0 <xTaskIncrementTick+0x1b8>)
2000952a:	2600      	movs	r6, #0
2000952c:	469a      	mov	sl, r3
2000952e:	4d23      	ldr	r5, [pc, #140]	; (200095bc <xTaskIncrementTick+0x1b4>)
20009530:	4653      	mov	r3, sl
20009532:	681b      	ldr	r3, [r3, #0]
20009534:	6ada      	ldr	r2, [r3, #44]	; 0x2c
20009536:	0093      	lsls	r3, r2, #2
20009538:	189b      	adds	r3, r3, r2
2000953a:	009b      	lsls	r3, r3, #2
2000953c:	58eb      	ldr	r3, [r5, r3]
2000953e:	2b01      	cmp	r3, #1
20009540:	d900      	bls.n	20009544 <xTaskIncrementTick+0x13c>
20009542:	2601      	movs	r6, #1
20009544:	4b22      	ldr	r3, [pc, #136]	; (200095d0 <xTaskIncrementTick+0x1c8>)
20009546:	681b      	ldr	r3, [r3, #0]
20009548:	2b00      	cmp	r3, #0
2000954a:	d016      	beq.n	2000957a <xTaskIncrementTick+0x172>
2000954c:	4b21      	ldr	r3, [pc, #132]	; (200095d4 <xTaskIncrementTick+0x1cc>)
2000954e:	681b      	ldr	r3, [r3, #0]
20009550:	2b00      	cmp	r3, #0
20009552:	d000      	beq.n	20009556 <xTaskIncrementTick+0x14e>
20009554:	2601      	movs	r6, #1
20009556:	0030      	movs	r0, r6
20009558:	b003      	add	sp, #12
2000955a:	bcf0      	pop	{r4, r5, r6, r7}
2000955c:	46bb      	mov	fp, r7
2000955e:	46b2      	mov	sl, r6
20009560:	46a9      	mov	r9, r5
20009562:	46a0      	mov	r8, r4
20009564:	bdf0      	pop	{r4, r5, r6, r7, pc}
20009566:	6050      	str	r0, [r2, #4]
20009568:	e78c      	b.n	20009484 <xTaskIncrementTick+0x7c>
2000956a:	4a19      	ldr	r2, [pc, #100]	; (200095d0 <xTaskIncrementTick+0x1c8>)
2000956c:	2600      	movs	r6, #0
2000956e:	6813      	ldr	r3, [r2, #0]
20009570:	3301      	adds	r3, #1
20009572:	6013      	str	r3, [r2, #0]
20009574:	f7f9 f9f0 	bl	20002958 <vApplicationTickHook>
20009578:	e7ed      	b.n	20009556 <xTaskIncrementTick+0x14e>
2000957a:	f7f9 f9ed 	bl	20002958 <vApplicationTickHook>
2000957e:	e7e5      	b.n	2000954c <xTaskIncrementTick+0x144>
20009580:	681b      	ldr	r3, [r3, #0]
20009582:	4a0c      	ldr	r2, [pc, #48]	; (200095b4 <xTaskIncrementTick+0x1ac>)
20009584:	68db      	ldr	r3, [r3, #12]
20009586:	9201      	str	r2, [sp, #4]
20009588:	681b      	ldr	r3, [r3, #0]
2000958a:	6013      	str	r3, [r2, #0]
2000958c:	0013      	movs	r3, r2
2000958e:	e750      	b.n	20009432 <xTaskIncrementTick+0x2a>
20009590:	9b01      	ldr	r3, [sp, #4]
20009592:	4666      	mov	r6, ip
20009594:	601a      	str	r2, [r3, #0]
20009596:	e7cb      	b.n	20009530 <xTaskIncrementTick+0x128>
20009598:	4666      	mov	r6, ip
2000959a:	2301      	movs	r3, #1
2000959c:	9a01      	ldr	r2, [sp, #4]
2000959e:	425b      	negs	r3, r3
200095a0:	6013      	str	r3, [r2, #0]
200095a2:	e7c5      	b.n	20009530 <xTaskIncrementTick+0x128>
200095a4:	4b06      	ldr	r3, [pc, #24]	; (200095c0 <xTaskIncrementTick+0x1b8>)
200095a6:	469a      	mov	sl, r3
200095a8:	e7f7      	b.n	2000959a <xTaskIncrementTick+0x192>
200095aa:	46c0      	nop			; (mov r8, r8)
200095ac:	200217fc 	.word	0x200217fc
200095b0:	200218b4 	.word	0x200218b4
200095b4:	20021868 	.word	0x20021868
200095b8:	2001150c 	.word	0x2001150c
200095bc:	20011518 	.word	0x20011518
200095c0:	20011504 	.word	0x20011504
200095c4:	20021804 	.word	0x20021804
200095c8:	20011510 	.word	0x20011510
200095cc:	2002186c 	.word	0x2002186c
200095d0:	20021870 	.word	0x20021870
200095d4:	200218c0 	.word	0x200218c0

200095d8 <xTaskResumeAll>:
200095d8:	b5f0      	push	{r4, r5, r6, r7, lr}
200095da:	46de      	mov	lr, fp
200095dc:	4657      	mov	r7, sl
200095de:	464e      	mov	r6, r9
200095e0:	4645      	mov	r5, r8
200095e2:	b5e0      	push	{r5, r6, r7, lr}
200095e4:	b083      	sub	sp, #12
200095e6:	f7fe fdad 	bl	20008144 <vPortEnterCritical>
200095ea:	4b4d      	ldr	r3, [pc, #308]	; (20009720 <xTaskResumeAll+0x148>)
200095ec:	681a      	ldr	r2, [r3, #0]
200095ee:	3a01      	subs	r2, #1
200095f0:	601a      	str	r2, [r3, #0]
200095f2:	681b      	ldr	r3, [r3, #0]
200095f4:	2b00      	cmp	r3, #0
200095f6:	d160      	bne.n	200096ba <xTaskResumeAll+0xe2>
200095f8:	4b4a      	ldr	r3, [pc, #296]	; (20009724 <xTaskResumeAll+0x14c>)
200095fa:	681b      	ldr	r3, [r3, #0]
200095fc:	2b00      	cmp	r3, #0
200095fe:	d05c      	beq.n	200096ba <xTaskResumeAll+0xe2>
20009600:	4b49      	ldr	r3, [pc, #292]	; (20009728 <xTaskResumeAll+0x150>)
20009602:	469c      	mov	ip, r3
20009604:	681b      	ldr	r3, [r3, #0]
20009606:	2b00      	cmp	r3, #0
20009608:	d100      	bne.n	2000960c <xTaskResumeAll+0x34>
2000960a:	e087      	b.n	2000971c <xTaskResumeAll+0x144>
2000960c:	4b47      	ldr	r3, [pc, #284]	; (2000972c <xTaskResumeAll+0x154>)
2000960e:	4e48      	ldr	r6, [pc, #288]	; (20009730 <xTaskResumeAll+0x158>)
20009610:	4698      	mov	r8, r3
20009612:	4b48      	ldr	r3, [pc, #288]	; (20009734 <xTaskResumeAll+0x15c>)
20009614:	4d48      	ldr	r5, [pc, #288]	; (20009738 <xTaskResumeAll+0x160>)
20009616:	469a      	mov	sl, r3
20009618:	2300      	movs	r3, #0
2000961a:	4699      	mov	r9, r3
2000961c:	3301      	adds	r3, #1
2000961e:	469b      	mov	fp, r3
20009620:	9601      	str	r6, [sp, #4]
20009622:	4663      	mov	r3, ip
20009624:	68db      	ldr	r3, [r3, #12]
20009626:	68db      	ldr	r3, [r3, #12]
20009628:	69d8      	ldr	r0, [r3, #28]
2000962a:	6a19      	ldr	r1, [r3, #32]
2000962c:	6a9a      	ldr	r2, [r3, #40]	; 0x28
2000962e:	6081      	str	r1, [r0, #8]
20009630:	6048      	str	r0, [r1, #4]
20009632:	0018      	movs	r0, r3
20009634:	6854      	ldr	r4, [r2, #4]
20009636:	3018      	adds	r0, #24
20009638:	4284      	cmp	r4, r0
2000963a:	d06d      	beq.n	20009718 <xTaskResumeAll+0x140>
2000963c:	4649      	mov	r1, r9
2000963e:	6299      	str	r1, [r3, #40]	; 0x28
20009640:	6811      	ldr	r1, [r2, #0]
20009642:	3901      	subs	r1, #1
20009644:	6011      	str	r1, [r2, #0]
20009646:	695a      	ldr	r2, [r3, #20]
20009648:	6898      	ldr	r0, [r3, #8]
2000964a:	68d9      	ldr	r1, [r3, #12]
2000964c:	6854      	ldr	r4, [r2, #4]
2000964e:	6081      	str	r1, [r0, #8]
20009650:	6048      	str	r0, [r1, #4]
20009652:	1d18      	adds	r0, r3, #4
20009654:	4284      	cmp	r4, r0
20009656:	d05d      	beq.n	20009714 <xTaskResumeAll+0x13c>
20009658:	6811      	ldr	r1, [r2, #0]
2000965a:	3901      	subs	r1, #1
2000965c:	6011      	str	r1, [r2, #0]
2000965e:	4641      	mov	r1, r8
20009660:	6ada      	ldr	r2, [r3, #44]	; 0x2c
20009662:	6809      	ldr	r1, [r1, #0]
20009664:	428a      	cmp	r2, r1
20009666:	d901      	bls.n	2000966c <xTaskResumeAll+0x94>
20009668:	4641      	mov	r1, r8
2000966a:	600a      	str	r2, [r1, #0]
2000966c:	0091      	lsls	r1, r2, #2
2000966e:	1889      	adds	r1, r1, r2
20009670:	008f      	lsls	r7, r1, #2
20009672:	19ec      	adds	r4, r5, r7
20009674:	6861      	ldr	r1, [r4, #4]
20009676:	688e      	ldr	r6, [r1, #8]
20009678:	6099      	str	r1, [r3, #8]
2000967a:	60de      	str	r6, [r3, #12]
2000967c:	688e      	ldr	r6, [r1, #8]
2000967e:	6070      	str	r0, [r6, #4]
20009680:	6088      	str	r0, [r1, #8]
20009682:	615c      	str	r4, [r3, #20]
20009684:	59eb      	ldr	r3, [r5, r7]
20009686:	3301      	adds	r3, #1
20009688:	51eb      	str	r3, [r5, r7]
2000968a:	4653      	mov	r3, sl
2000968c:	681b      	ldr	r3, [r3, #0]
2000968e:	6adb      	ldr	r3, [r3, #44]	; 0x2c
20009690:	429a      	cmp	r2, r3
20009692:	d31d      	bcc.n	200096d0 <xTaskResumeAll+0xf8>
20009694:	465b      	mov	r3, fp
20009696:	9a01      	ldr	r2, [sp, #4]
20009698:	6013      	str	r3, [r2, #0]
2000969a:	4663      	mov	r3, ip
2000969c:	681b      	ldr	r3, [r3, #0]
2000969e:	2b00      	cmp	r3, #0
200096a0:	d1bf      	bne.n	20009622 <xTaskResumeAll+0x4a>
200096a2:	4b26      	ldr	r3, [pc, #152]	; (2000973c <xTaskResumeAll+0x164>)
200096a4:	0016      	movs	r6, r2
200096a6:	681a      	ldr	r2, [r3, #0]
200096a8:	6812      	ldr	r2, [r2, #0]
200096aa:	2a00      	cmp	r2, #0
200096ac:	d01a      	beq.n	200096e4 <xTaskResumeAll+0x10c>
200096ae:	681b      	ldr	r3, [r3, #0]
200096b0:	68db      	ldr	r3, [r3, #12]
200096b2:	681a      	ldr	r2, [r3, #0]
200096b4:	4b22      	ldr	r3, [pc, #136]	; (20009740 <xTaskResumeAll+0x168>)
200096b6:	601a      	str	r2, [r3, #0]
200096b8:	e017      	b.n	200096ea <xTaskResumeAll+0x112>
200096ba:	2400      	movs	r4, #0
200096bc:	f7fe fd4e 	bl	2000815c <vPortExitCritical>
200096c0:	0020      	movs	r0, r4
200096c2:	b003      	add	sp, #12
200096c4:	bcf0      	pop	{r4, r5, r6, r7}
200096c6:	46bb      	mov	fp, r7
200096c8:	46b2      	mov	sl, r6
200096ca:	46a9      	mov	r9, r5
200096cc:	46a0      	mov	r8, r4
200096ce:	bdf0      	pop	{r4, r5, r6, r7, pc}
200096d0:	4663      	mov	r3, ip
200096d2:	681b      	ldr	r3, [r3, #0]
200096d4:	2b00      	cmp	r3, #0
200096d6:	d1a4      	bne.n	20009622 <xTaskResumeAll+0x4a>
200096d8:	4b18      	ldr	r3, [pc, #96]	; (2000973c <xTaskResumeAll+0x164>)
200096da:	9e01      	ldr	r6, [sp, #4]
200096dc:	681a      	ldr	r2, [r3, #0]
200096de:	6812      	ldr	r2, [r2, #0]
200096e0:	2a00      	cmp	r2, #0
200096e2:	d1e4      	bne.n	200096ae <xTaskResumeAll+0xd6>
200096e4:	4b16      	ldr	r3, [pc, #88]	; (20009740 <xTaskResumeAll+0x168>)
200096e6:	3a01      	subs	r2, #1
200096e8:	601a      	str	r2, [r3, #0]
200096ea:	4f16      	ldr	r7, [pc, #88]	; (20009744 <xTaskResumeAll+0x16c>)
200096ec:	683c      	ldr	r4, [r7, #0]
200096ee:	2c00      	cmp	r4, #0
200096f0:	d009      	beq.n	20009706 <xTaskResumeAll+0x12e>
200096f2:	2501      	movs	r5, #1
200096f4:	f7ff fe88 	bl	20009408 <xTaskIncrementTick>
200096f8:	2800      	cmp	r0, #0
200096fa:	d000      	beq.n	200096fe <xTaskResumeAll+0x126>
200096fc:	6035      	str	r5, [r6, #0]
200096fe:	3c01      	subs	r4, #1
20009700:	2c00      	cmp	r4, #0
20009702:	d1f7      	bne.n	200096f4 <xTaskResumeAll+0x11c>
20009704:	603c      	str	r4, [r7, #0]
20009706:	6833      	ldr	r3, [r6, #0]
20009708:	2b00      	cmp	r3, #0
2000970a:	d0d6      	beq.n	200096ba <xTaskResumeAll+0xe2>
2000970c:	f7fe fd0e 	bl	2000812c <vPortYield>
20009710:	2401      	movs	r4, #1
20009712:	e7d3      	b.n	200096bc <xTaskResumeAll+0xe4>
20009714:	6051      	str	r1, [r2, #4]
20009716:	e79f      	b.n	20009658 <xTaskResumeAll+0x80>
20009718:	6051      	str	r1, [r2, #4]
2000971a:	e78f      	b.n	2000963c <xTaskResumeAll+0x64>
2000971c:	4e04      	ldr	r6, [pc, #16]	; (20009730 <xTaskResumeAll+0x158>)
2000971e:	e7e4      	b.n	200096ea <xTaskResumeAll+0x112>
20009720:	200217fc 	.word	0x200217fc
20009724:	200217f4 	.word	0x200217f4
20009728:	20021874 	.word	0x20021874
2000972c:	20021804 	.word	0x20021804
20009730:	200218c0 	.word	0x200218c0
20009734:	20011504 	.word	0x20011504
20009738:	20011518 	.word	0x20011518
2000973c:	2001150c 	.word	0x2001150c
20009740:	20021868 	.word	0x20021868
20009744:	20021870 	.word	0x20021870

20009748 <xTaskDelayUntil>:
20009748:	4a22      	ldr	r2, [pc, #136]	; (200097d4 <xTaskDelayUntil+0x8c>)
2000974a:	b5f8      	push	{r3, r4, r5, r6, r7, lr}
2000974c:	6813      	ldr	r3, [r2, #0]
2000974e:	000c      	movs	r4, r1
20009750:	3301      	adds	r3, #1
20009752:	6013      	str	r3, [r2, #0]
20009754:	4920      	ldr	r1, [pc, #128]	; (200097d8 <xTaskDelayUntil+0x90>)
20009756:	6803      	ldr	r3, [r0, #0]
20009758:	680d      	ldr	r5, [r1, #0]
2000975a:	191c      	adds	r4, r3, r4
2000975c:	6004      	str	r4, [r0, #0]
2000975e:	42ab      	cmp	r3, r5
20009760:	d908      	bls.n	20009774 <xTaskDelayUntil+0x2c>
20009762:	42a3      	cmp	r3, r4
20009764:	d808      	bhi.n	20009778 <xTaskDelayUntil+0x30>
20009766:	2500      	movs	r5, #0
20009768:	f7ff ff36 	bl	200095d8 <xTaskResumeAll>
2000976c:	2800      	cmp	r0, #0
2000976e:	d020      	beq.n	200097b2 <xTaskDelayUntil+0x6a>
20009770:	0028      	movs	r0, r5
20009772:	bdf8      	pop	{r3, r4, r5, r6, r7, pc}
20009774:	42a3      	cmp	r3, r4
20009776:	d801      	bhi.n	2000977c <xTaskDelayUntil+0x34>
20009778:	42a5      	cmp	r5, r4
2000977a:	d2f4      	bcs.n	20009766 <xTaskDelayUntil+0x1e>
2000977c:	680f      	ldr	r7, [r1, #0]
2000977e:	236d      	movs	r3, #109	; 0x6d
20009780:	2100      	movs	r1, #0
20009782:	4e16      	ldr	r6, [pc, #88]	; (200097dc <xTaskDelayUntil+0x94>)
20009784:	1b7d      	subs	r5, r7, r5
20009786:	6832      	ldr	r2, [r6, #0]
20009788:	6830      	ldr	r0, [r6, #0]
2000978a:	54d1      	strb	r1, [r2, r3]
2000978c:	3004      	adds	r0, #4
2000978e:	f7fe ffc3 	bl	20008718 <uxListRemove>
20009792:	6833      	ldr	r3, [r6, #0]
20009794:	1964      	adds	r4, r4, r5
20009796:	605c      	str	r4, [r3, #4]
20009798:	42a7      	cmp	r7, r4
2000979a:	d90d      	bls.n	200097b8 <xTaskDelayUntil+0x70>
2000979c:	4b10      	ldr	r3, [pc, #64]	; (200097e0 <xTaskDelayUntil+0x98>)
2000979e:	2501      	movs	r5, #1
200097a0:	6818      	ldr	r0, [r3, #0]
200097a2:	6831      	ldr	r1, [r6, #0]
200097a4:	3104      	adds	r1, #4
200097a6:	f7fe ff9f 	bl	200086e8 <vListInsert>
200097aa:	f7ff ff15 	bl	200095d8 <xTaskResumeAll>
200097ae:	2800      	cmp	r0, #0
200097b0:	d1de      	bne.n	20009770 <xTaskDelayUntil+0x28>
200097b2:	f7fe fcbb 	bl	2000812c <vPortYield>
200097b6:	e7db      	b.n	20009770 <xTaskDelayUntil+0x28>
200097b8:	4b0a      	ldr	r3, [pc, #40]	; (200097e4 <xTaskDelayUntil+0x9c>)
200097ba:	2501      	movs	r5, #1
200097bc:	6818      	ldr	r0, [r3, #0]
200097be:	6831      	ldr	r1, [r6, #0]
200097c0:	3104      	adds	r1, #4
200097c2:	f7fe ff91 	bl	200086e8 <vListInsert>
200097c6:	4b08      	ldr	r3, [pc, #32]	; (200097e8 <xTaskDelayUntil+0xa0>)
200097c8:	681a      	ldr	r2, [r3, #0]
200097ca:	4294      	cmp	r4, r2
200097cc:	d2cc      	bcs.n	20009768 <xTaskDelayUntil+0x20>
200097ce:	601c      	str	r4, [r3, #0]
200097d0:	e7ca      	b.n	20009768 <xTaskDelayUntil+0x20>
200097d2:	46c0      	nop			; (mov r8, r8)
200097d4:	200217fc 	.word	0x200217fc
200097d8:	200218b4 	.word	0x200218b4
200097dc:	20011504 	.word	0x20011504
200097e0:	20011510 	.word	0x20011510
200097e4:	2001150c 	.word	0x2001150c
200097e8:	20021868 	.word	0x20021868

200097ec <vTaskSwitchContext>:
200097ec:	4b05      	ldr	r3, [pc, #20]	; (20009804 <vTaskSwitchContext+0x18>)
200097ee:	b510      	push	{r4, lr}
200097f0:	681b      	ldr	r3, [r3, #0]
200097f2:	2b00      	cmp	r3, #0
200097f4:	d003      	beq.n	200097fe <vTaskSwitchContext+0x12>
200097f6:	2201      	movs	r2, #1
200097f8:	4b03      	ldr	r3, [pc, #12]	; (20009808 <vTaskSwitchContext+0x1c>)
200097fa:	601a      	str	r2, [r3, #0]
200097fc:	bd10      	pop	{r4, pc}
200097fe:	f7ff fad3 	bl	20008da8 <vTaskSwitchContext.part.0>
20009802:	e7fb      	b.n	200097fc <vTaskSwitchContext+0x10>
20009804:	200217fc 	.word	0x200217fc
20009808:	200218c0 	.word	0x200218c0

2000980c <vTaskPlaceOnEventList>:
2000980c:	b570      	push	{r4, r5, r6, lr}
2000980e:	4d1f      	ldr	r5, [pc, #124]	; (2000988c <vTaskPlaceOnEventList+0x80>)
20009810:	000c      	movs	r4, r1
20009812:	6829      	ldr	r1, [r5, #0]
20009814:	3118      	adds	r1, #24
20009816:	f7fe ff67 	bl	200086e8 <vListInsert>
2000981a:	4b1d      	ldr	r3, [pc, #116]	; (20009890 <vTaskPlaceOnEventList+0x84>)
2000981c:	2100      	movs	r1, #0
2000981e:	681e      	ldr	r6, [r3, #0]
20009820:	236d      	movs	r3, #109	; 0x6d
20009822:	682a      	ldr	r2, [r5, #0]
20009824:	6828      	ldr	r0, [r5, #0]
20009826:	54d1      	strb	r1, [r2, r3]
20009828:	3004      	adds	r0, #4
2000982a:	f7fe ff75 	bl	20008718 <uxListRemove>
2000982e:	1c63      	adds	r3, r4, #1
20009830:	d017      	beq.n	20009862 <vTaskPlaceOnEventList+0x56>
20009832:	682b      	ldr	r3, [r5, #0]
20009834:	19a4      	adds	r4, r4, r6
20009836:	605c      	str	r4, [r3, #4]
20009838:	42a6      	cmp	r6, r4
2000983a:	d906      	bls.n	2000984a <vTaskPlaceOnEventList+0x3e>
2000983c:	4b15      	ldr	r3, [pc, #84]	; (20009894 <vTaskPlaceOnEventList+0x88>)
2000983e:	6818      	ldr	r0, [r3, #0]
20009840:	6829      	ldr	r1, [r5, #0]
20009842:	3104      	adds	r1, #4
20009844:	f7fe ff50 	bl	200086e8 <vListInsert>
20009848:	bd70      	pop	{r4, r5, r6, pc}
2000984a:	4b13      	ldr	r3, [pc, #76]	; (20009898 <vTaskPlaceOnEventList+0x8c>)
2000984c:	6818      	ldr	r0, [r3, #0]
2000984e:	6829      	ldr	r1, [r5, #0]
20009850:	3104      	adds	r1, #4
20009852:	f7fe ff49 	bl	200086e8 <vListInsert>
20009856:	4b11      	ldr	r3, [pc, #68]	; (2000989c <vTaskPlaceOnEventList+0x90>)
20009858:	681a      	ldr	r2, [r3, #0]
2000985a:	4294      	cmp	r4, r2
2000985c:	d2f4      	bcs.n	20009848 <vTaskPlaceOnEventList+0x3c>
2000985e:	601c      	str	r4, [r3, #0]
20009860:	e7f2      	b.n	20009848 <vTaskPlaceOnEventList+0x3c>
20009862:	4b0f      	ldr	r3, [pc, #60]	; (200098a0 <vTaskPlaceOnEventList+0x94>)
20009864:	6829      	ldr	r1, [r5, #0]
20009866:	685a      	ldr	r2, [r3, #4]
20009868:	6890      	ldr	r0, [r2, #8]
2000986a:	608a      	str	r2, [r1, #8]
2000986c:	6829      	ldr	r1, [r5, #0]
2000986e:	60c8      	str	r0, [r1, #12]
20009870:	6829      	ldr	r1, [r5, #0]
20009872:	6890      	ldr	r0, [r2, #8]
20009874:	3104      	adds	r1, #4
20009876:	6041      	str	r1, [r0, #4]
20009878:	6829      	ldr	r1, [r5, #0]
2000987a:	3104      	adds	r1, #4
2000987c:	6091      	str	r1, [r2, #8]
2000987e:	682a      	ldr	r2, [r5, #0]
20009880:	6153      	str	r3, [r2, #20]
20009882:	681a      	ldr	r2, [r3, #0]
20009884:	3201      	adds	r2, #1
20009886:	601a      	str	r2, [r3, #0]
20009888:	e7de      	b.n	20009848 <vTaskPlaceOnEventList+0x3c>
2000988a:	46c0      	nop			; (mov r8, r8)
2000988c:	20011504 	.word	0x20011504
20009890:	200218b4 	.word	0x200218b4
20009894:	20011510 	.word	0x20011510
20009898:	2001150c 	.word	0x2001150c
2000989c:	20021868 	.word	0x20021868
200098a0:	2002188c 	.word	0x2002188c

200098a4 <vTaskPlaceOnUnorderedEventList>:
200098a4:	2380      	movs	r3, #128	; 0x80
200098a6:	b570      	push	{r4, r5, r6, lr}
200098a8:	4c27      	ldr	r4, [pc, #156]	; (20009948 <vTaskPlaceOnUnorderedEventList+0xa4>)
200098aa:	0015      	movs	r5, r2
200098ac:	061b      	lsls	r3, r3, #24
200098ae:	6822      	ldr	r2, [r4, #0]
200098b0:	430b      	orrs	r3, r1
200098b2:	6193      	str	r3, [r2, #24]
200098b4:	6843      	ldr	r3, [r0, #4]
200098b6:	6822      	ldr	r2, [r4, #0]
200098b8:	6899      	ldr	r1, [r3, #8]
200098ba:	61d3      	str	r3, [r2, #28]
200098bc:	6822      	ldr	r2, [r4, #0]
200098be:	6211      	str	r1, [r2, #32]
200098c0:	6822      	ldr	r2, [r4, #0]
200098c2:	6899      	ldr	r1, [r3, #8]
200098c4:	3218      	adds	r2, #24
200098c6:	604a      	str	r2, [r1, #4]
200098c8:	6822      	ldr	r2, [r4, #0]
200098ca:	2100      	movs	r1, #0
200098cc:	3218      	adds	r2, #24
200098ce:	609a      	str	r2, [r3, #8]
200098d0:	6823      	ldr	r3, [r4, #0]
200098d2:	6298      	str	r0, [r3, #40]	; 0x28
200098d4:	6803      	ldr	r3, [r0, #0]
200098d6:	3301      	adds	r3, #1
200098d8:	6003      	str	r3, [r0, #0]
200098da:	4b1c      	ldr	r3, [pc, #112]	; (2000994c <vTaskPlaceOnUnorderedEventList+0xa8>)
200098dc:	681e      	ldr	r6, [r3, #0]
200098de:	236d      	movs	r3, #109	; 0x6d
200098e0:	6822      	ldr	r2, [r4, #0]
200098e2:	6820      	ldr	r0, [r4, #0]
200098e4:	54d1      	strb	r1, [r2, r3]
200098e6:	3004      	adds	r0, #4
200098e8:	f7fe ff16 	bl	20008718 <uxListRemove>
200098ec:	1c6b      	adds	r3, r5, #1
200098ee:	d017      	beq.n	20009920 <vTaskPlaceOnUnorderedEventList+0x7c>
200098f0:	6823      	ldr	r3, [r4, #0]
200098f2:	19ad      	adds	r5, r5, r6
200098f4:	605d      	str	r5, [r3, #4]
200098f6:	42ae      	cmp	r6, r5
200098f8:	d906      	bls.n	20009908 <vTaskPlaceOnUnorderedEventList+0x64>
200098fa:	4b15      	ldr	r3, [pc, #84]	; (20009950 <vTaskPlaceOnUnorderedEventList+0xac>)
200098fc:	6818      	ldr	r0, [r3, #0]
200098fe:	6821      	ldr	r1, [r4, #0]
20009900:	3104      	adds	r1, #4
20009902:	f7fe fef1 	bl	200086e8 <vListInsert>
20009906:	bd70      	pop	{r4, r5, r6, pc}
20009908:	4b12      	ldr	r3, [pc, #72]	; (20009954 <vTaskPlaceOnUnorderedEventList+0xb0>)
2000990a:	6818      	ldr	r0, [r3, #0]
2000990c:	6821      	ldr	r1, [r4, #0]
2000990e:	3104      	adds	r1, #4
20009910:	f7fe feea 	bl	200086e8 <vListInsert>
20009914:	4b10      	ldr	r3, [pc, #64]	; (20009958 <vTaskPlaceOnUnorderedEventList+0xb4>)
20009916:	681a      	ldr	r2, [r3, #0]
20009918:	4295      	cmp	r5, r2
2000991a:	d2f4      	bcs.n	20009906 <vTaskPlaceOnUnorderedEventList+0x62>
2000991c:	601d      	str	r5, [r3, #0]
2000991e:	e7f2      	b.n	20009906 <vTaskPlaceOnUnorderedEventList+0x62>
20009920:	4b0e      	ldr	r3, [pc, #56]	; (2000995c <vTaskPlaceOnUnorderedEventList+0xb8>)
20009922:	6821      	ldr	r1, [r4, #0]
20009924:	685a      	ldr	r2, [r3, #4]
20009926:	6890      	ldr	r0, [r2, #8]
20009928:	608a      	str	r2, [r1, #8]
2000992a:	6821      	ldr	r1, [r4, #0]
2000992c:	60c8      	str	r0, [r1, #12]
2000992e:	6821      	ldr	r1, [r4, #0]
20009930:	6890      	ldr	r0, [r2, #8]
20009932:	3104      	adds	r1, #4
20009934:	6041      	str	r1, [r0, #4]
20009936:	6821      	ldr	r1, [r4, #0]
20009938:	3104      	adds	r1, #4
2000993a:	6091      	str	r1, [r2, #8]
2000993c:	6822      	ldr	r2, [r4, #0]
2000993e:	6153      	str	r3, [r2, #20]
20009940:	681a      	ldr	r2, [r3, #0]
20009942:	3201      	adds	r2, #1
20009944:	601a      	str	r2, [r3, #0]
20009946:	e7de      	b.n	20009906 <vTaskPlaceOnUnorderedEventList+0x62>
20009948:	20011504 	.word	0x20011504
2000994c:	200218b4 	.word	0x200218b4
20009950:	20011510 	.word	0x20011510
20009954:	2001150c 	.word	0x2001150c
20009958:	20021868 	.word	0x20021868
2000995c:	2002188c 	.word	0x2002188c

20009960 <vTaskPlaceOnEventListRestricted>:
20009960:	b570      	push	{r4, r5, r6, lr}
20009962:	4c2a      	ldr	r4, [pc, #168]	; (20009a0c <vTaskPlaceOnEventListRestricted+0xac>)
20009964:	6843      	ldr	r3, [r0, #4]
20009966:	000d      	movs	r5, r1
20009968:	6821      	ldr	r1, [r4, #0]
2000996a:	689e      	ldr	r6, [r3, #8]
2000996c:	61cb      	str	r3, [r1, #28]
2000996e:	6821      	ldr	r1, [r4, #0]
20009970:	620e      	str	r6, [r1, #32]
20009972:	6821      	ldr	r1, [r4, #0]
20009974:	689e      	ldr	r6, [r3, #8]
20009976:	3118      	adds	r1, #24
20009978:	6071      	str	r1, [r6, #4]
2000997a:	6821      	ldr	r1, [r4, #0]
2000997c:	3118      	adds	r1, #24
2000997e:	6099      	str	r1, [r3, #8]
20009980:	6823      	ldr	r3, [r4, #0]
20009982:	6298      	str	r0, [r3, #40]	; 0x28
20009984:	6803      	ldr	r3, [r0, #0]
20009986:	3301      	adds	r3, #1
20009988:	6003      	str	r3, [r0, #0]
2000998a:	4b21      	ldr	r3, [pc, #132]	; (20009a10 <vTaskPlaceOnEventListRestricted+0xb0>)
2000998c:	2a00      	cmp	r2, #0
2000998e:	d01c      	beq.n	200099ca <vTaskPlaceOnEventListRestricted+0x6a>
20009990:	681b      	ldr	r3, [r3, #0]
20009992:	2100      	movs	r1, #0
20009994:	236d      	movs	r3, #109	; 0x6d
20009996:	6822      	ldr	r2, [r4, #0]
20009998:	6820      	ldr	r0, [r4, #0]
2000999a:	54d1      	strb	r1, [r2, r3]
2000999c:	3004      	adds	r0, #4
2000999e:	f7fe febb 	bl	20008718 <uxListRemove>
200099a2:	4b1c      	ldr	r3, [pc, #112]	; (20009a14 <vTaskPlaceOnEventListRestricted+0xb4>)
200099a4:	6821      	ldr	r1, [r4, #0]
200099a6:	685a      	ldr	r2, [r3, #4]
200099a8:	6890      	ldr	r0, [r2, #8]
200099aa:	608a      	str	r2, [r1, #8]
200099ac:	6821      	ldr	r1, [r4, #0]
200099ae:	60c8      	str	r0, [r1, #12]
200099b0:	6821      	ldr	r1, [r4, #0]
200099b2:	6890      	ldr	r0, [r2, #8]
200099b4:	3104      	adds	r1, #4
200099b6:	6041      	str	r1, [r0, #4]
200099b8:	6821      	ldr	r1, [r4, #0]
200099ba:	3104      	adds	r1, #4
200099bc:	6091      	str	r1, [r2, #8]
200099be:	6822      	ldr	r2, [r4, #0]
200099c0:	6153      	str	r3, [r2, #20]
200099c2:	681a      	ldr	r2, [r3, #0]
200099c4:	3201      	adds	r2, #1
200099c6:	601a      	str	r2, [r3, #0]
200099c8:	bd70      	pop	{r4, r5, r6, pc}
200099ca:	681e      	ldr	r6, [r3, #0]
200099cc:	236d      	movs	r3, #109	; 0x6d
200099ce:	6821      	ldr	r1, [r4, #0]
200099d0:	6820      	ldr	r0, [r4, #0]
200099d2:	54ca      	strb	r2, [r1, r3]
200099d4:	3004      	adds	r0, #4
200099d6:	f7fe fe9f 	bl	20008718 <uxListRemove>
200099da:	6823      	ldr	r3, [r4, #0]
200099dc:	19ad      	adds	r5, r5, r6
200099de:	605d      	str	r5, [r3, #4]
200099e0:	42ae      	cmp	r6, r5
200099e2:	d80b      	bhi.n	200099fc <vTaskPlaceOnEventListRestricted+0x9c>
200099e4:	4b0c      	ldr	r3, [pc, #48]	; (20009a18 <vTaskPlaceOnEventListRestricted+0xb8>)
200099e6:	6818      	ldr	r0, [r3, #0]
200099e8:	6821      	ldr	r1, [r4, #0]
200099ea:	3104      	adds	r1, #4
200099ec:	f7fe fe7c 	bl	200086e8 <vListInsert>
200099f0:	4b0a      	ldr	r3, [pc, #40]	; (20009a1c <vTaskPlaceOnEventListRestricted+0xbc>)
200099f2:	681a      	ldr	r2, [r3, #0]
200099f4:	4295      	cmp	r5, r2
200099f6:	d2e7      	bcs.n	200099c8 <vTaskPlaceOnEventListRestricted+0x68>
200099f8:	601d      	str	r5, [r3, #0]
200099fa:	e7e5      	b.n	200099c8 <vTaskPlaceOnEventListRestricted+0x68>
200099fc:	4b08      	ldr	r3, [pc, #32]	; (20009a20 <vTaskPlaceOnEventListRestricted+0xc0>)
200099fe:	6818      	ldr	r0, [r3, #0]
20009a00:	6821      	ldr	r1, [r4, #0]
20009a02:	3104      	adds	r1, #4
20009a04:	f7fe fe70 	bl	200086e8 <vListInsert>
20009a08:	e7de      	b.n	200099c8 <vTaskPlaceOnEventListRestricted+0x68>
20009a0a:	46c0      	nop			; (mov r8, r8)
20009a0c:	20011504 	.word	0x20011504
20009a10:	200218b4 	.word	0x200218b4
20009a14:	2002188c 	.word	0x2002188c
20009a18:	2001150c 	.word	0x2001150c
20009a1c:	20021868 	.word	0x20021868
20009a20:	20011510 	.word	0x20011510

20009a24 <xTaskRemoveFromEventList>:
20009a24:	68c3      	ldr	r3, [r0, #12]
20009a26:	b5f0      	push	{r4, r5, r6, r7, lr}
20009a28:	68db      	ldr	r3, [r3, #12]
20009a2a:	69d8      	ldr	r0, [r3, #28]
20009a2c:	6a19      	ldr	r1, [r3, #32]
20009a2e:	6a9a      	ldr	r2, [r3, #40]	; 0x28
20009a30:	6081      	str	r1, [r0, #8]
20009a32:	6048      	str	r0, [r1, #4]
20009a34:	0018      	movs	r0, r3
20009a36:	6854      	ldr	r4, [r2, #4]
20009a38:	3018      	adds	r0, #24
20009a3a:	4284      	cmp	r4, r0
20009a3c:	d045      	beq.n	20009aca <xTaskRemoveFromEventList+0xa6>
20009a3e:	2100      	movs	r1, #0
20009a40:	6299      	str	r1, [r3, #40]	; 0x28
20009a42:	6811      	ldr	r1, [r2, #0]
20009a44:	3901      	subs	r1, #1
20009a46:	6011      	str	r1, [r2, #0]
20009a48:	4a26      	ldr	r2, [pc, #152]	; (20009ae4 <xTaskRemoveFromEventList+0xc0>)
20009a4a:	6812      	ldr	r2, [r2, #0]
20009a4c:	2a00      	cmp	r2, #0
20009a4e:	d12c      	bne.n	20009aaa <xTaskRemoveFromEventList+0x86>
20009a50:	6899      	ldr	r1, [r3, #8]
20009a52:	68d8      	ldr	r0, [r3, #12]
20009a54:	695a      	ldr	r2, [r3, #20]
20009a56:	6088      	str	r0, [r1, #8]
20009a58:	68d8      	ldr	r0, [r3, #12]
20009a5a:	1d1d      	adds	r5, r3, #4
20009a5c:	6041      	str	r1, [r0, #4]
20009a5e:	6851      	ldr	r1, [r2, #4]
20009a60:	42a9      	cmp	r1, r5
20009a62:	d034      	beq.n	20009ace <xTaskRemoveFromEventList+0xaa>
20009a64:	6811      	ldr	r1, [r2, #0]
20009a66:	3901      	subs	r1, #1
20009a68:	6011      	str	r1, [r2, #0]
20009a6a:	4a1f      	ldr	r2, [pc, #124]	; (20009ae8 <xTaskRemoveFromEventList+0xc4>)
20009a6c:	6ad9      	ldr	r1, [r3, #44]	; 0x2c
20009a6e:	6810      	ldr	r0, [r2, #0]
20009a70:	4281      	cmp	r1, r0
20009a72:	d828      	bhi.n	20009ac6 <xTaskRemoveFromEventList+0xa2>
20009a74:	008a      	lsls	r2, r1, #2
20009a76:	4c1d      	ldr	r4, [pc, #116]	; (20009aec <xTaskRemoveFromEventList+0xc8>)
20009a78:	1852      	adds	r2, r2, r1
20009a7a:	0092      	lsls	r2, r2, #2
20009a7c:	18a6      	adds	r6, r4, r2
20009a7e:	6870      	ldr	r0, [r6, #4]
20009a80:	6887      	ldr	r7, [r0, #8]
20009a82:	6098      	str	r0, [r3, #8]
20009a84:	60df      	str	r7, [r3, #12]
20009a86:	6887      	ldr	r7, [r0, #8]
20009a88:	607d      	str	r5, [r7, #4]
20009a8a:	6085      	str	r5, [r0, #8]
20009a8c:	615e      	str	r6, [r3, #20]
20009a8e:	58a3      	ldr	r3, [r4, r2]
20009a90:	3301      	adds	r3, #1
20009a92:	50a3      	str	r3, [r4, r2]
20009a94:	4b16      	ldr	r3, [pc, #88]	; (20009af0 <xTaskRemoveFromEventList+0xcc>)
20009a96:	2000      	movs	r0, #0
20009a98:	681b      	ldr	r3, [r3, #0]
20009a9a:	6adb      	ldr	r3, [r3, #44]	; 0x2c
20009a9c:	428b      	cmp	r3, r1
20009a9e:	d203      	bcs.n	20009aa8 <xTaskRemoveFromEventList+0x84>
20009aa0:	2201      	movs	r2, #1
20009aa2:	4b14      	ldr	r3, [pc, #80]	; (20009af4 <xTaskRemoveFromEventList+0xd0>)
20009aa4:	3001      	adds	r0, #1
20009aa6:	601a      	str	r2, [r3, #0]
20009aa8:	bdf0      	pop	{r4, r5, r6, r7, pc}
20009aaa:	4a13      	ldr	r2, [pc, #76]	; (20009af8 <xTaskRemoveFromEventList+0xd4>)
20009aac:	6851      	ldr	r1, [r2, #4]
20009aae:	688c      	ldr	r4, [r1, #8]
20009ab0:	61d9      	str	r1, [r3, #28]
20009ab2:	621c      	str	r4, [r3, #32]
20009ab4:	688c      	ldr	r4, [r1, #8]
20009ab6:	6060      	str	r0, [r4, #4]
20009ab8:	6088      	str	r0, [r1, #8]
20009aba:	6811      	ldr	r1, [r2, #0]
20009abc:	629a      	str	r2, [r3, #40]	; 0x28
20009abe:	3101      	adds	r1, #1
20009ac0:	6011      	str	r1, [r2, #0]
20009ac2:	6ad9      	ldr	r1, [r3, #44]	; 0x2c
20009ac4:	e7e6      	b.n	20009a94 <xTaskRemoveFromEventList+0x70>
20009ac6:	6011      	str	r1, [r2, #0]
20009ac8:	e7d4      	b.n	20009a74 <xTaskRemoveFromEventList+0x50>
20009aca:	6051      	str	r1, [r2, #4]
20009acc:	e7b7      	b.n	20009a3e <xTaskRemoveFromEventList+0x1a>
20009ace:	6811      	ldr	r1, [r2, #0]
20009ad0:	6050      	str	r0, [r2, #4]
20009ad2:	3901      	subs	r1, #1
20009ad4:	6011      	str	r1, [r2, #0]
20009ad6:	4a04      	ldr	r2, [pc, #16]	; (20009ae8 <xTaskRemoveFromEventList+0xc4>)
20009ad8:	6ad9      	ldr	r1, [r3, #44]	; 0x2c
20009ada:	6810      	ldr	r0, [r2, #0]
20009adc:	4281      	cmp	r1, r0
20009ade:	d9c9      	bls.n	20009a74 <xTaskRemoveFromEventList+0x50>
20009ae0:	e7f1      	b.n	20009ac6 <xTaskRemoveFromEventList+0xa2>
20009ae2:	46c0      	nop			; (mov r8, r8)
20009ae4:	200217fc 	.word	0x200217fc
20009ae8:	20021804 	.word	0x20021804
20009aec:	20011518 	.word	0x20011518
20009af0:	20011504 	.word	0x20011504
20009af4:	200218c0 	.word	0x200218c0
20009af8:	20021874 	.word	0x20021874

20009afc <vTaskRemoveFromUnorderedEventList>:
20009afc:	2380      	movs	r3, #128	; 0x80
20009afe:	061b      	lsls	r3, r3, #24
20009b00:	b5f0      	push	{r4, r5, r6, r7, lr}
20009b02:	430b      	orrs	r3, r1
20009b04:	6884      	ldr	r4, [r0, #8]
20009b06:	6841      	ldr	r1, [r0, #4]
20009b08:	6902      	ldr	r2, [r0, #16]
20009b0a:	6003      	str	r3, [r0, #0]
20009b0c:	68c3      	ldr	r3, [r0, #12]
20009b0e:	608c      	str	r4, [r1, #8]
20009b10:	6884      	ldr	r4, [r0, #8]
20009b12:	6061      	str	r1, [r4, #4]
20009b14:	6851      	ldr	r1, [r2, #4]
20009b16:	4281      	cmp	r1, r0
20009b18:	d030      	beq.n	20009b7c <vTaskRemoveFromUnorderedEventList+0x80>
20009b1a:	2100      	movs	r1, #0
20009b1c:	6101      	str	r1, [r0, #16]
20009b1e:	6811      	ldr	r1, [r2, #0]
20009b20:	68d8      	ldr	r0, [r3, #12]
20009b22:	3901      	subs	r1, #1
20009b24:	6011      	str	r1, [r2, #0]
20009b26:	6899      	ldr	r1, [r3, #8]
20009b28:	695a      	ldr	r2, [r3, #20]
20009b2a:	6088      	str	r0, [r1, #8]
20009b2c:	68d8      	ldr	r0, [r3, #12]
20009b2e:	1d1d      	adds	r5, r3, #4
20009b30:	6041      	str	r1, [r0, #4]
20009b32:	6851      	ldr	r1, [r2, #4]
20009b34:	42a9      	cmp	r1, r5
20009b36:	d023      	beq.n	20009b80 <vTaskRemoveFromUnorderedEventList+0x84>
20009b38:	6811      	ldr	r1, [r2, #0]
20009b3a:	3901      	subs	r1, #1
20009b3c:	6011      	str	r1, [r2, #0]
20009b3e:	4a11      	ldr	r2, [pc, #68]	; (20009b84 <vTaskRemoveFromUnorderedEventList+0x88>)
20009b40:	6ad9      	ldr	r1, [r3, #44]	; 0x2c
20009b42:	6810      	ldr	r0, [r2, #0]
20009b44:	4281      	cmp	r1, r0
20009b46:	d900      	bls.n	20009b4a <vTaskRemoveFromUnorderedEventList+0x4e>
20009b48:	6011      	str	r1, [r2, #0]
20009b4a:	008a      	lsls	r2, r1, #2
20009b4c:	4c0e      	ldr	r4, [pc, #56]	; (20009b88 <vTaskRemoveFromUnorderedEventList+0x8c>)
20009b4e:	1852      	adds	r2, r2, r1
20009b50:	0092      	lsls	r2, r2, #2
20009b52:	18a6      	adds	r6, r4, r2
20009b54:	6870      	ldr	r0, [r6, #4]
20009b56:	6887      	ldr	r7, [r0, #8]
20009b58:	6098      	str	r0, [r3, #8]
20009b5a:	60df      	str	r7, [r3, #12]
20009b5c:	6887      	ldr	r7, [r0, #8]
20009b5e:	607d      	str	r5, [r7, #4]
20009b60:	6085      	str	r5, [r0, #8]
20009b62:	615e      	str	r6, [r3, #20]
20009b64:	58a3      	ldr	r3, [r4, r2]
20009b66:	3301      	adds	r3, #1
20009b68:	50a3      	str	r3, [r4, r2]
20009b6a:	4b08      	ldr	r3, [pc, #32]	; (20009b8c <vTaskRemoveFromUnorderedEventList+0x90>)
20009b6c:	681b      	ldr	r3, [r3, #0]
20009b6e:	6adb      	ldr	r3, [r3, #44]	; 0x2c
20009b70:	4299      	cmp	r1, r3
20009b72:	d902      	bls.n	20009b7a <vTaskRemoveFromUnorderedEventList+0x7e>
20009b74:	2201      	movs	r2, #1
20009b76:	4b06      	ldr	r3, [pc, #24]	; (20009b90 <vTaskRemoveFromUnorderedEventList+0x94>)
20009b78:	601a      	str	r2, [r3, #0]
20009b7a:	bdf0      	pop	{r4, r5, r6, r7, pc}
20009b7c:	6054      	str	r4, [r2, #4]
20009b7e:	e7cc      	b.n	20009b1a <vTaskRemoveFromUnorderedEventList+0x1e>
20009b80:	6050      	str	r0, [r2, #4]
20009b82:	e7d9      	b.n	20009b38 <vTaskRemoveFromUnorderedEventList+0x3c>
20009b84:	20021804 	.word	0x20021804
20009b88:	20011518 	.word	0x20011518
20009b8c:	20011504 	.word	0x20011504
20009b90:	200218c0 	.word	0x200218c0

20009b94 <vTaskInternalSetTimeOutState>:
20009b94:	4b03      	ldr	r3, [pc, #12]	; (20009ba4 <vTaskInternalSetTimeOutState+0x10>)
20009b96:	681b      	ldr	r3, [r3, #0]
20009b98:	6003      	str	r3, [r0, #0]
20009b9a:	4b03      	ldr	r3, [pc, #12]	; (20009ba8 <vTaskInternalSetTimeOutState+0x14>)
20009b9c:	681b      	ldr	r3, [r3, #0]
20009b9e:	6043      	str	r3, [r0, #4]
20009ba0:	4770      	bx	lr
20009ba2:	46c0      	nop			; (mov r8, r8)
20009ba4:	2002186c 	.word	0x2002186c
20009ba8:	200218b4 	.word	0x200218b4

20009bac <xTaskCheckForTimeOut>:
20009bac:	b5f8      	push	{r3, r4, r5, r6, r7, lr}
20009bae:	000e      	movs	r6, r1
20009bb0:	0007      	movs	r7, r0
20009bb2:	f7fe fac7 	bl	20008144 <vPortEnterCritical>
20009bb6:	236d      	movs	r3, #109	; 0x6d
20009bb8:	4c16      	ldr	r4, [pc, #88]	; (20009c14 <xTaskCheckForTimeOut+0x68>)
20009bba:	4a17      	ldr	r2, [pc, #92]	; (20009c18 <xTaskCheckForTimeOut+0x6c>)
20009bbc:	6821      	ldr	r1, [r4, #0]
20009bbe:	6815      	ldr	r5, [r2, #0]
20009bc0:	5ced      	ldrb	r5, [r5, r3]
20009bc2:	2d00      	cmp	r5, #0
20009bc4:	d007      	beq.n	20009bd6 <xTaskCheckForTimeOut+0x2a>
20009bc6:	2100      	movs	r1, #0
20009bc8:	2401      	movs	r4, #1
20009bca:	6812      	ldr	r2, [r2, #0]
20009bcc:	54d1      	strb	r1, [r2, r3]
20009bce:	f7fe fac5 	bl	2000815c <vPortExitCritical>
20009bd2:	0020      	movs	r0, r4
20009bd4:	bdf8      	pop	{r3, r4, r5, r6, r7, pc}
20009bd6:	6833      	ldr	r3, [r6, #0]
20009bd8:	1c5a      	adds	r2, r3, #1
20009bda:	d019      	beq.n	20009c10 <xTaskCheckForTimeOut+0x64>
20009bdc:	480f      	ldr	r0, [pc, #60]	; (20009c1c <xTaskCheckForTimeOut+0x70>)
20009bde:	687a      	ldr	r2, [r7, #4]
20009be0:	4684      	mov	ip, r0
20009be2:	6805      	ldr	r5, [r0, #0]
20009be4:	6838      	ldr	r0, [r7, #0]
20009be6:	42a8      	cmp	r0, r5
20009be8:	d005      	beq.n	20009bf6 <xTaskCheckForTimeOut+0x4a>
20009bea:	428a      	cmp	r2, r1
20009bec:	d803      	bhi.n	20009bf6 <xTaskCheckForTimeOut+0x4a>
20009bee:	2300      	movs	r3, #0
20009bf0:	2401      	movs	r4, #1
20009bf2:	6033      	str	r3, [r6, #0]
20009bf4:	e7eb      	b.n	20009bce <xTaskCheckForTimeOut+0x22>
20009bf6:	1a8d      	subs	r5, r1, r2
20009bf8:	42ab      	cmp	r3, r5
20009bfa:	d9f8      	bls.n	20009bee <xTaskCheckForTimeOut+0x42>
20009bfc:	1a5b      	subs	r3, r3, r1
20009bfe:	189b      	adds	r3, r3, r2
20009c00:	6033      	str	r3, [r6, #0]
20009c02:	4663      	mov	r3, ip
20009c04:	681b      	ldr	r3, [r3, #0]
20009c06:	603b      	str	r3, [r7, #0]
20009c08:	6823      	ldr	r3, [r4, #0]
20009c0a:	2400      	movs	r4, #0
20009c0c:	607b      	str	r3, [r7, #4]
20009c0e:	e7de      	b.n	20009bce <xTaskCheckForTimeOut+0x22>
20009c10:	2400      	movs	r4, #0
20009c12:	e7dc      	b.n	20009bce <xTaskCheckForTimeOut+0x22>
20009c14:	200218b4 	.word	0x200218b4
20009c18:	20011504 	.word	0x20011504
20009c1c:	2002186c 	.word	0x2002186c

20009c20 <vTaskMissedYield>:
20009c20:	2201      	movs	r2, #1
20009c22:	4b01      	ldr	r3, [pc, #4]	; (20009c28 <vTaskMissedYield+0x8>)
20009c24:	601a      	str	r2, [r3, #0]
20009c26:	4770      	bx	lr
20009c28:	200218c0 	.word	0x200218c0

20009c2c <xTaskGetCurrentTaskHandle>:
20009c2c:	4b01      	ldr	r3, [pc, #4]	; (20009c34 <xTaskGetCurrentTaskHandle+0x8>)
20009c2e:	6818      	ldr	r0, [r3, #0]
20009c30:	4770      	bx	lr
20009c32:	46c0      	nop			; (mov r8, r8)
20009c34:	20011504 	.word	0x20011504

20009c38 <xTaskPriorityDisinherit>:
20009c38:	b570      	push	{r4, r5, r6, lr}
20009c3a:	1e04      	subs	r4, r0, #0
20009c3c:	d008      	beq.n	20009c50 <xTaskPriorityDisinherit+0x18>
20009c3e:	6d03      	ldr	r3, [r0, #80]	; 0x50
20009c40:	6ac2      	ldr	r2, [r0, #44]	; 0x2c
20009c42:	6cc1      	ldr	r1, [r0, #76]	; 0x4c
20009c44:	3b01      	subs	r3, #1
20009c46:	6503      	str	r3, [r0, #80]	; 0x50
20009c48:	428a      	cmp	r2, r1
20009c4a:	d001      	beq.n	20009c50 <xTaskPriorityDisinherit+0x18>
20009c4c:	2b00      	cmp	r3, #0
20009c4e:	d001      	beq.n	20009c54 <xTaskPriorityDisinherit+0x1c>
20009c50:	2000      	movs	r0, #0
20009c52:	bd70      	pop	{r4, r5, r6, pc}
20009c54:	1d05      	adds	r5, r0, #4
20009c56:	0028      	movs	r0, r5
20009c58:	f7fe fd5e 	bl	20008718 <uxListRemove>
20009c5c:	2320      	movs	r3, #32
20009c5e:	6ce2      	ldr	r2, [r4, #76]	; 0x4c
20009c60:	1a9b      	subs	r3, r3, r2
20009c62:	61a3      	str	r3, [r4, #24]
20009c64:	4b0b      	ldr	r3, [pc, #44]	; (20009c94 <xTaskPriorityDisinherit+0x5c>)
20009c66:	62e2      	str	r2, [r4, #44]	; 0x2c
20009c68:	6819      	ldr	r1, [r3, #0]
20009c6a:	428a      	cmp	r2, r1
20009c6c:	d900      	bls.n	20009c70 <xTaskPriorityDisinherit+0x38>
20009c6e:	601a      	str	r2, [r3, #0]
20009c70:	0093      	lsls	r3, r2, #2
20009c72:	4909      	ldr	r1, [pc, #36]	; (20009c98 <xTaskPriorityDisinherit+0x60>)
20009c74:	189b      	adds	r3, r3, r2
20009c76:	009b      	lsls	r3, r3, #2
20009c78:	18c8      	adds	r0, r1, r3
20009c7a:	6842      	ldr	r2, [r0, #4]
20009c7c:	6896      	ldr	r6, [r2, #8]
20009c7e:	60a2      	str	r2, [r4, #8]
20009c80:	60e6      	str	r6, [r4, #12]
20009c82:	6896      	ldr	r6, [r2, #8]
20009c84:	6075      	str	r5, [r6, #4]
20009c86:	6095      	str	r5, [r2, #8]
20009c88:	58ca      	ldr	r2, [r1, r3]
20009c8a:	6160      	str	r0, [r4, #20]
20009c8c:	3201      	adds	r2, #1
20009c8e:	2001      	movs	r0, #1
20009c90:	50ca      	str	r2, [r1, r3]
20009c92:	e7de      	b.n	20009c52 <xTaskPriorityDisinherit+0x1a>
20009c94:	20021804 	.word	0x20021804
20009c98:	20011518 	.word	0x20011518

20009c9c <uxTaskResetEventItemValue>:
20009c9c:	4b04      	ldr	r3, [pc, #16]	; (20009cb0 <uxTaskResetEventItemValue+0x14>)
20009c9e:	681a      	ldr	r2, [r3, #0]
20009ca0:	6819      	ldr	r1, [r3, #0]
20009ca2:	6990      	ldr	r0, [r2, #24]
20009ca4:	681a      	ldr	r2, [r3, #0]
20009ca6:	2320      	movs	r3, #32
20009ca8:	6ac9      	ldr	r1, [r1, #44]	; 0x2c
20009caa:	1a5b      	subs	r3, r3, r1
20009cac:	6193      	str	r3, [r2, #24]
20009cae:	4770      	bx	lr
20009cb0:	20011504 	.word	0x20011504

20009cb4 <prvTimerTask>:
20009cb4:	4bd2      	ldr	r3, [pc, #840]	; (2000a000 <prvTimerTask+0x34c>)
20009cb6:	b5f0      	push	{r4, r5, r6, r7, lr}
20009cb8:	46de      	mov	lr, fp
20009cba:	4657      	mov	r7, sl
20009cbc:	464e      	mov	r6, r9
20009cbe:	4645      	mov	r5, r8
20009cc0:	4698      	mov	r8, r3
20009cc2:	4bd0      	ldr	r3, [pc, #832]	; (2000a004 <prvTimerTask+0x350>)
20009cc4:	b5e0      	push	{r5, r6, r7, lr}
20009cc6:	4699      	mov	r9, r3
20009cc8:	4bcf      	ldr	r3, [pc, #828]	; (2000a008 <prvTimerTask+0x354>)
20009cca:	b089      	sub	sp, #36	; 0x24
20009ccc:	469a      	mov	sl, r3
20009cce:	4bcf      	ldr	r3, [pc, #828]	; (2000a00c <prvTimerTask+0x358>)
20009cd0:	469b      	mov	fp, r3
20009cd2:	4643      	mov	r3, r8
20009cd4:	681b      	ldr	r3, [r3, #0]
20009cd6:	681c      	ldr	r4, [r3, #0]
20009cd8:	2c00      	cmp	r4, #0
20009cda:	d100      	bne.n	20009cde <prvTimerTask+0x2a>
20009cdc:	e0c4      	b.n	20009e68 <prvTimerTask+0x1b4>
20009cde:	68db      	ldr	r3, [r3, #12]
20009ce0:	681c      	ldr	r4, [r3, #0]
20009ce2:	f7ff fb7d 	bl	200093e0 <vTaskSuspendAll>
20009ce6:	f7ff fb83 	bl	200093f0 <xTaskGetTickCount>
20009cea:	464b      	mov	r3, r9
20009cec:	681b      	ldr	r3, [r3, #0]
20009cee:	9001      	str	r0, [sp, #4]
20009cf0:	4283      	cmp	r3, r0
20009cf2:	d83d      	bhi.n	20009d70 <prvTimerTask+0xbc>
20009cf4:	464a      	mov	r2, r9
20009cf6:	6010      	str	r0, [r2, #0]
20009cf8:	4284      	cmp	r4, r0
20009cfa:	d800      	bhi.n	20009cfe <prvTimerTask+0x4a>
20009cfc:	e127      	b.n	20009f4e <prvTimerTask+0x29a>
20009cfe:	2200      	movs	r2, #0
20009d00:	9b01      	ldr	r3, [sp, #4]
20009d02:	1ae1      	subs	r1, r4, r3
20009d04:	465b      	mov	r3, fp
20009d06:	6818      	ldr	r0, [r3, #0]
20009d08:	f7fe fffa 	bl	20008d00 <vQueueWaitForMessageRestricted>
20009d0c:	f7ff fc64 	bl	200095d8 <xTaskResumeAll>
20009d10:	2800      	cmp	r0, #0
20009d12:	d100      	bne.n	20009d16 <prvTimerTask+0x62>
20009d14:	e10d      	b.n	20009f32 <prvTimerTask+0x27e>
20009d16:	465b      	mov	r3, fp
20009d18:	2200      	movs	r2, #0
20009d1a:	6818      	ldr	r0, [r3, #0]
20009d1c:	a904      	add	r1, sp, #16
20009d1e:	f7fe feeb 	bl	20008af8 <xQueueReceive>
20009d22:	2800      	cmp	r0, #0
20009d24:	d0d5      	beq.n	20009cd2 <prvTimerTask+0x1e>
20009d26:	9b04      	ldr	r3, [sp, #16]
20009d28:	9301      	str	r3, [sp, #4]
20009d2a:	2b00      	cmp	r3, #0
20009d2c:	da00      	bge.n	20009d30 <prvTimerTask+0x7c>
20009d2e:	e08c      	b.n	20009e4a <prvTimerTask+0x196>
20009d30:	9f06      	ldr	r7, [sp, #24]
20009d32:	697b      	ldr	r3, [r7, #20]
20009d34:	2b00      	cmp	r3, #0
20009d36:	d002      	beq.n	20009d3e <prvTimerTask+0x8a>
20009d38:	1d38      	adds	r0, r7, #4
20009d3a:	f7fe fced 	bl	20008718 <uxListRemove>
20009d3e:	f7ff fb57 	bl	200093f0 <xTaskGetTickCount>
20009d42:	464b      	mov	r3, r9
20009d44:	681b      	ldr	r3, [r3, #0]
20009d46:	9001      	str	r0, [sp, #4]
20009d48:	4298      	cmp	r0, r3
20009d4a:	d200      	bcs.n	20009d4e <prvTimerTask+0x9a>
20009d4c:	e0ab      	b.n	20009ea6 <prvTimerTask+0x1f2>
20009d4e:	464b      	mov	r3, r9
20009d50:	9a01      	ldr	r2, [sp, #4]
20009d52:	601a      	str	r2, [r3, #0]
20009d54:	9b04      	ldr	r3, [sp, #16]
20009d56:	2b09      	cmp	r3, #9
20009d58:	d8dd      	bhi.n	20009d16 <prvTimerTask+0x62>
20009d5a:	4aad      	ldr	r2, [pc, #692]	; (2000a010 <prvTimerTask+0x35c>)
20009d5c:	009b      	lsls	r3, r3, #2
20009d5e:	58d3      	ldr	r3, [r2, r3]
20009d60:	469f      	mov	pc, r3
20009d62:	2201      	movs	r2, #1
20009d64:	4393      	bics	r3, r2
20009d66:	3227      	adds	r2, #39	; 0x27
20009d68:	54a3      	strb	r3, [r4, r2]
20009d6a:	0020      	movs	r0, r4
20009d6c:	6a23      	ldr	r3, [r4, #32]
20009d6e:	4798      	blx	r3
20009d70:	4643      	mov	r3, r8
20009d72:	681b      	ldr	r3, [r3, #0]
20009d74:	681a      	ldr	r2, [r3, #0]
20009d76:	2a00      	cmp	r2, #0
20009d78:	d100      	bne.n	20009d7c <prvTimerTask+0xc8>
20009d7a:	e088      	b.n	20009e8e <prvTimerTask+0x1da>
20009d7c:	68db      	ldr	r3, [r3, #12]
20009d7e:	68dc      	ldr	r4, [r3, #12]
20009d80:	681e      	ldr	r6, [r3, #0]
20009d82:	1d27      	adds	r7, r4, #4
20009d84:	0038      	movs	r0, r7
20009d86:	f7fe fcc7 	bl	20008718 <uxListRemove>
20009d8a:	2328      	movs	r3, #40	; 0x28
20009d8c:	2204      	movs	r2, #4
20009d8e:	5ce3      	ldrb	r3, [r4, r3]
20009d90:	421a      	tst	r2, r3
20009d92:	d0e6      	beq.n	20009d62 <prvTimerTask+0xae>
20009d94:	69a3      	ldr	r3, [r4, #24]
20009d96:	6124      	str	r4, [r4, #16]
20009d98:	18f5      	adds	r5, r6, r3
20009d9a:	43f6      	mvns	r6, r6
20009d9c:	6065      	str	r5, [r4, #4]
20009d9e:	42b3      	cmp	r3, r6
20009da0:	d80a      	bhi.n	20009db8 <prvTimerTask+0x104>
20009da2:	002e      	movs	r6, r5
20009da4:	43f6      	mvns	r6, r6
20009da6:	6a23      	ldr	r3, [r4, #32]
20009da8:	0020      	movs	r0, r4
20009daa:	4798      	blx	r3
20009dac:	69a3      	ldr	r3, [r4, #24]
20009dae:	6124      	str	r4, [r4, #16]
20009db0:	18ed      	adds	r5, r5, r3
20009db2:	6065      	str	r5, [r4, #4]
20009db4:	42b3      	cmp	r3, r6
20009db6:	d9f4      	bls.n	20009da2 <prvTimerTask+0xee>
20009db8:	4653      	mov	r3, sl
20009dba:	0039      	movs	r1, r7
20009dbc:	6818      	ldr	r0, [r3, #0]
20009dbe:	f7fe fc93 	bl	200086e8 <vListInsert>
20009dc2:	e7d2      	b.n	20009d6a <prvTimerTask+0xb6>
20009dc4:	2228      	movs	r2, #40	; 0x28
20009dc6:	2301      	movs	r3, #1
20009dc8:	5cb8      	ldrb	r0, [r7, r2]
20009dca:	9905      	ldr	r1, [sp, #20]
20009dcc:	4303      	orrs	r3, r0
20009dce:	54bb      	strb	r3, [r7, r2]
20009dd0:	69ba      	ldr	r2, [r7, #24]
20009dd2:	9c01      	ldr	r4, [sp, #4]
20009dd4:	188b      	adds	r3, r1, r2
20009dd6:	607b      	str	r3, [r7, #4]
20009dd8:	613f      	str	r7, [r7, #16]
20009dda:	42a3      	cmp	r3, r4
20009ddc:	d900      	bls.n	20009de0 <prvTimerTask+0x12c>
20009dde:	e0ab      	b.n	20009f38 <prvTimerTask+0x284>
20009de0:	1a61      	subs	r1, r4, r1
20009de2:	428a      	cmp	r2, r1
20009de4:	d81b      	bhi.n	20009e1e <prvTimerTask+0x16a>
20009de6:	0741      	lsls	r1, r0, #29
20009de8:	d500      	bpl.n	20009dec <prvTimerTask+0x138>
20009dea:	e0e9      	b.n	20009fc0 <prvTimerTask+0x30c>
20009dec:	2301      	movs	r3, #1
20009dee:	4398      	bics	r0, r3
20009df0:	3327      	adds	r3, #39	; 0x27
20009df2:	54f8      	strb	r0, [r7, r3]
20009df4:	0038      	movs	r0, r7
20009df6:	6a3b      	ldr	r3, [r7, #32]
20009df8:	4798      	blx	r3
20009dfa:	e78c      	b.n	20009d16 <prvTimerTask+0x62>
20009dfc:	2128      	movs	r1, #40	; 0x28
20009dfe:	2201      	movs	r2, #1
20009e00:	5c7b      	ldrb	r3, [r7, r1]
20009e02:	4313      	orrs	r3, r2
20009e04:	547b      	strb	r3, [r7, r1]
20009e06:	9b05      	ldr	r3, [sp, #20]
20009e08:	9901      	ldr	r1, [sp, #4]
20009e0a:	61bb      	str	r3, [r7, #24]
20009e0c:	185a      	adds	r2, r3, r1
20009e0e:	607a      	str	r2, [r7, #4]
20009e10:	613f      	str	r7, [r7, #16]
20009e12:	428a      	cmp	r2, r1
20009e14:	d900      	bls.n	20009e18 <prvTimerTask+0x164>
20009e16:	e094      	b.n	20009f42 <prvTimerTask+0x28e>
20009e18:	2b00      	cmp	r3, #0
20009e1a:	d100      	bne.n	20009e1e <prvTimerTask+0x16a>
20009e1c:	e77b      	b.n	20009d16 <prvTimerTask+0x62>
20009e1e:	4653      	mov	r3, sl
20009e20:	1d39      	adds	r1, r7, #4
20009e22:	6818      	ldr	r0, [r3, #0]
20009e24:	f7fe fc60 	bl	200086e8 <vListInsert>
20009e28:	e775      	b.n	20009d16 <prvTimerTask+0x62>
20009e2a:	2228      	movs	r2, #40	; 0x28
20009e2c:	2101      	movs	r1, #1
20009e2e:	5cbb      	ldrb	r3, [r7, r2]
20009e30:	438b      	bics	r3, r1
20009e32:	54bb      	strb	r3, [r7, r2]
20009e34:	e76f      	b.n	20009d16 <prvTimerTask+0x62>
20009e36:	2328      	movs	r3, #40	; 0x28
20009e38:	5cfb      	ldrb	r3, [r7, r3]
20009e3a:	079a      	lsls	r2, r3, #30
20009e3c:	d400      	bmi.n	20009e40 <prvTimerTask+0x18c>
20009e3e:	e09b      	b.n	20009f78 <prvTimerTask+0x2c4>
20009e40:	2201      	movs	r2, #1
20009e42:	4393      	bics	r3, r2
20009e44:	3227      	adds	r2, #39	; 0x27
20009e46:	54bb      	strb	r3, [r7, r2]
20009e48:	e765      	b.n	20009d16 <prvTimerTask+0x62>
20009e4a:	9b07      	ldr	r3, [sp, #28]
20009e4c:	9301      	str	r3, [sp, #4]
20009e4e:	9b06      	ldr	r3, [sp, #24]
20009e50:	9901      	ldr	r1, [sp, #4]
20009e52:	9302      	str	r3, [sp, #8]
20009e54:	9b05      	ldr	r3, [sp, #20]
20009e56:	9802      	ldr	r0, [sp, #8]
20009e58:	9303      	str	r3, [sp, #12]
20009e5a:	4798      	blx	r3
20009e5c:	9b04      	ldr	r3, [sp, #16]
20009e5e:	9301      	str	r3, [sp, #4]
20009e60:	2b00      	cmp	r3, #0
20009e62:	da00      	bge.n	20009e66 <prvTimerTask+0x1b2>
20009e64:	e757      	b.n	20009d16 <prvTimerTask+0x62>
20009e66:	e763      	b.n	20009d30 <prvTimerTask+0x7c>
20009e68:	f7ff faba 	bl	200093e0 <vTaskSuspendAll>
20009e6c:	f7ff fac0 	bl	200093f0 <xTaskGetTickCount>
20009e70:	464b      	mov	r3, r9
20009e72:	681b      	ldr	r3, [r3, #0]
20009e74:	0002      	movs	r2, r0
20009e76:	9001      	str	r0, [sp, #4]
20009e78:	4298      	cmp	r0, r3
20009e7a:	d200      	bcs.n	20009e7e <prvTimerTask+0x1ca>
20009e7c:	e778      	b.n	20009d70 <prvTimerTask+0xbc>
20009e7e:	464b      	mov	r3, r9
20009e80:	601a      	str	r2, [r3, #0]
20009e82:	4653      	mov	r3, sl
20009e84:	681b      	ldr	r3, [r3, #0]
20009e86:	681a      	ldr	r2, [r3, #0]
20009e88:	4253      	negs	r3, r2
20009e8a:	415a      	adcs	r2, r3
20009e8c:	e738      	b.n	20009d00 <prvTimerTask+0x4c>
20009e8e:	4651      	mov	r1, sl
20009e90:	4642      	mov	r2, r8
20009e92:	6809      	ldr	r1, [r1, #0]
20009e94:	6011      	str	r1, [r2, #0]
20009e96:	4652      	mov	r2, sl
20009e98:	6013      	str	r3, [r2, #0]
20009e9a:	464b      	mov	r3, r9
20009e9c:	9a01      	ldr	r2, [sp, #4]
20009e9e:	601a      	str	r2, [r3, #0]
20009ea0:	f7ff fb9a 	bl	200095d8 <xTaskResumeAll>
20009ea4:	e737      	b.n	20009d16 <prvTimerTask+0x62>
20009ea6:	4643      	mov	r3, r8
20009ea8:	681b      	ldr	r3, [r3, #0]
20009eaa:	681a      	ldr	r2, [r3, #0]
20009eac:	2a00      	cmp	r2, #0
20009eae:	d039      	beq.n	20009f24 <prvTimerTask+0x270>
20009eb0:	9702      	str	r7, [sp, #8]
20009eb2:	e00b      	b.n	20009ecc <prvTimerTask+0x218>
20009eb4:	2201      	movs	r2, #1
20009eb6:	4393      	bics	r3, r2
20009eb8:	3227      	adds	r2, #39	; 0x27
20009eba:	54a3      	strb	r3, [r4, r2]
20009ebc:	6a23      	ldr	r3, [r4, #32]
20009ebe:	0020      	movs	r0, r4
20009ec0:	4798      	blx	r3
20009ec2:	4643      	mov	r3, r8
20009ec4:	681b      	ldr	r3, [r3, #0]
20009ec6:	681a      	ldr	r2, [r3, #0]
20009ec8:	2a00      	cmp	r2, #0
20009eca:	d02a      	beq.n	20009f22 <prvTimerTask+0x26e>
20009ecc:	68db      	ldr	r3, [r3, #12]
20009ece:	68dc      	ldr	r4, [r3, #12]
20009ed0:	681e      	ldr	r6, [r3, #0]
20009ed2:	1d27      	adds	r7, r4, #4
20009ed4:	0038      	movs	r0, r7
20009ed6:	f7fe fc1f 	bl	20008718 <uxListRemove>
20009eda:	2328      	movs	r3, #40	; 0x28
20009edc:	2204      	movs	r2, #4
20009ede:	5ce3      	ldrb	r3, [r4, r3]
20009ee0:	421a      	tst	r2, r3
20009ee2:	d0e7      	beq.n	20009eb4 <prvTimerTask+0x200>
20009ee4:	69a3      	ldr	r3, [r4, #24]
20009ee6:	6124      	str	r4, [r4, #16]
20009ee8:	18f5      	adds	r5, r6, r3
20009eea:	43f6      	mvns	r6, r6
20009eec:	6065      	str	r5, [r4, #4]
20009eee:	42b3      	cmp	r3, r6
20009ef0:	d80a      	bhi.n	20009f08 <prvTimerTask+0x254>
20009ef2:	002e      	movs	r6, r5
20009ef4:	43f6      	mvns	r6, r6
20009ef6:	6a23      	ldr	r3, [r4, #32]
20009ef8:	0020      	movs	r0, r4
20009efa:	4798      	blx	r3
20009efc:	69a3      	ldr	r3, [r4, #24]
20009efe:	6124      	str	r4, [r4, #16]
20009f00:	18ed      	adds	r5, r5, r3
20009f02:	6065      	str	r5, [r4, #4]
20009f04:	42b3      	cmp	r3, r6
20009f06:	d9f4      	bls.n	20009ef2 <prvTimerTask+0x23e>
20009f08:	4653      	mov	r3, sl
20009f0a:	0039      	movs	r1, r7
20009f0c:	6818      	ldr	r0, [r3, #0]
20009f0e:	f7fe fbeb 	bl	200086e8 <vListInsert>
20009f12:	6a23      	ldr	r3, [r4, #32]
20009f14:	0020      	movs	r0, r4
20009f16:	4798      	blx	r3
20009f18:	4643      	mov	r3, r8
20009f1a:	681b      	ldr	r3, [r3, #0]
20009f1c:	681a      	ldr	r2, [r3, #0]
20009f1e:	2a00      	cmp	r2, #0
20009f20:	d1d4      	bne.n	20009ecc <prvTimerTask+0x218>
20009f22:	9f02      	ldr	r7, [sp, #8]
20009f24:	4651      	mov	r1, sl
20009f26:	4642      	mov	r2, r8
20009f28:	6809      	ldr	r1, [r1, #0]
20009f2a:	6011      	str	r1, [r2, #0]
20009f2c:	4652      	mov	r2, sl
20009f2e:	6013      	str	r3, [r2, #0]
20009f30:	e70d      	b.n	20009d4e <prvTimerTask+0x9a>
20009f32:	f7fe f8fb 	bl	2000812c <vPortYield>
20009f36:	e6ee      	b.n	20009d16 <prvTimerTask+0x62>
20009f38:	42a1      	cmp	r1, r4
20009f3a:	d902      	bls.n	20009f42 <prvTimerTask+0x28e>
20009f3c:	4299      	cmp	r1, r3
20009f3e:	d800      	bhi.n	20009f42 <prvTimerTask+0x28e>
20009f40:	e751      	b.n	20009de6 <prvTimerTask+0x132>
20009f42:	4643      	mov	r3, r8
20009f44:	1d39      	adds	r1, r7, #4
20009f46:	6818      	ldr	r0, [r3, #0]
20009f48:	f7fe fbce 	bl	200086e8 <vListInsert>
20009f4c:	e6e3      	b.n	20009d16 <prvTimerTask+0x62>
20009f4e:	f7ff fb43 	bl	200095d8 <xTaskResumeAll>
20009f52:	4643      	mov	r3, r8
20009f54:	681b      	ldr	r3, [r3, #0]
20009f56:	68db      	ldr	r3, [r3, #12]
20009f58:	68dd      	ldr	r5, [r3, #12]
20009f5a:	1d2f      	adds	r7, r5, #4
20009f5c:	0038      	movs	r0, r7
20009f5e:	f7fe fbdb 	bl	20008718 <uxListRemove>
20009f62:	2228      	movs	r2, #40	; 0x28
20009f64:	5cab      	ldrb	r3, [r5, r2]
20009f66:	0759      	lsls	r1, r3, #29
20009f68:	d40a      	bmi.n	20009f80 <prvTimerTask+0x2cc>
20009f6a:	2101      	movs	r1, #1
20009f6c:	438b      	bics	r3, r1
20009f6e:	54ab      	strb	r3, [r5, r2]
20009f70:	0028      	movs	r0, r5
20009f72:	6a2b      	ldr	r3, [r5, #32]
20009f74:	4798      	blx	r3
20009f76:	e6ce      	b.n	20009d16 <prvTimerTask+0x62>
20009f78:	0038      	movs	r0, r7
20009f7a:	f000 f909 	bl	2000a190 <vPortFree>
20009f7e:	e6ca      	b.n	20009d16 <prvTimerTask+0x62>
20009f80:	0023      	movs	r3, r4
20009f82:	9c01      	ldr	r4, [sp, #4]
20009f84:	e006      	b.n	20009f94 <prvTimerTask+0x2e0>
20009f86:	1ae3      	subs	r3, r4, r3
20009f88:	429a      	cmp	r2, r3
20009f8a:	d813      	bhi.n	20009fb4 <prvTimerTask+0x300>
20009f8c:	6a2b      	ldr	r3, [r5, #32]
20009f8e:	0028      	movs	r0, r5
20009f90:	4798      	blx	r3
20009f92:	0033      	movs	r3, r6
20009f94:	69aa      	ldr	r2, [r5, #24]
20009f96:	612d      	str	r5, [r5, #16]
20009f98:	189e      	adds	r6, r3, r2
20009f9a:	606e      	str	r6, [r5, #4]
20009f9c:	42a6      	cmp	r6, r4
20009f9e:	d9f2      	bls.n	20009f86 <prvTimerTask+0x2d2>
20009fa0:	42a3      	cmp	r3, r4
20009fa2:	d901      	bls.n	20009fa8 <prvTimerTask+0x2f4>
20009fa4:	42b3      	cmp	r3, r6
20009fa6:	d9f1      	bls.n	20009f8c <prvTimerTask+0x2d8>
20009fa8:	4643      	mov	r3, r8
20009faa:	0039      	movs	r1, r7
20009fac:	6818      	ldr	r0, [r3, #0]
20009fae:	f7fe fb9b 	bl	200086e8 <vListInsert>
20009fb2:	e7dd      	b.n	20009f70 <prvTimerTask+0x2bc>
20009fb4:	4653      	mov	r3, sl
20009fb6:	0039      	movs	r1, r7
20009fb8:	6818      	ldr	r0, [r3, #0]
20009fba:	f7fe fb95 	bl	200086e8 <vListInsert>
20009fbe:	e7d7      	b.n	20009f70 <prvTimerTask+0x2bc>
20009fc0:	9d01      	ldr	r5, [sp, #4]
20009fc2:	e007      	b.n	20009fd4 <prvTimerTask+0x320>
20009fc4:	1aeb      	subs	r3, r5, r3
20009fc6:	429a      	cmp	r2, r3
20009fc8:	d813      	bhi.n	20009ff2 <prvTimerTask+0x33e>
20009fca:	6a3b      	ldr	r3, [r7, #32]
20009fcc:	0038      	movs	r0, r7
20009fce:	4798      	blx	r3
20009fd0:	0023      	movs	r3, r4
20009fd2:	69ba      	ldr	r2, [r7, #24]
20009fd4:	18d4      	adds	r4, r2, r3
20009fd6:	607c      	str	r4, [r7, #4]
20009fd8:	613f      	str	r7, [r7, #16]
20009fda:	42a5      	cmp	r5, r4
20009fdc:	d2f2      	bcs.n	20009fc4 <prvTimerTask+0x310>
20009fde:	429d      	cmp	r5, r3
20009fe0:	d201      	bcs.n	20009fe6 <prvTimerTask+0x332>
20009fe2:	42a3      	cmp	r3, r4
20009fe4:	d9f1      	bls.n	20009fca <prvTimerTask+0x316>
20009fe6:	4643      	mov	r3, r8
20009fe8:	1d39      	adds	r1, r7, #4
20009fea:	6818      	ldr	r0, [r3, #0]
20009fec:	f7fe fb7c 	bl	200086e8 <vListInsert>
20009ff0:	e700      	b.n	20009df4 <prvTimerTask+0x140>
20009ff2:	4653      	mov	r3, sl
20009ff4:	1d39      	adds	r1, r7, #4
20009ff6:	6818      	ldr	r0, [r3, #0]
20009ff8:	f7fe fb76 	bl	200086e8 <vListInsert>
20009ffc:	e6fa      	b.n	20009df4 <prvTimerTask+0x140>
20009ffe:	46c0      	nop			; (mov r8, r8)
2000a000:	20011508 	.word	0x20011508
2000a004:	20021860 	.word	0x20021860
2000a008:	20011514 	.word	0x20011514
2000a00c:	200218b8 	.word	0x200218b8
2000a010:	2000b3c4 	.word	0x2000b3c4

2000a014 <xTimerCreateTimerTask>:
2000a014:	b570      	push	{r4, r5, r6, lr}
2000a016:	b082      	sub	sp, #8
2000a018:	f7fe f894 	bl	20008144 <vPortEnterCritical>
2000a01c:	4c17      	ldr	r4, [pc, #92]	; (2000a07c <xTimerCreateTimerTask+0x68>)
2000a01e:	6823      	ldr	r3, [r4, #0]
2000a020:	2b00      	cmp	r3, #0
2000a022:	d012      	beq.n	2000a04a <xTimerCreateTimerTask+0x36>
2000a024:	f7fe f89a 	bl	2000815c <vPortExitCritical>
2000a028:	6823      	ldr	r3, [r4, #0]
2000a02a:	2000      	movs	r0, #0
2000a02c:	2b00      	cmp	r3, #0
2000a02e:	d00a      	beq.n	2000a046 <xTimerCreateTimerTask+0x32>
2000a030:	4b13      	ldr	r3, [pc, #76]	; (2000a080 <xTimerCreateTimerTask+0x6c>)
2000a032:	2280      	movs	r2, #128	; 0x80
2000a034:	9301      	str	r3, [sp, #4]
2000a036:	231f      	movs	r3, #31
2000a038:	4912      	ldr	r1, [pc, #72]	; (2000a084 <xTimerCreateTimerTask+0x70>)
2000a03a:	9300      	str	r3, [sp, #0]
2000a03c:	4812      	ldr	r0, [pc, #72]	; (2000a088 <xTimerCreateTimerTask+0x74>)
2000a03e:	2300      	movs	r3, #0
2000a040:	00d2      	lsls	r2, r2, #3
2000a042:	f7fe fef1 	bl	20008e28 <xTaskCreate>
2000a046:	b002      	add	sp, #8
2000a048:	bd70      	pop	{r4, r5, r6, pc}
2000a04a:	4e10      	ldr	r6, [pc, #64]	; (2000a08c <xTimerCreateTimerTask+0x78>)
2000a04c:	0030      	movs	r0, r6
2000a04e:	f7fe fb2f 	bl	200086b0 <vListInitialise>
2000a052:	4d0f      	ldr	r5, [pc, #60]	; (2000a090 <xTimerCreateTimerTask+0x7c>)
2000a054:	0028      	movs	r0, r5
2000a056:	f7fe fb2b 	bl	200086b0 <vListInitialise>
2000a05a:	4b0e      	ldr	r3, [pc, #56]	; (2000a094 <xTimerCreateTimerTask+0x80>)
2000a05c:	2200      	movs	r2, #0
2000a05e:	601e      	str	r6, [r3, #0]
2000a060:	4b0d      	ldr	r3, [pc, #52]	; (2000a098 <xTimerCreateTimerTask+0x84>)
2000a062:	2110      	movs	r1, #16
2000a064:	200a      	movs	r0, #10
2000a066:	601d      	str	r5, [r3, #0]
2000a068:	f7fe fc5a 	bl	20008920 <xQueueGenericCreate>
2000a06c:	6020      	str	r0, [r4, #0]
2000a06e:	2800      	cmp	r0, #0
2000a070:	d0d8      	beq.n	2000a024 <xTimerCreateTimerTask+0x10>
2000a072:	490a      	ldr	r1, [pc, #40]	; (2000a09c <xTimerCreateTimerTask+0x88>)
2000a074:	f7fe fdce 	bl	20008c14 <vQueueAddToRegistry>
2000a078:	e7d4      	b.n	2000a024 <xTimerCreateTimerTask+0x10>
2000a07a:	46c0      	nop			; (mov r8, r8)
2000a07c:	200218b8 	.word	0x200218b8
2000a080:	200218bc 	.word	0x200218bc
2000a084:	2000b3f4 	.word	0x2000b3f4
2000a088:	20009cb5 	.word	0x20009cb5
2000a08c:	20021808 	.word	0x20021808
2000a090:	2002181c 	.word	0x2002181c
2000a094:	20011508 	.word	0x20011508
2000a098:	20011514 	.word	0x20011514
2000a09c:	2000b3ec 	.word	0x2000b3ec

2000a0a0 <xTimerPendFunctionCallFromISR>:
2000a0a0:	b510      	push	{r4, lr}
2000a0a2:	0014      	movs	r4, r2
2000a0a4:	001a      	movs	r2, r3
2000a0a6:	2302      	movs	r3, #2
2000a0a8:	b084      	sub	sp, #16
2000a0aa:	425b      	negs	r3, r3
2000a0ac:	9300      	str	r3, [sp, #0]
2000a0ae:	4b05      	ldr	r3, [pc, #20]	; (2000a0c4 <xTimerPendFunctionCallFromISR+0x24>)
2000a0b0:	9001      	str	r0, [sp, #4]
2000a0b2:	9102      	str	r1, [sp, #8]
2000a0b4:	6818      	ldr	r0, [r3, #0]
2000a0b6:	4669      	mov	r1, sp
2000a0b8:	2300      	movs	r3, #0
2000a0ba:	9403      	str	r4, [sp, #12]
2000a0bc:	f7fe fc80 	bl	200089c0 <xQueueGenericSendFromISR>
2000a0c0:	b004      	add	sp, #16
2000a0c2:	bd10      	pop	{r4, pc}
2000a0c4:	200218b8 	.word	0x200218b8

2000a0c8 <exception_set_exclusive_handler>:
2000a0c8:	b5f8      	push	{r3, r4, r5, r6, r7, lr}
2000a0ca:	000d      	movs	r5, r1
2000a0cc:	f3ef 8710 	mrs	r7, PRIMASK
2000a0d0:	b672      	cpsid	i
2000a0d2:	4b0c      	ldr	r3, [pc, #48]	; (2000a104 <exception_set_exclusive_handler+0x3c>)
2000a0d4:	3010      	adds	r0, #16
2000a0d6:	689b      	ldr	r3, [r3, #8]
2000a0d8:	0084      	lsls	r4, r0, #2
2000a0da:	591e      	ldr	r6, [r3, r4]
2000a0dc:	42b1      	cmp	r1, r6
2000a0de:	d005      	beq.n	2000a0ec <exception_set_exclusive_handler+0x24>
2000a0e0:	4b09      	ldr	r3, [pc, #36]	; (2000a108 <exception_set_exclusive_handler+0x40>)
2000a0e2:	429e      	cmp	r6, r3
2000a0e4:	d30b      	bcc.n	2000a0fe <exception_set_exclusive_handler+0x36>
2000a0e6:	4b09      	ldr	r3, [pc, #36]	; (2000a10c <exception_set_exclusive_handler+0x44>)
2000a0e8:	429e      	cmp	r6, r3
2000a0ea:	d208      	bcs.n	2000a0fe <exception_set_exclusive_handler+0x36>
2000a0ec:	4b05      	ldr	r3, [pc, #20]	; (2000a104 <exception_set_exclusive_handler+0x3c>)
2000a0ee:	689b      	ldr	r3, [r3, #8]
2000a0f0:	511d      	str	r5, [r3, r4]
2000a0f2:	f3bf 8f5f 	dmb	sy
2000a0f6:	f387 8810 	msr	PRIMASK, r7
2000a0fa:	0030      	movs	r0, r6
2000a0fc:	bdf8      	pop	{r3, r4, r5, r6, r7, pc}
2000a0fe:	f7fb f875 	bl	200051ec <hard_assertion_failure>
2000a102:	e7f3      	b.n	2000a0ec <exception_set_exclusive_handler+0x24>
2000a104:	e000ed00 	.word	0xe000ed00
2000a108:	100001c0 	.word	0x100001c0
2000a10c:	100001cc 	.word	0x100001cc

2000a110 <pvPortMalloc>:
2000a110:	b570      	push	{r4, r5, r6, lr}
2000a112:	2507      	movs	r5, #7
2000a114:	0004      	movs	r4, r0
2000a116:	4205      	tst	r5, r0
2000a118:	d005      	beq.n	2000a126 <pvPortMalloc+0x16>
2000a11a:	0003      	movs	r3, r0
2000a11c:	43ab      	bics	r3, r5
2000a11e:	3308      	adds	r3, #8
2000a120:	4283      	cmp	r3, r0
2000a122:	d917      	bls.n	2000a154 <pvPortMalloc+0x44>
2000a124:	001c      	movs	r4, r3
2000a126:	f7ff f95b 	bl	200093e0 <vTaskSuspendAll>
2000a12a:	4b15      	ldr	r3, [pc, #84]	; (2000a180 <pvPortMalloc+0x70>)
2000a12c:	681d      	ldr	r5, [r3, #0]
2000a12e:	2d00      	cmp	r5, #0
2000a130:	d01d      	beq.n	2000a16e <pvPortMalloc+0x5e>
2000a132:	2c00      	cmp	r4, #0
2000a134:	d014      	beq.n	2000a160 <pvPortMalloc+0x50>
2000a136:	4a13      	ldr	r2, [pc, #76]	; (2000a184 <pvPortMalloc+0x74>)
2000a138:	4913      	ldr	r1, [pc, #76]	; (2000a188 <pvPortMalloc+0x78>)
2000a13a:	6813      	ldr	r3, [r2, #0]
2000a13c:	191c      	adds	r4, r3, r4
2000a13e:	428c      	cmp	r4, r1
2000a140:	d80e      	bhi.n	2000a160 <pvPortMalloc+0x50>
2000a142:	42a3      	cmp	r3, r4
2000a144:	d20c      	bcs.n	2000a160 <pvPortMalloc+0x50>
2000a146:	18ed      	adds	r5, r5, r3
2000a148:	6014      	str	r4, [r2, #0]
2000a14a:	f7ff fa45 	bl	200095d8 <xTaskResumeAll>
2000a14e:	2d00      	cmp	r5, #0
2000a150:	d10b      	bne.n	2000a16a <pvPortMalloc+0x5a>
2000a152:	e007      	b.n	2000a164 <pvPortMalloc+0x54>
2000a154:	f7ff f944 	bl	200093e0 <vTaskSuspendAll>
2000a158:	4b09      	ldr	r3, [pc, #36]	; (2000a180 <pvPortMalloc+0x70>)
2000a15a:	681a      	ldr	r2, [r3, #0]
2000a15c:	2a00      	cmp	r2, #0
2000a15e:	d00b      	beq.n	2000a178 <pvPortMalloc+0x68>
2000a160:	f7ff fa3a 	bl	200095d8 <xTaskResumeAll>
2000a164:	f7f8 fc02 	bl	2000296c <vApplicationMallocFailedHook>
2000a168:	2500      	movs	r5, #0
2000a16a:	0028      	movs	r0, r5
2000a16c:	bd70      	pop	{r4, r5, r6, pc}
2000a16e:	2207      	movs	r2, #7
2000a170:	4d06      	ldr	r5, [pc, #24]	; (2000a18c <pvPortMalloc+0x7c>)
2000a172:	4395      	bics	r5, r2
2000a174:	601d      	str	r5, [r3, #0]
2000a176:	e7dc      	b.n	2000a132 <pvPortMalloc+0x22>
2000a178:	4a04      	ldr	r2, [pc, #16]	; (2000a18c <pvPortMalloc+0x7c>)
2000a17a:	43aa      	bics	r2, r5
2000a17c:	601a      	str	r2, [r3, #0]
2000a17e:	e7ef      	b.n	2000a160 <pvPortMalloc+0x50>
2000a180:	200114fc 	.word	0x200114fc
2000a184:	20021864 	.word	0x20021864
2000a188:	0000fff7 	.word	0x0000fff7
2000a18c:	200117db 	.word	0x200117db

2000a190 <vPortFree>:
2000a190:	4770      	bx	lr
2000a192:	46c0      	nop			; (mov r8, r8)

2000a194 <__aeabi_idiv0>:
2000a194:	4770      	bx	lr
2000a196:	46c0      	nop			; (mov r8, r8)

2000a198 <strlen>:
2000a198:	b510      	push	{r4, lr}
2000a19a:	0783      	lsls	r3, r0, #30
2000a19c:	d00a      	beq.n	2000a1b4 <strlen+0x1c>
2000a19e:	0003      	movs	r3, r0
2000a1a0:	2103      	movs	r1, #3
2000a1a2:	e002      	b.n	2000a1aa <strlen+0x12>
2000a1a4:	3301      	adds	r3, #1
2000a1a6:	420b      	tst	r3, r1
2000a1a8:	d005      	beq.n	2000a1b6 <strlen+0x1e>
2000a1aa:	781a      	ldrb	r2, [r3, #0]
2000a1ac:	2a00      	cmp	r2, #0
2000a1ae:	d1f9      	bne.n	2000a1a4 <strlen+0xc>
2000a1b0:	1a18      	subs	r0, r3, r0
2000a1b2:	bd10      	pop	{r4, pc}
2000a1b4:	0003      	movs	r3, r0
2000a1b6:	6819      	ldr	r1, [r3, #0]
2000a1b8:	4a0c      	ldr	r2, [pc, #48]	; (2000a1ec <strlen+0x54>)
2000a1ba:	4c0d      	ldr	r4, [pc, #52]	; (2000a1f0 <strlen+0x58>)
2000a1bc:	188a      	adds	r2, r1, r2
2000a1be:	438a      	bics	r2, r1
2000a1c0:	4222      	tst	r2, r4
2000a1c2:	d10f      	bne.n	2000a1e4 <strlen+0x4c>
2000a1c4:	6859      	ldr	r1, [r3, #4]
2000a1c6:	4a09      	ldr	r2, [pc, #36]	; (2000a1ec <strlen+0x54>)
2000a1c8:	3304      	adds	r3, #4
2000a1ca:	188a      	adds	r2, r1, r2
2000a1cc:	438a      	bics	r2, r1
2000a1ce:	4222      	tst	r2, r4
2000a1d0:	d108      	bne.n	2000a1e4 <strlen+0x4c>
2000a1d2:	6859      	ldr	r1, [r3, #4]
2000a1d4:	4a05      	ldr	r2, [pc, #20]	; (2000a1ec <strlen+0x54>)
2000a1d6:	3304      	adds	r3, #4
2000a1d8:	188a      	adds	r2, r1, r2
2000a1da:	438a      	bics	r2, r1
2000a1dc:	4222      	tst	r2, r4
2000a1de:	d0f1      	beq.n	2000a1c4 <strlen+0x2c>
2000a1e0:	e000      	b.n	2000a1e4 <strlen+0x4c>
2000a1e2:	3301      	adds	r3, #1
2000a1e4:	781a      	ldrb	r2, [r3, #0]
2000a1e6:	2a00      	cmp	r2, #0
2000a1e8:	d1fb      	bne.n	2000a1e2 <strlen+0x4a>
2000a1ea:	e7e1      	b.n	2000a1b0 <strlen+0x18>
2000a1ec:	fefefeff 	.word	0xfefefeff
2000a1f0:	80808080 	.word	0x80808080

2000a1f4 <_fini>:
2000a1f4:	b5f8      	push	{r3, r4, r5, r6, r7, lr}
2000a1f6:	46c0      	nop			; (mov r8, r8)

Disassembly of section .data:

2000a200 <mutex_try_enter_block_until>:
2000a200:	b5f0      	push	{r4, r5, r6, r7, lr}
2000a202:	46c6      	mov	lr, r8
2000a204:	0015      	movs	r5, r2
2000a206:	b500      	push	{lr}
2000a208:	0004      	movs	r4, r0
2000a20a:	001e      	movs	r6, r3
2000a20c:	6802      	ldr	r2, [r0, #0]
2000a20e:	f3ef 8810 	mrs	r8, PRIMASK
2000a212:	b672      	cpsid	i
2000a214:	6813      	ldr	r3, [r2, #0]
2000a216:	2b00      	cmp	r3, #0
2000a218:	d0fc      	beq.n	2000a214 <mutex_try_enter_block_until+0x14>
2000a21a:	f3bf 8f5f 	dmb	sy
2000a21e:	6867      	ldr	r7, [r4, #4]
2000a220:	1c7b      	adds	r3, r7, #1
2000a222:	d00e      	beq.n	2000a242 <mutex_try_enter_block_until+0x42>
2000a224:	6823      	ldr	r3, [r4, #0]
2000a226:	f3bf 8f5f 	dmb	sy
2000a22a:	2200      	movs	r2, #0
2000a22c:	601a      	str	r2, [r3, #0]
2000a22e:	f388 8810 	msr	PRIMASK, r8
2000a232:	f7fe f835 	bl	200082a0 <ulPortLockGetCurrentOwnerId>
2000a236:	42b8      	cmp	r0, r7
2000a238:	d10f      	bne.n	2000a25a <mutex_try_enter_block_until+0x5a>
2000a23a:	2000      	movs	r0, #0
2000a23c:	bc80      	pop	{r7}
2000a23e:	46b8      	mov	r8, r7
2000a240:	bdf0      	pop	{r4, r5, r6, r7, pc}
2000a242:	f7fe f82d 	bl	200082a0 <ulPortLockGetCurrentOwnerId>
2000a246:	6823      	ldr	r3, [r4, #0]
2000a248:	6060      	str	r0, [r4, #4]
2000a24a:	f3bf 8f5f 	dmb	sy
2000a24e:	2200      	movs	r2, #0
2000a250:	601a      	str	r2, [r3, #0]
2000a252:	f388 8810 	msr	PRIMASK, r8
2000a256:	2001      	movs	r0, #1
2000a258:	e7f0      	b.n	2000a23c <mutex_try_enter_block_until+0x3c>
2000a25a:	f7fe f821 	bl	200082a0 <ulPortLockGetCurrentOwnerId>
2000a25e:	0007      	movs	r7, r0
2000a260:	e006      	b.n	2000a270 <mutex_try_enter_block_until+0x70>
2000a262:	002a      	movs	r2, r5
2000a264:	0033      	movs	r3, r6
2000a266:	0020      	movs	r0, r4
2000a268:	f7fe f894 	bl	20008394 <xPortLockInternalSpinUnlockWithBestEffortWaitOrTimeout>
2000a26c:	2800      	cmp	r0, #0
2000a26e:	d1e4      	bne.n	2000a23a <mutex_try_enter_block_until+0x3a>
2000a270:	6822      	ldr	r2, [r4, #0]
2000a272:	f3ef 8110 	mrs	r1, PRIMASK
2000a276:	b672      	cpsid	i
2000a278:	6813      	ldr	r3, [r2, #0]
2000a27a:	2b00      	cmp	r3, #0
2000a27c:	d0fc      	beq.n	2000a278 <mutex_try_enter_block_until+0x78>
2000a27e:	f3bf 8f5f 	dmb	sy
2000a282:	6863      	ldr	r3, [r4, #4]
2000a284:	3301      	adds	r3, #1
2000a286:	d1ec      	bne.n	2000a262 <mutex_try_enter_block_until+0x62>
2000a288:	6823      	ldr	r3, [r4, #0]
2000a28a:	6067      	str	r7, [r4, #4]
2000a28c:	f3bf 8f5f 	dmb	sy
2000a290:	2200      	movs	r2, #0
2000a292:	601a      	str	r2, [r3, #0]
2000a294:	f381 8810 	msr	PRIMASK, r1
2000a298:	2001      	movs	r0, #1
2000a29a:	e7cf      	b.n	2000a23c <mutex_try_enter_block_until+0x3c>

2000a29c <mutex_enter_timeout_ms>:
2000a29c:	b5f8      	push	{r3, r4, r5, r6, r7, lr}
2000a29e:	000d      	movs	r5, r1
2000a2a0:	0004      	movs	r4, r0
2000a2a2:	f7f9 fdd9 	bl	20003e58 <time_us_64>
2000a2a6:	22fa      	movs	r2, #250	; 0xfa
2000a2a8:	0006      	movs	r6, r0
2000a2aa:	000f      	movs	r7, r1
2000a2ac:	2300      	movs	r3, #0
2000a2ae:	0028      	movs	r0, r5
2000a2b0:	2100      	movs	r1, #0
2000a2b2:	0092      	lsls	r2, r2, #2
2000a2b4:	f7fb fa92 	bl	200057dc <__wrap___aeabi_lmul>
2000a2b8:	1836      	adds	r6, r6, r0
2000a2ba:	414f      	adcs	r7, r1
2000a2bc:	2f00      	cmp	r7, #0
2000a2be:	db22      	blt.n	2000a306 <mutex_enter_timeout_ms+0x6a>
2000a2c0:	f7fd ffee 	bl	200082a0 <ulPortLockGetCurrentOwnerId>
2000a2c4:	0005      	movs	r5, r0
2000a2c6:	e006      	b.n	2000a2d6 <mutex_enter_timeout_ms+0x3a>
2000a2c8:	0032      	movs	r2, r6
2000a2ca:	003b      	movs	r3, r7
2000a2cc:	0020      	movs	r0, r4
2000a2ce:	f7fe f861 	bl	20008394 <xPortLockInternalSpinUnlockWithBestEffortWaitOrTimeout>
2000a2d2:	2800      	cmp	r0, #0
2000a2d4:	d115      	bne.n	2000a302 <mutex_enter_timeout_ms+0x66>
2000a2d6:	6822      	ldr	r2, [r4, #0]
2000a2d8:	f3ef 8110 	mrs	r1, PRIMASK
2000a2dc:	b672      	cpsid	i
2000a2de:	6813      	ldr	r3, [r2, #0]
2000a2e0:	2b00      	cmp	r3, #0
2000a2e2:	d0fc      	beq.n	2000a2de <mutex_enter_timeout_ms+0x42>
2000a2e4:	f3bf 8f5f 	dmb	sy
2000a2e8:	6863      	ldr	r3, [r4, #4]
2000a2ea:	3301      	adds	r3, #1
2000a2ec:	d1ec      	bne.n	2000a2c8 <mutex_enter_timeout_ms+0x2c>
2000a2ee:	6065      	str	r5, [r4, #4]
2000a2f0:	6823      	ldr	r3, [r4, #0]
2000a2f2:	f3bf 8f5f 	dmb	sy
2000a2f6:	2200      	movs	r2, #0
2000a2f8:	601a      	str	r2, [r3, #0]
2000a2fa:	f381 8810 	msr	PRIMASK, r1
2000a2fe:	2001      	movs	r0, #1
2000a300:	bdf8      	pop	{r3, r4, r5, r6, r7, pc}
2000a302:	2000      	movs	r0, #0
2000a304:	e7fc      	b.n	2000a300 <mutex_enter_timeout_ms+0x64>
2000a306:	2601      	movs	r6, #1
2000a308:	4f01      	ldr	r7, [pc, #4]	; (2000a310 <mutex_enter_timeout_ms+0x74>)
2000a30a:	4276      	negs	r6, r6
2000a30c:	e7d8      	b.n	2000a2c0 <mutex_enter_timeout_ms+0x24>
2000a30e:	46c0      	nop			; (mov r8, r8)
2000a310:	7fffffff 	.word	0x7fffffff

2000a314 <mutex_exit>:
2000a314:	b510      	push	{r4, lr}
2000a316:	6802      	ldr	r2, [r0, #0]
2000a318:	f3ef 8110 	mrs	r1, PRIMASK
2000a31c:	b672      	cpsid	i
2000a31e:	6813      	ldr	r3, [r2, #0]
2000a320:	2b00      	cmp	r3, #0
2000a322:	d0fc      	beq.n	2000a31e <mutex_exit+0xa>
2000a324:	f3bf 8f5f 	dmb	sy
2000a328:	2301      	movs	r3, #1
2000a32a:	425b      	negs	r3, r3
2000a32c:	6043      	str	r3, [r0, #4]
2000a32e:	f7fd ffcd 	bl	200082cc <vPortLockInternalSpinUnlockWithNotify>
2000a332:	bd10      	pop	{r4, pc}

2000a334 <flash_init_boot2_copyout>:
2000a334:	4808      	ldr	r0, [pc, #32]	; (2000a358 <flash_init_boot2_copyout+0x24>)
2000a336:	b510      	push	{r4, lr}
2000a338:	7803      	ldrb	r3, [r0, #0]
2000a33a:	2b00      	cmp	r3, #0
2000a33c:	d10a      	bne.n	2000a354 <flash_init_boot2_copyout+0x20>
2000a33e:	2380      	movs	r3, #128	; 0x80
2000a340:	4906      	ldr	r1, [pc, #24]	; (2000a35c <flash_init_boot2_copyout+0x28>)
2000a342:	4a07      	ldr	r2, [pc, #28]	; (2000a360 <flash_init_boot2_copyout+0x2c>)
2000a344:	055b      	lsls	r3, r3, #21
2000a346:	681c      	ldr	r4, [r3, #0]
2000a348:	50cc      	str	r4, [r1, r3]
2000a34a:	3304      	adds	r3, #4
2000a34c:	4293      	cmp	r3, r2
2000a34e:	d1fa      	bne.n	2000a346 <flash_init_boot2_copyout+0x12>
2000a350:	2301      	movs	r3, #1
2000a352:	7003      	strb	r3, [r0, #0]
2000a354:	bd10      	pop	{r4, pc}
2000a356:	46c0      	nop			; (mov r8, r8)
2000a358:	200218c9 	.word	0x200218c9
2000a35c:	10010f58 	.word	0x10010f58
2000a360:	10000100 	.word	0x10000100

2000a364 <flash_enable_xip_via_boot2>:
2000a364:	b510      	push	{r4, lr}
2000a366:	4b02      	ldr	r3, [pc, #8]	; (2000a370 <flash_enable_xip_via_boot2+0xc>)
2000a368:	3301      	adds	r3, #1
2000a36a:	4798      	blx	r3
2000a36c:	bd10      	pop	{r4, pc}
2000a36e:	46c0      	nop			; (mov r8, r8)
2000a370:	20010f58 	.word	0x20010f58

2000a374 <flash_cs_force.constprop.0>:
2000a374:	4b03      	ldr	r3, [pc, #12]	; (2000a384 <flash_cs_force.constprop.0+0x10>)
2000a376:	681a      	ldr	r2, [r3, #0]
2000a378:	23c0      	movs	r3, #192	; 0xc0
2000a37a:	009b      	lsls	r3, r3, #2
2000a37c:	4393      	bics	r3, r2
2000a37e:	4a02      	ldr	r2, [pc, #8]	; (2000a388 <flash_cs_force.constprop.0+0x14>)
2000a380:	6013      	str	r3, [r2, #0]
2000a382:	4770      	bx	lr
2000a384:	4001800c 	.word	0x4001800c
2000a388:	4001900c 	.word	0x4001900c

2000a38c <flash_cs_force.constprop.1>:
2000a38c:	4b05      	ldr	r3, [pc, #20]	; (2000a3a4 <flash_cs_force.constprop.1+0x18>)
2000a38e:	681a      	ldr	r2, [r3, #0]
2000a390:	2380      	movs	r3, #128	; 0x80
2000a392:	009b      	lsls	r3, r3, #2
2000a394:	4053      	eors	r3, r2
2000a396:	22c0      	movs	r2, #192	; 0xc0
2000a398:	0092      	lsls	r2, r2, #2
2000a39a:	4013      	ands	r3, r2
2000a39c:	4a02      	ldr	r2, [pc, #8]	; (2000a3a8 <flash_cs_force.constprop.1+0x1c>)
2000a39e:	6013      	str	r3, [r2, #0]
2000a3a0:	4770      	bx	lr
2000a3a2:	46c0      	nop			; (mov r8, r8)
2000a3a4:	4001800c 	.word	0x4001800c
2000a3a8:	4001900c 	.word	0x4001900c

2000a3ac <flash_do_cmd>:
2000a3ac:	2314      	movs	r3, #20
2000a3ae:	b5f0      	push	{r4, r5, r6, r7, lr}
2000a3b0:	46d6      	mov	lr, sl
2000a3b2:	464f      	mov	r7, r9
2000a3b4:	4646      	mov	r6, r8
2000a3b6:	469a      	mov	sl, r3
2000a3b8:	4681      	mov	r9, r0
2000a3ba:	8818      	ldrh	r0, [r3, #0]
2000a3bc:	3304      	adds	r3, #4
2000a3be:	b5c0      	push	{r6, r7, lr}
2000a3c0:	4698      	mov	r8, r3
2000a3c2:	000e      	movs	r6, r1
2000a3c4:	881b      	ldrh	r3, [r3, #0]
2000a3c6:	4927      	ldr	r1, [pc, #156]	; (2000a464 <flash_do_cmd+0xb8>)
2000a3c8:	0014      	movs	r4, r2
2000a3ca:	4798      	blx	r3
2000a3cc:	4653      	mov	r3, sl
2000a3ce:	0007      	movs	r7, r0
2000a3d0:	8818      	ldrh	r0, [r3, #0]
2000a3d2:	4643      	mov	r3, r8
2000a3d4:	4924      	ldr	r1, [pc, #144]	; (2000a468 <flash_do_cmd+0xbc>)
2000a3d6:	881b      	ldrh	r3, [r3, #0]
2000a3d8:	4798      	blx	r3
2000a3da:	4653      	mov	r3, sl
2000a3dc:	0005      	movs	r5, r0
2000a3de:	8818      	ldrh	r0, [r3, #0]
2000a3e0:	4643      	mov	r3, r8
2000a3e2:	4922      	ldr	r1, [pc, #136]	; (2000a46c <flash_do_cmd+0xc0>)
2000a3e4:	881b      	ldrh	r3, [r3, #0]
2000a3e6:	4798      	blx	r3
2000a3e8:	4680      	mov	r8, r0
2000a3ea:	f7ff ffa3 	bl	2000a334 <flash_init_boot2_copyout>
2000a3ee:	47b8      	blx	r7
2000a3f0:	47a8      	blx	r5
2000a3f2:	f7ff ffcb 	bl	2000a38c <flash_cs_force.constprop.1>
2000a3f6:	2c00      	cmp	r4, #0
2000a3f8:	d01b      	beq.n	2000a432 <flash_do_cmd+0x86>
2000a3fa:	21c0      	movs	r1, #192	; 0xc0
2000a3fc:	0022      	movs	r2, r4
2000a3fe:	2708      	movs	r7, #8
2000a400:	2002      	movs	r0, #2
2000a402:	0549      	lsls	r1, r1, #21
2000a404:	003d      	movs	r5, r7
2000a406:	6a8b      	ldr	r3, [r1, #40]	; 0x28
2000a408:	401d      	ands	r5, r3
2000a40a:	4218      	tst	r0, r3
2000a40c:	d00b      	beq.n	2000a426 <flash_do_cmd+0x7a>
2000a40e:	2c00      	cmp	r4, #0
2000a410:	d009      	beq.n	2000a426 <flash_do_cmd+0x7a>
2000a412:	1b13      	subs	r3, r2, r4
2000a414:	2b0d      	cmp	r3, #13
2000a416:	d81f      	bhi.n	2000a458 <flash_do_cmd+0xac>
2000a418:	464b      	mov	r3, r9
2000a41a:	781b      	ldrb	r3, [r3, #0]
2000a41c:	3c01      	subs	r4, #1
2000a41e:	660b      	str	r3, [r1, #96]	; 0x60
2000a420:	2301      	movs	r3, #1
2000a422:	469c      	mov	ip, r3
2000a424:	44e1      	add	r9, ip
2000a426:	0023      	movs	r3, r4
2000a428:	2d00      	cmp	r5, #0
2000a42a:	d10c      	bne.n	2000a446 <flash_do_cmd+0x9a>
2000a42c:	4313      	orrs	r3, r2
2000a42e:	2b00      	cmp	r3, #0
2000a430:	d1e8      	bne.n	2000a404 <flash_do_cmd+0x58>
2000a432:	f7ff ff9f 	bl	2000a374 <flash_cs_force.constprop.0>
2000a436:	47c0      	blx	r8
2000a438:	f7ff ff94 	bl	2000a364 <flash_enable_xip_via_boot2>
2000a43c:	bce0      	pop	{r5, r6, r7}
2000a43e:	46ba      	mov	sl, r7
2000a440:	46b1      	mov	r9, r6
2000a442:	46a8      	mov	r8, r5
2000a444:	bdf0      	pop	{r4, r5, r6, r7, pc}
2000a446:	2a00      	cmp	r2, #0
2000a448:	d0f1      	beq.n	2000a42e <flash_do_cmd+0x82>
2000a44a:	6e0b      	ldr	r3, [r1, #96]	; 0x60
2000a44c:	3a01      	subs	r2, #1
2000a44e:	7033      	strb	r3, [r6, #0]
2000a450:	0013      	movs	r3, r2
2000a452:	3601      	adds	r6, #1
2000a454:	4323      	orrs	r3, r4
2000a456:	e7ea      	b.n	2000a42e <flash_do_cmd+0x82>
2000a458:	2d00      	cmp	r5, #0
2000a45a:	d0d3      	beq.n	2000a404 <flash_do_cmd+0x58>
2000a45c:	2a00      	cmp	r2, #0
2000a45e:	d0d1      	beq.n	2000a404 <flash_do_cmd+0x58>
2000a460:	e7f3      	b.n	2000a44a <flash_do_cmd+0x9e>
2000a462:	46c0      	nop			; (mov r8, r8)
2000a464:	00004649 	.word	0x00004649
2000a468:	00005845 	.word	0x00005845
2000a46c:	00004346 	.word	0x00004346

2000a470 <reset_non_control_endpoints>:
2000a470:	2300      	movs	r3, #0
2000a472:	4a1c      	ldr	r2, [pc, #112]	; (2000a4e4 <reset_non_control_endpoints+0x74>)
2000a474:	b510      	push	{r4, lr}
2000a476:	6093      	str	r3, [r2, #8]
2000a478:	60d3      	str	r3, [r2, #12]
2000a47a:	4a1b      	ldr	r2, [pc, #108]	; (2000a4e8 <reset_non_control_endpoints+0x78>)
2000a47c:	2100      	movs	r1, #0
2000a47e:	6093      	str	r3, [r2, #8]
2000a480:	60d3      	str	r3, [r2, #12]
2000a482:	4a1a      	ldr	r2, [pc, #104]	; (2000a4ec <reset_non_control_endpoints+0x7c>)
2000a484:	481a      	ldr	r0, [pc, #104]	; (2000a4f0 <reset_non_control_endpoints+0x80>)
2000a486:	6093      	str	r3, [r2, #8]
2000a488:	60d3      	str	r3, [r2, #12]
2000a48a:	4a1a      	ldr	r2, [pc, #104]	; (2000a4f4 <reset_non_control_endpoints+0x84>)
2000a48c:	6093      	str	r3, [r2, #8]
2000a48e:	60d3      	str	r3, [r2, #12]
2000a490:	4a19      	ldr	r2, [pc, #100]	; (2000a4f8 <reset_non_control_endpoints+0x88>)
2000a492:	6093      	str	r3, [r2, #8]
2000a494:	60d3      	str	r3, [r2, #12]
2000a496:	4a19      	ldr	r2, [pc, #100]	; (2000a4fc <reset_non_control_endpoints+0x8c>)
2000a498:	6093      	str	r3, [r2, #8]
2000a49a:	60d3      	str	r3, [r2, #12]
2000a49c:	4a18      	ldr	r2, [pc, #96]	; (2000a500 <reset_non_control_endpoints+0x90>)
2000a49e:	6093      	str	r3, [r2, #8]
2000a4a0:	60d3      	str	r3, [r2, #12]
2000a4a2:	4a18      	ldr	r2, [pc, #96]	; (2000a504 <reset_non_control_endpoints+0x94>)
2000a4a4:	6093      	str	r3, [r2, #8]
2000a4a6:	60d3      	str	r3, [r2, #12]
2000a4a8:	4a17      	ldr	r2, [pc, #92]	; (2000a508 <reset_non_control_endpoints+0x98>)
2000a4aa:	6093      	str	r3, [r2, #8]
2000a4ac:	60d3      	str	r3, [r2, #12]
2000a4ae:	4a17      	ldr	r2, [pc, #92]	; (2000a50c <reset_non_control_endpoints+0x9c>)
2000a4b0:	6093      	str	r3, [r2, #8]
2000a4b2:	60d3      	str	r3, [r2, #12]
2000a4b4:	4a16      	ldr	r2, [pc, #88]	; (2000a510 <reset_non_control_endpoints+0xa0>)
2000a4b6:	6093      	str	r3, [r2, #8]
2000a4b8:	60d3      	str	r3, [r2, #12]
2000a4ba:	4a16      	ldr	r2, [pc, #88]	; (2000a514 <reset_non_control_endpoints+0xa4>)
2000a4bc:	6093      	str	r3, [r2, #8]
2000a4be:	60d3      	str	r3, [r2, #12]
2000a4c0:	4a15      	ldr	r2, [pc, #84]	; (2000a518 <reset_non_control_endpoints+0xa8>)
2000a4c2:	6093      	str	r3, [r2, #8]
2000a4c4:	60d3      	str	r3, [r2, #12]
2000a4c6:	4a15      	ldr	r2, [pc, #84]	; (2000a51c <reset_non_control_endpoints+0xac>)
2000a4c8:	6093      	str	r3, [r2, #8]
2000a4ca:	60d3      	str	r3, [r2, #12]
2000a4cc:	4a14      	ldr	r2, [pc, #80]	; (2000a520 <reset_non_control_endpoints+0xb0>)
2000a4ce:	6093      	str	r3, [r2, #8]
2000a4d0:	60d3      	str	r3, [r2, #12]
2000a4d2:	22f0      	movs	r2, #240	; 0xf0
2000a4d4:	0092      	lsls	r2, r2, #2
2000a4d6:	f7fb f9eb 	bl	200058b0 <__wrap_memset>
2000a4da:	4b12      	ldr	r3, [pc, #72]	; (2000a524 <reset_non_control_endpoints+0xb4>)
2000a4dc:	4a12      	ldr	r2, [pc, #72]	; (2000a528 <reset_non_control_endpoints+0xb8>)
2000a4de:	601a      	str	r2, [r3, #0]
2000a4e0:	bd10      	pop	{r4, pc}
2000a4e2:	46c0      	nop			; (mov r8, r8)
2000a4e4:	50100000 	.word	0x50100000
2000a4e8:	50100008 	.word	0x50100008
2000a4ec:	50100010 	.word	0x50100010
2000a4f0:	20011120 	.word	0x20011120
2000a4f4:	50100018 	.word	0x50100018
2000a4f8:	50100020 	.word	0x50100020
2000a4fc:	50100028 	.word	0x50100028
2000a500:	50100030 	.word	0x50100030
2000a504:	50100038 	.word	0x50100038
2000a508:	50100040 	.word	0x50100040
2000a50c:	50100048 	.word	0x50100048
2000a510:	50100050 	.word	0x50100050
2000a514:	50100058 	.word	0x50100058
2000a518:	50100060 	.word	0x50100060
2000a51c:	50100068 	.word	0x50100068
2000a520:	50100070 	.word	0x50100070
2000a524:	200114e4 	.word	0x200114e4
2000a528:	50100180 	.word	0x50100180

2000a52c <hw_handle_buff_status>:
2000a52c:	b5f0      	push	{r4, r5, r6, r7, lr}
2000a52e:	4657      	mov	r7, sl
2000a530:	46de      	mov	lr, fp
2000a532:	464e      	mov	r6, r9
2000a534:	4645      	mov	r5, r8
2000a536:	b5e0      	push	{r5, r6, r7, lr}
2000a538:	4b23      	ldr	r3, [pc, #140]	; (2000a5c8 <hw_handle_buff_status+0x9c>)
2000a53a:	b087      	sub	sp, #28
2000a53c:	6d9f      	ldr	r7, [r3, #88]	; 0x58
2000a53e:	2f00      	cmp	r7, #0
2000a540:	d023      	beq.n	2000a58a <hw_handle_buff_status+0x5e>
2000a542:	4b22      	ldr	r3, [pc, #136]	; (2000a5cc <hw_handle_buff_status+0xa0>)
2000a544:	2400      	movs	r4, #0
2000a546:	4699      	mov	r9, r3
2000a548:	2301      	movs	r3, #1
2000a54a:	4698      	mov	r8, r3
2000a54c:	4b20      	ldr	r3, [pc, #128]	; (2000a5d0 <hw_handle_buff_status+0xa4>)
2000a54e:	2601      	movs	r6, #1
2000a550:	469a      	mov	sl, r3
2000a552:	e004      	b.n	2000a55e <hw_handle_buff_status+0x32>
2000a554:	3401      	adds	r4, #1
2000a556:	0076      	lsls	r6, r6, #1
2000a558:	b2e4      	uxtb	r4, r4
2000a55a:	2c20      	cmp	r4, #32
2000a55c:	d015      	beq.n	2000a58a <hw_handle_buff_status+0x5e>
2000a55e:	423e      	tst	r6, r7
2000a560:	d0f8      	beq.n	2000a554 <hw_handle_buff_status+0x28>
2000a562:	464b      	mov	r3, r9
2000a564:	659e      	str	r6, [r3, #88]	; 0x58
2000a566:	4643      	mov	r3, r8
2000a568:	0865      	lsrs	r5, r4, #1
2000a56a:	006d      	lsls	r5, r5, #1
2000a56c:	43a3      	bics	r3, r4
2000a56e:	18ed      	adds	r5, r5, r3
2000a570:	016d      	lsls	r5, r5, #5
2000a572:	4455      	add	r5, sl
2000a574:	0028      	movs	r0, r5
2000a576:	f000 fba5 	bl	2000acc4 <hw_endpoint_xfer_continue>
2000a57a:	2800      	cmp	r0, #0
2000a57c:	d10c      	bne.n	2000a598 <hw_handle_buff_status+0x6c>
2000a57e:	3401      	adds	r4, #1
2000a580:	43b7      	bics	r7, r6
2000a582:	b2e4      	uxtb	r4, r4
2000a584:	0076      	lsls	r6, r6, #1
2000a586:	2f00      	cmp	r7, #0
2000a588:	d1e7      	bne.n	2000a55a <hw_handle_buff_status+0x2e>
2000a58a:	b007      	add	sp, #28
2000a58c:	bcf0      	pop	{r4, r5, r6, r7}
2000a58e:	46bb      	mov	fp, r7
2000a590:	46b2      	mov	sl, r6
2000a592:	46a9      	mov	r9, r5
2000a594:	46a0      	mov	r8, r4
2000a596:	bdf0      	pop	{r4, r5, r6, r7, pc}
2000a598:	78ab      	ldrb	r3, [r5, #2]
2000a59a:	2208      	movs	r2, #8
2000a59c:	469b      	mov	fp, r3
2000a59e:	8aeb      	ldrh	r3, [r5, #22]
2000a5a0:	2100      	movs	r1, #0
2000a5a2:	a803      	add	r0, sp, #12
2000a5a4:	9301      	str	r3, [sp, #4]
2000a5a6:	f7fb f983 	bl	200058b0 <__wrap_memset>
2000a5aa:	2307      	movs	r3, #7
2000a5ac:	4659      	mov	r1, fp
2000a5ae:	aa02      	add	r2, sp, #8
2000a5b0:	7153      	strb	r3, [r2, #5]
2000a5b2:	9b01      	ldr	r3, [sp, #4]
2000a5b4:	7211      	strb	r1, [r2, #8]
2000a5b6:	a803      	add	r0, sp, #12
2000a5b8:	2101      	movs	r1, #1
2000a5ba:	9305      	str	r3, [sp, #20]
2000a5bc:	f000 fbaa 	bl	2000ad14 <dcd_event_handler>
2000a5c0:	0028      	movs	r0, r5
2000a5c2:	f000 fb17 	bl	2000abf4 <hw_endpoint_reset_transfer>
2000a5c6:	e7da      	b.n	2000a57e <hw_handle_buff_status+0x52>
2000a5c8:	50110000 	.word	0x50110000
2000a5cc:	50113000 	.word	0x50113000
2000a5d0:	200110e0 	.word	0x200110e0

2000a5d4 <dcd_rp2040_irq>:
2000a5d4:	2398      	movs	r3, #152	; 0x98
2000a5d6:	4ad1      	ldr	r2, [pc, #836]	; (2000a91c <dcd_rp2040_irq+0x348>)
2000a5d8:	b5f0      	push	{r4, r5, r6, r7, lr}
2000a5da:	58d5      	ldr	r5, [r2, r3]
2000a5dc:	2380      	movs	r3, #128	; 0x80
2000a5de:	002c      	movs	r4, r5
2000a5e0:	029b      	lsls	r3, r3, #10
2000a5e2:	2610      	movs	r6, #16
2000a5e4:	b085      	sub	sp, #20
2000a5e6:	401c      	ands	r4, r3
2000a5e8:	421d      	tst	r5, r3
2000a5ea:	d078      	beq.n	2000a6de <dcd_rp2040_irq+0x10a>
2000a5ec:	4bcc      	ldr	r3, [pc, #816]	; (2000a920 <dcd_rp2040_irq+0x34c>)
2000a5ee:	4ccd      	ldr	r4, [pc, #820]	; (2000a924 <dcd_rp2040_irq+0x350>)
2000a5f0:	6a9a      	ldr	r2, [r3, #40]	; 0x28
2000a5f2:	4bcd      	ldr	r3, [pc, #820]	; (2000a928 <dcd_rp2040_irq+0x354>)
2000a5f4:	2600      	movs	r6, #0
2000a5f6:	601a      	str	r2, [r3, #0]
2000a5f8:	233b      	movs	r3, #59	; 0x3b
2000a5fa:	5ce3      	ldrb	r3, [r4, r3]
2000a5fc:	2b02      	cmp	r3, #2
2000a5fe:	d100      	bne.n	2000a602 <dcd_rp2040_irq+0x2e>
2000a600:	e0dc      	b.n	2000a7bc <dcd_rp2040_irq+0x1e8>
2000a602:	237b      	movs	r3, #123	; 0x7b
2000a604:	5ce3      	ldrb	r3, [r4, r3]
2000a606:	2b02      	cmp	r3, #2
2000a608:	d100      	bne.n	2000a60c <dcd_rp2040_irq+0x38>
2000a60a:	e0fa      	b.n	2000a802 <dcd_rp2040_irq+0x22e>
2000a60c:	23bb      	movs	r3, #187	; 0xbb
2000a60e:	5ce3      	ldrb	r3, [r4, r3]
2000a610:	2b02      	cmp	r3, #2
2000a612:	d100      	bne.n	2000a616 <dcd_rp2040_irq+0x42>
2000a614:	e0e3      	b.n	2000a7de <dcd_rp2040_irq+0x20a>
2000a616:	23fb      	movs	r3, #251	; 0xfb
2000a618:	5ce3      	ldrb	r3, [r4, r3]
2000a61a:	2b02      	cmp	r3, #2
2000a61c:	d100      	bne.n	2000a620 <dcd_rp2040_irq+0x4c>
2000a61e:	e141      	b.n	2000a8a4 <dcd_rp2040_irq+0x2d0>
2000a620:	233c      	movs	r3, #60	; 0x3c
2000a622:	33ff      	adds	r3, #255	; 0xff
2000a624:	5ce3      	ldrb	r3, [r4, r3]
2000a626:	2b02      	cmp	r3, #2
2000a628:	d100      	bne.n	2000a62c <dcd_rp2040_irq+0x58>
2000a62a:	e126      	b.n	2000a87a <dcd_rp2040_irq+0x2a6>
2000a62c:	237c      	movs	r3, #124	; 0x7c
2000a62e:	33ff      	adds	r3, #255	; 0xff
2000a630:	5ce3      	ldrb	r3, [r4, r3]
2000a632:	2b02      	cmp	r3, #2
2000a634:	d100      	bne.n	2000a638 <dcd_rp2040_irq+0x64>
2000a636:	e10b      	b.n	2000a850 <dcd_rp2040_irq+0x27c>
2000a638:	23bc      	movs	r3, #188	; 0xbc
2000a63a:	33ff      	adds	r3, #255	; 0xff
2000a63c:	5ce3      	ldrb	r3, [r4, r3]
2000a63e:	2b02      	cmp	r3, #2
2000a640:	d100      	bne.n	2000a644 <dcd_rp2040_irq+0x70>
2000a642:	e0f0      	b.n	2000a826 <dcd_rp2040_irq+0x252>
2000a644:	23fc      	movs	r3, #252	; 0xfc
2000a646:	33ff      	adds	r3, #255	; 0xff
2000a648:	5ce3      	ldrb	r3, [r4, r3]
2000a64a:	2b02      	cmp	r3, #2
2000a64c:	d100      	bne.n	2000a650 <dcd_rp2040_irq+0x7c>
2000a64e:	e1ef      	b.n	2000aa30 <dcd_rp2040_irq+0x45c>
2000a650:	4bb6      	ldr	r3, [pc, #728]	; (2000a92c <dcd_rp2040_irq+0x358>)
2000a652:	5ce3      	ldrb	r3, [r4, r3]
2000a654:	2b02      	cmp	r3, #2
2000a656:	d100      	bne.n	2000a65a <dcd_rp2040_irq+0x86>
2000a658:	e1d6      	b.n	2000aa08 <dcd_rp2040_irq+0x434>
2000a65a:	4bb5      	ldr	r3, [pc, #724]	; (2000a930 <dcd_rp2040_irq+0x35c>)
2000a65c:	5ce3      	ldrb	r3, [r4, r3]
2000a65e:	2b02      	cmp	r3, #2
2000a660:	d100      	bne.n	2000a664 <dcd_rp2040_irq+0x90>
2000a662:	e1bd      	b.n	2000a9e0 <dcd_rp2040_irq+0x40c>
2000a664:	4bb3      	ldr	r3, [pc, #716]	; (2000a934 <dcd_rp2040_irq+0x360>)
2000a666:	5ce3      	ldrb	r3, [r4, r3]
2000a668:	2b02      	cmp	r3, #2
2000a66a:	d100      	bne.n	2000a66e <dcd_rp2040_irq+0x9a>
2000a66c:	e1a4      	b.n	2000a9b8 <dcd_rp2040_irq+0x3e4>
2000a66e:	4bb2      	ldr	r3, [pc, #712]	; (2000a938 <dcd_rp2040_irq+0x364>)
2000a670:	5ce3      	ldrb	r3, [r4, r3]
2000a672:	2b02      	cmp	r3, #2
2000a674:	d100      	bne.n	2000a678 <dcd_rp2040_irq+0xa4>
2000a676:	e18b      	b.n	2000a990 <dcd_rp2040_irq+0x3bc>
2000a678:	4bb0      	ldr	r3, [pc, #704]	; (2000a93c <dcd_rp2040_irq+0x368>)
2000a67a:	5ce3      	ldrb	r3, [r4, r3]
2000a67c:	2b02      	cmp	r3, #2
2000a67e:	d100      	bne.n	2000a682 <dcd_rp2040_irq+0xae>
2000a680:	e172      	b.n	2000a968 <dcd_rp2040_irq+0x394>
2000a682:	4baf      	ldr	r3, [pc, #700]	; (2000a940 <dcd_rp2040_irq+0x36c>)
2000a684:	5ce3      	ldrb	r3, [r4, r3]
2000a686:	2b02      	cmp	r3, #2
2000a688:	d100      	bne.n	2000a68c <dcd_rp2040_irq+0xb8>
2000a68a:	e133      	b.n	2000a8f4 <dcd_rp2040_irq+0x320>
2000a68c:	4bad      	ldr	r3, [pc, #692]	; (2000a944 <dcd_rp2040_irq+0x370>)
2000a68e:	5ce3      	ldrb	r3, [r4, r3]
2000a690:	2b02      	cmp	r3, #2
2000a692:	d100      	bne.n	2000a696 <dcd_rp2040_irq+0xc2>
2000a694:	e118      	b.n	2000a8c8 <dcd_rp2040_irq+0x2f4>
2000a696:	4bac      	ldr	r3, [pc, #688]	; (2000a948 <dcd_rp2040_irq+0x374>)
2000a698:	5ce3      	ldrb	r3, [r4, r3]
2000a69a:	2b02      	cmp	r3, #2
2000a69c:	d100      	bne.n	2000a6a0 <dcd_rp2040_irq+0xcc>
2000a69e:	e1dc      	b.n	2000aa5a <dcd_rp2040_irq+0x486>
2000a6a0:	2e00      	cmp	r6, #0
2000a6a2:	d108      	bne.n	2000a6b6 <dcd_rp2040_irq+0xe2>
2000a6a4:	4ba9      	ldr	r3, [pc, #676]	; (2000a94c <dcd_rp2040_irq+0x378>)
2000a6a6:	781b      	ldrb	r3, [r3, #0]
2000a6a8:	2b00      	cmp	r3, #0
2000a6aa:	d104      	bne.n	2000a6b6 <dcd_rp2040_irq+0xe2>
2000a6ac:	2180      	movs	r1, #128	; 0x80
2000a6ae:	4aa8      	ldr	r2, [pc, #672]	; (2000a950 <dcd_rp2040_irq+0x37c>)
2000a6b0:	3390      	adds	r3, #144	; 0x90
2000a6b2:	0289      	lsls	r1, r1, #10
2000a6b4:	50d1      	str	r1, [r2, r3]
2000a6b6:	ae01      	add	r6, sp, #4
2000a6b8:	4b98      	ldr	r3, [pc, #608]	; (2000a91c <dcd_rp2040_irq+0x348>)
2000a6ba:	220c      	movs	r2, #12
2000a6bc:	2100      	movs	r1, #0
2000a6be:	0030      	movs	r0, r6
2000a6c0:	6c9c      	ldr	r4, [r3, #72]	; 0x48
2000a6c2:	f7fb f8f5 	bl	200058b0 <__wrap_memset>
2000a6c6:	2303      	movs	r3, #3
2000a6c8:	0564      	lsls	r4, r4, #21
2000a6ca:	0d64      	lsrs	r4, r4, #21
2000a6cc:	7073      	strb	r3, [r6, #1]
2000a6ce:	0030      	movs	r0, r6
2000a6d0:	9402      	str	r4, [sp, #8]
2000a6d2:	2101      	movs	r1, #1
2000a6d4:	2480      	movs	r4, #128	; 0x80
2000a6d6:	f000 fb1d 	bl	2000ad14 <dcd_event_handler>
2000a6da:	4e9e      	ldr	r6, [pc, #632]	; (2000a954 <dcd_rp2040_irq+0x380>)
2000a6dc:	02a4      	lsls	r4, r4, #10
2000a6de:	06eb      	lsls	r3, r5, #27
2000a6e0:	d468      	bmi.n	2000a7b4 <dcd_rp2040_irq+0x1e0>
2000a6e2:	2380      	movs	r3, #128	; 0x80
2000a6e4:	025b      	lsls	r3, r3, #9
2000a6e6:	421d      	tst	r5, r3
2000a6e8:	d014      	beq.n	2000a714 <dcd_rp2040_irq+0x140>
2000a6ea:	2201      	movs	r2, #1
2000a6ec:	2123      	movs	r1, #35	; 0x23
2000a6ee:	431c      	orrs	r4, r3
2000a6f0:	4b8c      	ldr	r3, [pc, #560]	; (2000a924 <dcd_rp2040_irq+0x350>)
2000a6f2:	545a      	strb	r2, [r3, r1]
2000a6f4:	70da      	strb	r2, [r3, #3]
2000a6f6:	23c0      	movs	r3, #192	; 0xc0
2000a6f8:	4a97      	ldr	r2, [pc, #604]	; (2000a958 <dcd_rp2040_irq+0x384>)
2000a6fa:	00db      	lsls	r3, r3, #3
2000a6fc:	9301      	str	r3, [sp, #4]
2000a6fe:	ab02      	add	r3, sp, #8
2000a700:	ca03      	ldmia	r2!, {r0, r1}
2000a702:	c303      	stmia	r3!, {r0, r1}
2000a704:	2101      	movs	r1, #1
2000a706:	a801      	add	r0, sp, #4
2000a708:	f000 fb04 	bl	2000ad14 <dcd_event_handler>
2000a70c:	2280      	movs	r2, #128	; 0x80
2000a70e:	4b90      	ldr	r3, [pc, #576]	; (2000a950 <dcd_rp2040_irq+0x37c>)
2000a710:	0292      	lsls	r2, r2, #10
2000a712:	651a      	str	r2, [r3, #80]	; 0x50
2000a714:	2380      	movs	r3, #128	; 0x80
2000a716:	015b      	lsls	r3, r3, #5
2000a718:	421d      	tst	r5, r3
2000a71a:	d12f      	bne.n	2000a77c <dcd_rp2040_irq+0x1a8>
2000a71c:	2380      	movs	r3, #128	; 0x80
2000a71e:	01db      	lsls	r3, r3, #7
2000a720:	421d      	tst	r5, r3
2000a722:	d11a      	bne.n	2000a75a <dcd_rp2040_irq+0x186>
2000a724:	2380      	movs	r3, #128	; 0x80
2000a726:	021b      	lsls	r3, r3, #8
2000a728:	421d      	tst	r5, r3
2000a72a:	d104      	bne.n	2000a736 <dcd_rp2040_irq+0x162>
2000a72c:	42ac      	cmp	r4, r5
2000a72e:	d000      	beq.n	2000a732 <dcd_rp2040_irq+0x15e>
2000a730:	e1ad      	b.n	2000aa8e <dcd_rp2040_irq+0x4ba>
2000a732:	b005      	add	sp, #20
2000a734:	bdf0      	pop	{r4, r5, r6, r7, pc}
2000a736:	ae01      	add	r6, sp, #4
2000a738:	220c      	movs	r2, #12
2000a73a:	2100      	movs	r1, #0
2000a73c:	0030      	movs	r0, r6
2000a73e:	431c      	orrs	r4, r3
2000a740:	f7fb f8b6 	bl	200058b0 <__wrap_memset>
2000a744:	2305      	movs	r3, #5
2000a746:	2101      	movs	r1, #1
2000a748:	7073      	strb	r3, [r6, #1]
2000a74a:	0030      	movs	r0, r6
2000a74c:	f000 fae2 	bl	2000ad14 <dcd_event_handler>
2000a750:	2280      	movs	r2, #128	; 0x80
2000a752:	4b7f      	ldr	r3, [pc, #508]	; (2000a950 <dcd_rp2040_irq+0x37c>)
2000a754:	0112      	lsls	r2, r2, #4
2000a756:	651a      	str	r2, [r3, #80]	; 0x50
2000a758:	e7e8      	b.n	2000a72c <dcd_rp2040_irq+0x158>
2000a75a:	ae01      	add	r6, sp, #4
2000a75c:	220c      	movs	r2, #12
2000a75e:	2100      	movs	r1, #0
2000a760:	0030      	movs	r0, r6
2000a762:	431c      	orrs	r4, r3
2000a764:	f7fb f8a4 	bl	200058b0 <__wrap_memset>
2000a768:	2304      	movs	r3, #4
2000a76a:	2101      	movs	r1, #1
2000a76c:	7073      	strb	r3, [r6, #1]
2000a76e:	0030      	movs	r0, r6
2000a770:	f000 fad0 	bl	2000ad14 <dcd_event_handler>
2000a774:	2210      	movs	r2, #16
2000a776:	4b76      	ldr	r3, [pc, #472]	; (2000a950 <dcd_rp2040_irq+0x37c>)
2000a778:	651a      	str	r2, [r3, #80]	; 0x50
2000a77a:	e7d3      	b.n	2000a724 <dcd_rp2040_irq+0x150>
2000a77c:	431c      	orrs	r4, r3
2000a77e:	2300      	movs	r3, #0
2000a780:	4f66      	ldr	r7, [pc, #408]	; (2000a91c <dcd_rp2040_irq+0x348>)
2000a782:	ae01      	add	r6, sp, #4
2000a784:	603b      	str	r3, [r7, #0]
2000a786:	f7ff fe73 	bl	2000a470 <reset_non_control_endpoints>
2000a78a:	220c      	movs	r2, #12
2000a78c:	2100      	movs	r1, #0
2000a78e:	0030      	movs	r0, r6
2000a790:	f7fb f88e 	bl	200058b0 <__wrap_memset>
2000a794:	2301      	movs	r3, #1
2000a796:	2101      	movs	r1, #1
2000a798:	7073      	strb	r3, [r6, #1]
2000a79a:	0030      	movs	r0, r6
2000a79c:	f000 faba 	bl	2000ad14 <dcd_event_handler>
2000a7a0:	2280      	movs	r2, #128	; 0x80
2000a7a2:	4b6b      	ldr	r3, [pc, #428]	; (2000a950 <dcd_rp2040_irq+0x37c>)
2000a7a4:	0312      	lsls	r2, r2, #12
2000a7a6:	651a      	str	r2, [r3, #80]	; 0x50
2000a7a8:	6cfb      	ldr	r3, [r7, #76]	; 0x4c
2000a7aa:	03db      	lsls	r3, r3, #15
2000a7ac:	d5b6      	bpl.n	2000a71c <dcd_rp2040_irq+0x148>
2000a7ae:	f7fd fbdd 	bl	20007f6c <rp2040_usb_device_enumeration_fix>
2000a7b2:	e7b3      	b.n	2000a71c <dcd_rp2040_irq+0x148>
2000a7b4:	f7ff feba 	bl	2000a52c <hw_handle_buff_status>
2000a7b8:	0034      	movs	r4, r6
2000a7ba:	e792      	b.n	2000a6e2 <dcd_rp2040_irq+0x10e>
2000a7bc:	3338      	adds	r3, #56	; 0x38
2000a7be:	5ce6      	ldrb	r6, [r4, r3]
2000a7c0:	2e00      	cmp	r6, #0
2000a7c2:	d100      	bne.n	2000a7c6 <dcd_rp2040_irq+0x1f2>
2000a7c4:	e71d      	b.n	2000a602 <dcd_rp2040_irq+0x2e>
2000a7c6:	3302      	adds	r3, #2
2000a7c8:	5ce2      	ldrb	r2, [r4, r3]
2000a7ca:	2a00      	cmp	r2, #0
2000a7cc:	d100      	bne.n	2000a7d0 <dcd_rp2040_irq+0x1fc>
2000a7ce:	e718      	b.n	2000a602 <dcd_rp2040_irq+0x2e>
2000a7d0:	2200      	movs	r2, #0
2000a7d2:	0020      	movs	r0, r4
2000a7d4:	54e2      	strb	r2, [r4, r3]
2000a7d6:	3020      	adds	r0, #32
2000a7d8:	f000 fa3e 	bl	2000ac58 <hw_endpoint_start_next_buffer>
2000a7dc:	e711      	b.n	2000a602 <dcd_rp2040_irq+0x2e>
2000a7de:	33b8      	adds	r3, #184	; 0xb8
2000a7e0:	5ce3      	ldrb	r3, [r4, r3]
2000a7e2:	2b00      	cmp	r3, #0
2000a7e4:	d100      	bne.n	2000a7e8 <dcd_rp2040_irq+0x214>
2000a7e6:	e716      	b.n	2000a616 <dcd_rp2040_irq+0x42>
2000a7e8:	22bc      	movs	r2, #188	; 0xbc
2000a7ea:	5ca1      	ldrb	r1, [r4, r2]
2000a7ec:	001e      	movs	r6, r3
2000a7ee:	2900      	cmp	r1, #0
2000a7f0:	d100      	bne.n	2000a7f4 <dcd_rp2040_irq+0x220>
2000a7f2:	e710      	b.n	2000a616 <dcd_rp2040_irq+0x42>
2000a7f4:	2300      	movs	r3, #0
2000a7f6:	0020      	movs	r0, r4
2000a7f8:	54a3      	strb	r3, [r4, r2]
2000a7fa:	30a0      	adds	r0, #160	; 0xa0
2000a7fc:	f000 fa2c 	bl	2000ac58 <hw_endpoint_start_next_buffer>
2000a800:	e709      	b.n	2000a616 <dcd_rp2040_irq+0x42>
2000a802:	3378      	adds	r3, #120	; 0x78
2000a804:	5ce3      	ldrb	r3, [r4, r3]
2000a806:	2b00      	cmp	r3, #0
2000a808:	d100      	bne.n	2000a80c <dcd_rp2040_irq+0x238>
2000a80a:	e6ff      	b.n	2000a60c <dcd_rp2040_irq+0x38>
2000a80c:	227c      	movs	r2, #124	; 0x7c
2000a80e:	5ca1      	ldrb	r1, [r4, r2]
2000a810:	001e      	movs	r6, r3
2000a812:	2900      	cmp	r1, #0
2000a814:	d100      	bne.n	2000a818 <dcd_rp2040_irq+0x244>
2000a816:	e6f9      	b.n	2000a60c <dcd_rp2040_irq+0x38>
2000a818:	2300      	movs	r3, #0
2000a81a:	0020      	movs	r0, r4
2000a81c:	54a3      	strb	r3, [r4, r2]
2000a81e:	3060      	adds	r0, #96	; 0x60
2000a820:	f000 fa1a 	bl	2000ac58 <hw_endpoint_start_next_buffer>
2000a824:	e6f2      	b.n	2000a60c <dcd_rp2040_irq+0x38>
2000a826:	33b9      	adds	r3, #185	; 0xb9
2000a828:	33ff      	adds	r3, #255	; 0xff
2000a82a:	5ce3      	ldrb	r3, [r4, r3]
2000a82c:	2b00      	cmp	r3, #0
2000a82e:	d100      	bne.n	2000a832 <dcd_rp2040_irq+0x25e>
2000a830:	e708      	b.n	2000a644 <dcd_rp2040_irq+0x70>
2000a832:	22de      	movs	r2, #222	; 0xde
2000a834:	0052      	lsls	r2, r2, #1
2000a836:	5ca1      	ldrb	r1, [r4, r2]
2000a838:	001e      	movs	r6, r3
2000a83a:	2900      	cmp	r1, #0
2000a83c:	d100      	bne.n	2000a840 <dcd_rp2040_irq+0x26c>
2000a83e:	e701      	b.n	2000a644 <dcd_rp2040_irq+0x70>
2000a840:	0020      	movs	r0, r4
2000a842:	2300      	movs	r3, #0
2000a844:	30a1      	adds	r0, #161	; 0xa1
2000a846:	54a3      	strb	r3, [r4, r2]
2000a848:	30ff      	adds	r0, #255	; 0xff
2000a84a:	f000 fa05 	bl	2000ac58 <hw_endpoint_start_next_buffer>
2000a84e:	e6f9      	b.n	2000a644 <dcd_rp2040_irq+0x70>
2000a850:	3379      	adds	r3, #121	; 0x79
2000a852:	33ff      	adds	r3, #255	; 0xff
2000a854:	5ce3      	ldrb	r3, [r4, r3]
2000a856:	2b00      	cmp	r3, #0
2000a858:	d100      	bne.n	2000a85c <dcd_rp2040_irq+0x288>
2000a85a:	e6ed      	b.n	2000a638 <dcd_rp2040_irq+0x64>
2000a85c:	22be      	movs	r2, #190	; 0xbe
2000a85e:	0052      	lsls	r2, r2, #1
2000a860:	5ca1      	ldrb	r1, [r4, r2]
2000a862:	001e      	movs	r6, r3
2000a864:	2900      	cmp	r1, #0
2000a866:	d100      	bne.n	2000a86a <dcd_rp2040_irq+0x296>
2000a868:	e6e6      	b.n	2000a638 <dcd_rp2040_irq+0x64>
2000a86a:	0020      	movs	r0, r4
2000a86c:	2300      	movs	r3, #0
2000a86e:	3061      	adds	r0, #97	; 0x61
2000a870:	54a3      	strb	r3, [r4, r2]
2000a872:	30ff      	adds	r0, #255	; 0xff
2000a874:	f000 f9f0 	bl	2000ac58 <hw_endpoint_start_next_buffer>
2000a878:	e6de      	b.n	2000a638 <dcd_rp2040_irq+0x64>
2000a87a:	3339      	adds	r3, #57	; 0x39
2000a87c:	33ff      	adds	r3, #255	; 0xff
2000a87e:	5ce3      	ldrb	r3, [r4, r3]
2000a880:	2b00      	cmp	r3, #0
2000a882:	d100      	bne.n	2000a886 <dcd_rp2040_irq+0x2b2>
2000a884:	e6d2      	b.n	2000a62c <dcd_rp2040_irq+0x58>
2000a886:	229e      	movs	r2, #158	; 0x9e
2000a888:	0052      	lsls	r2, r2, #1
2000a88a:	5ca1      	ldrb	r1, [r4, r2]
2000a88c:	001e      	movs	r6, r3
2000a88e:	2900      	cmp	r1, #0
2000a890:	d100      	bne.n	2000a894 <dcd_rp2040_irq+0x2c0>
2000a892:	e6cb      	b.n	2000a62c <dcd_rp2040_irq+0x58>
2000a894:	0020      	movs	r0, r4
2000a896:	2300      	movs	r3, #0
2000a898:	3021      	adds	r0, #33	; 0x21
2000a89a:	54a3      	strb	r3, [r4, r2]
2000a89c:	30ff      	adds	r0, #255	; 0xff
2000a89e:	f000 f9db 	bl	2000ac58 <hw_endpoint_start_next_buffer>
2000a8a2:	e6c3      	b.n	2000a62c <dcd_rp2040_irq+0x58>
2000a8a4:	33f8      	adds	r3, #248	; 0xf8
2000a8a6:	5ce3      	ldrb	r3, [r4, r3]
2000a8a8:	2b00      	cmp	r3, #0
2000a8aa:	d100      	bne.n	2000a8ae <dcd_rp2040_irq+0x2da>
2000a8ac:	e6b8      	b.n	2000a620 <dcd_rp2040_irq+0x4c>
2000a8ae:	22fc      	movs	r2, #252	; 0xfc
2000a8b0:	5ca1      	ldrb	r1, [r4, r2]
2000a8b2:	001e      	movs	r6, r3
2000a8b4:	2900      	cmp	r1, #0
2000a8b6:	d100      	bne.n	2000a8ba <dcd_rp2040_irq+0x2e6>
2000a8b8:	e6b2      	b.n	2000a620 <dcd_rp2040_irq+0x4c>
2000a8ba:	2300      	movs	r3, #0
2000a8bc:	0020      	movs	r0, r4
2000a8be:	54a3      	strb	r3, [r4, r2]
2000a8c0:	30e0      	adds	r0, #224	; 0xe0
2000a8c2:	f000 f9c9 	bl	2000ac58 <hw_endpoint_start_next_buffer>
2000a8c6:	e6ab      	b.n	2000a620 <dcd_rp2040_irq+0x4c>
2000a8c8:	4b24      	ldr	r3, [pc, #144]	; (2000a95c <dcd_rp2040_irq+0x388>)
2000a8ca:	5ce3      	ldrb	r3, [r4, r3]
2000a8cc:	2b00      	cmp	r3, #0
2000a8ce:	d100      	bne.n	2000a8d2 <dcd_rp2040_irq+0x2fe>
2000a8d0:	e6e1      	b.n	2000a696 <dcd_rp2040_irq+0xc2>
2000a8d2:	23ef      	movs	r3, #239	; 0xef
2000a8d4:	009b      	lsls	r3, r3, #2
2000a8d6:	5ce2      	ldrb	r2, [r4, r3]
2000a8d8:	2a00      	cmp	r2, #0
2000a8da:	d000      	beq.n	2000a8de <dcd_rp2040_irq+0x30a>
2000a8dc:	e0cf      	b.n	2000aa7e <dcd_rp2040_irq+0x4aa>
2000a8de:	4b1a      	ldr	r3, [pc, #104]	; (2000a948 <dcd_rp2040_irq+0x374>)
2000a8e0:	5ce3      	ldrb	r3, [r4, r3]
2000a8e2:	2b02      	cmp	r3, #2
2000a8e4:	d000      	beq.n	2000a8e8 <dcd_rp2040_irq+0x314>
2000a8e6:	e6e6      	b.n	2000a6b6 <dcd_rp2040_irq+0xe2>
2000a8e8:	4b1d      	ldr	r3, [pc, #116]	; (2000a960 <dcd_rp2040_irq+0x38c>)
2000a8ea:	5ce3      	ldrb	r3, [r4, r3]
2000a8ec:	2b00      	cmp	r3, #0
2000a8ee:	d000      	beq.n	2000a8f2 <dcd_rp2040_irq+0x31e>
2000a8f0:	e0b8      	b.n	2000aa64 <dcd_rp2040_irq+0x490>
2000a8f2:	e6e0      	b.n	2000a6b6 <dcd_rp2040_irq+0xe2>
2000a8f4:	4b1b      	ldr	r3, [pc, #108]	; (2000a964 <dcd_rp2040_irq+0x390>)
2000a8f6:	5ce3      	ldrb	r3, [r4, r3]
2000a8f8:	2b00      	cmp	r3, #0
2000a8fa:	d100      	bne.n	2000a8fe <dcd_rp2040_irq+0x32a>
2000a8fc:	e6c6      	b.n	2000a68c <dcd_rp2040_irq+0xb8>
2000a8fe:	22df      	movs	r2, #223	; 0xdf
2000a900:	0092      	lsls	r2, r2, #2
2000a902:	5ca1      	ldrb	r1, [r4, r2]
2000a904:	001e      	movs	r6, r3
2000a906:	2900      	cmp	r1, #0
2000a908:	d100      	bne.n	2000a90c <dcd_rp2040_irq+0x338>
2000a90a:	e6bf      	b.n	2000a68c <dcd_rp2040_irq+0xb8>
2000a90c:	2300      	movs	r3, #0
2000a90e:	54a3      	strb	r3, [r4, r2]
2000a910:	23d8      	movs	r3, #216	; 0xd8
2000a912:	009b      	lsls	r3, r3, #2
2000a914:	18e0      	adds	r0, r4, r3
2000a916:	f000 f99f 	bl	2000ac58 <hw_endpoint_start_next_buffer>
2000a91a:	e6b7      	b.n	2000a68c <dcd_rp2040_irq+0xb8>
2000a91c:	50110000 	.word	0x50110000
2000a920:	40054000 	.word	0x40054000
2000a924:	200110e0 	.word	0x200110e0
2000a928:	200110d4 	.word	0x200110d4
2000a92c:	0000023b 	.word	0x0000023b
2000a930:	0000027b 	.word	0x0000027b
2000a934:	000002bb 	.word	0x000002bb
2000a938:	000002fb 	.word	0x000002fb
2000a93c:	0000033b 	.word	0x0000033b
2000a940:	0000037b 	.word	0x0000037b
2000a944:	000003bb 	.word	0x000003bb
2000a948:	000003fb 	.word	0x000003fb
2000a94c:	200218c8 	.word	0x200218c8
2000a950:	50113000 	.word	0x50113000
2000a954:	00020010 	.word	0x00020010
2000a958:	50100000 	.word	0x50100000
2000a95c:	000003ba 	.word	0x000003ba
2000a960:	000003fa 	.word	0x000003fa
2000a964:	0000037a 	.word	0x0000037a
2000a968:	4b4b      	ldr	r3, [pc, #300]	; (2000aa98 <dcd_rp2040_irq+0x4c4>)
2000a96a:	5ce3      	ldrb	r3, [r4, r3]
2000a96c:	2b00      	cmp	r3, #0
2000a96e:	d100      	bne.n	2000a972 <dcd_rp2040_irq+0x39e>
2000a970:	e687      	b.n	2000a682 <dcd_rp2040_irq+0xae>
2000a972:	22cf      	movs	r2, #207	; 0xcf
2000a974:	0092      	lsls	r2, r2, #2
2000a976:	5ca1      	ldrb	r1, [r4, r2]
2000a978:	001e      	movs	r6, r3
2000a97a:	2900      	cmp	r1, #0
2000a97c:	d100      	bne.n	2000a980 <dcd_rp2040_irq+0x3ac>
2000a97e:	e680      	b.n	2000a682 <dcd_rp2040_irq+0xae>
2000a980:	2300      	movs	r3, #0
2000a982:	54a3      	strb	r3, [r4, r2]
2000a984:	23c8      	movs	r3, #200	; 0xc8
2000a986:	009b      	lsls	r3, r3, #2
2000a988:	18e0      	adds	r0, r4, r3
2000a98a:	f000 f965 	bl	2000ac58 <hw_endpoint_start_next_buffer>
2000a98e:	e678      	b.n	2000a682 <dcd_rp2040_irq+0xae>
2000a990:	4b42      	ldr	r3, [pc, #264]	; (2000aa9c <dcd_rp2040_irq+0x4c8>)
2000a992:	5ce3      	ldrb	r3, [r4, r3]
2000a994:	2b00      	cmp	r3, #0
2000a996:	d100      	bne.n	2000a99a <dcd_rp2040_irq+0x3c6>
2000a998:	e66e      	b.n	2000a678 <dcd_rp2040_irq+0xa4>
2000a99a:	22bf      	movs	r2, #191	; 0xbf
2000a99c:	0092      	lsls	r2, r2, #2
2000a99e:	5ca1      	ldrb	r1, [r4, r2]
2000a9a0:	001e      	movs	r6, r3
2000a9a2:	2900      	cmp	r1, #0
2000a9a4:	d100      	bne.n	2000a9a8 <dcd_rp2040_irq+0x3d4>
2000a9a6:	e667      	b.n	2000a678 <dcd_rp2040_irq+0xa4>
2000a9a8:	2300      	movs	r3, #0
2000a9aa:	54a3      	strb	r3, [r4, r2]
2000a9ac:	23b8      	movs	r3, #184	; 0xb8
2000a9ae:	009b      	lsls	r3, r3, #2
2000a9b0:	18e0      	adds	r0, r4, r3
2000a9b2:	f000 f951 	bl	2000ac58 <hw_endpoint_start_next_buffer>
2000a9b6:	e65f      	b.n	2000a678 <dcd_rp2040_irq+0xa4>
2000a9b8:	4b39      	ldr	r3, [pc, #228]	; (2000aaa0 <dcd_rp2040_irq+0x4cc>)
2000a9ba:	5ce3      	ldrb	r3, [r4, r3]
2000a9bc:	2b00      	cmp	r3, #0
2000a9be:	d100      	bne.n	2000a9c2 <dcd_rp2040_irq+0x3ee>
2000a9c0:	e655      	b.n	2000a66e <dcd_rp2040_irq+0x9a>
2000a9c2:	22af      	movs	r2, #175	; 0xaf
2000a9c4:	0092      	lsls	r2, r2, #2
2000a9c6:	5ca1      	ldrb	r1, [r4, r2]
2000a9c8:	001e      	movs	r6, r3
2000a9ca:	2900      	cmp	r1, #0
2000a9cc:	d100      	bne.n	2000a9d0 <dcd_rp2040_irq+0x3fc>
2000a9ce:	e64e      	b.n	2000a66e <dcd_rp2040_irq+0x9a>
2000a9d0:	2300      	movs	r3, #0
2000a9d2:	54a3      	strb	r3, [r4, r2]
2000a9d4:	23a8      	movs	r3, #168	; 0xa8
2000a9d6:	009b      	lsls	r3, r3, #2
2000a9d8:	18e0      	adds	r0, r4, r3
2000a9da:	f000 f93d 	bl	2000ac58 <hw_endpoint_start_next_buffer>
2000a9de:	e646      	b.n	2000a66e <dcd_rp2040_irq+0x9a>
2000a9e0:	4b30      	ldr	r3, [pc, #192]	; (2000aaa4 <dcd_rp2040_irq+0x4d0>)
2000a9e2:	5ce3      	ldrb	r3, [r4, r3]
2000a9e4:	2b00      	cmp	r3, #0
2000a9e6:	d100      	bne.n	2000a9ea <dcd_rp2040_irq+0x416>
2000a9e8:	e63c      	b.n	2000a664 <dcd_rp2040_irq+0x90>
2000a9ea:	229f      	movs	r2, #159	; 0x9f
2000a9ec:	0092      	lsls	r2, r2, #2
2000a9ee:	5ca1      	ldrb	r1, [r4, r2]
2000a9f0:	001e      	movs	r6, r3
2000a9f2:	2900      	cmp	r1, #0
2000a9f4:	d100      	bne.n	2000a9f8 <dcd_rp2040_irq+0x424>
2000a9f6:	e635      	b.n	2000a664 <dcd_rp2040_irq+0x90>
2000a9f8:	2300      	movs	r3, #0
2000a9fa:	54a3      	strb	r3, [r4, r2]
2000a9fc:	2398      	movs	r3, #152	; 0x98
2000a9fe:	009b      	lsls	r3, r3, #2
2000aa00:	18e0      	adds	r0, r4, r3
2000aa02:	f000 f929 	bl	2000ac58 <hw_endpoint_start_next_buffer>
2000aa06:	e62d      	b.n	2000a664 <dcd_rp2040_irq+0x90>
2000aa08:	4b27      	ldr	r3, [pc, #156]	; (2000aaa8 <dcd_rp2040_irq+0x4d4>)
2000aa0a:	5ce3      	ldrb	r3, [r4, r3]
2000aa0c:	2b00      	cmp	r3, #0
2000aa0e:	d100      	bne.n	2000aa12 <dcd_rp2040_irq+0x43e>
2000aa10:	e623      	b.n	2000a65a <dcd_rp2040_irq+0x86>
2000aa12:	228f      	movs	r2, #143	; 0x8f
2000aa14:	0092      	lsls	r2, r2, #2
2000aa16:	5ca1      	ldrb	r1, [r4, r2]
2000aa18:	001e      	movs	r6, r3
2000aa1a:	2900      	cmp	r1, #0
2000aa1c:	d100      	bne.n	2000aa20 <dcd_rp2040_irq+0x44c>
2000aa1e:	e61c      	b.n	2000a65a <dcd_rp2040_irq+0x86>
2000aa20:	2300      	movs	r3, #0
2000aa22:	54a3      	strb	r3, [r4, r2]
2000aa24:	2388      	movs	r3, #136	; 0x88
2000aa26:	009b      	lsls	r3, r3, #2
2000aa28:	18e0      	adds	r0, r4, r3
2000aa2a:	f000 f915 	bl	2000ac58 <hw_endpoint_start_next_buffer>
2000aa2e:	e614      	b.n	2000a65a <dcd_rp2040_irq+0x86>
2000aa30:	33f9      	adds	r3, #249	; 0xf9
2000aa32:	33ff      	adds	r3, #255	; 0xff
2000aa34:	5ce3      	ldrb	r3, [r4, r3]
2000aa36:	2b00      	cmp	r3, #0
2000aa38:	d100      	bne.n	2000aa3c <dcd_rp2040_irq+0x468>
2000aa3a:	e609      	b.n	2000a650 <dcd_rp2040_irq+0x7c>
2000aa3c:	22fe      	movs	r2, #254	; 0xfe
2000aa3e:	0052      	lsls	r2, r2, #1
2000aa40:	5ca1      	ldrb	r1, [r4, r2]
2000aa42:	001e      	movs	r6, r3
2000aa44:	2900      	cmp	r1, #0
2000aa46:	d100      	bne.n	2000aa4a <dcd_rp2040_irq+0x476>
2000aa48:	e602      	b.n	2000a650 <dcd_rp2040_irq+0x7c>
2000aa4a:	0020      	movs	r0, r4
2000aa4c:	2300      	movs	r3, #0
2000aa4e:	30e1      	adds	r0, #225	; 0xe1
2000aa50:	54a3      	strb	r3, [r4, r2]
2000aa52:	30ff      	adds	r0, #255	; 0xff
2000aa54:	f000 f900 	bl	2000ac58 <hw_endpoint_start_next_buffer>
2000aa58:	e5fa      	b.n	2000a650 <dcd_rp2040_irq+0x7c>
2000aa5a:	4b14      	ldr	r3, [pc, #80]	; (2000aaac <dcd_rp2040_irq+0x4d8>)
2000aa5c:	5ce3      	ldrb	r3, [r4, r3]
2000aa5e:	2b00      	cmp	r3, #0
2000aa60:	d100      	bne.n	2000aa64 <dcd_rp2040_irq+0x490>
2000aa62:	e61d      	b.n	2000a6a0 <dcd_rp2040_irq+0xcc>
2000aa64:	23ff      	movs	r3, #255	; 0xff
2000aa66:	009b      	lsls	r3, r3, #2
2000aa68:	5ce2      	ldrb	r2, [r4, r3]
2000aa6a:	2a00      	cmp	r2, #0
2000aa6c:	d100      	bne.n	2000aa70 <dcd_rp2040_irq+0x49c>
2000aa6e:	e622      	b.n	2000a6b6 <dcd_rp2040_irq+0xe2>
2000aa70:	2200      	movs	r2, #0
2000aa72:	54e2      	strb	r2, [r4, r3]
2000aa74:	3b1c      	subs	r3, #28
2000aa76:	18e0      	adds	r0, r4, r3
2000aa78:	f000 f8ee 	bl	2000ac58 <hw_endpoint_start_next_buffer>
2000aa7c:	e61b      	b.n	2000a6b6 <dcd_rp2040_irq+0xe2>
2000aa7e:	2200      	movs	r2, #0
2000aa80:	54e2      	strb	r2, [r4, r3]
2000aa82:	23e8      	movs	r3, #232	; 0xe8
2000aa84:	009b      	lsls	r3, r3, #2
2000aa86:	18e0      	adds	r0, r4, r3
2000aa88:	f000 f8e6 	bl	2000ac58 <hw_endpoint_start_next_buffer>
2000aa8c:	e727      	b.n	2000a8de <dcd_rp2040_irq+0x30a>
2000aa8e:	0021      	movs	r1, r4
2000aa90:	4807      	ldr	r0, [pc, #28]	; (2000aab0 <dcd_rp2040_irq+0x4dc>)
2000aa92:	4069      	eors	r1, r5
2000aa94:	f7fa fb8c 	bl	200051b0 <panic>
2000aa98:	0000033a 	.word	0x0000033a
2000aa9c:	000002fa 	.word	0x000002fa
2000aaa0:	000002ba 	.word	0x000002ba
2000aaa4:	0000027a 	.word	0x0000027a
2000aaa8:	0000023a 	.word	0x0000023a
2000aaac:	000003fa 	.word	0x000003fa
2000aab0:	2000b248 	.word	0x2000b248

2000aab4 <e15_is_bulkin_ep>:
2000aab4:	4a08      	ldr	r2, [pc, #32]	; (2000aad8 <e15_is_bulkin_ep+0x24>)
2000aab6:	0003      	movs	r3, r0
2000aab8:	6c12      	ldr	r2, [r2, #64]	; 0x40
2000aaba:	2000      	movs	r0, #0
2000aabc:	0792      	lsls	r2, r2, #30
2000aabe:	d403      	bmi.n	2000aac8 <e15_is_bulkin_ep+0x14>
2000aac0:	789a      	ldrb	r2, [r3, #2]
2000aac2:	09d2      	lsrs	r2, r2, #7
2000aac4:	2a01      	cmp	r2, #1
2000aac6:	d000      	beq.n	2000aaca <e15_is_bulkin_ep+0x16>
2000aac8:	4770      	bx	lr
2000aaca:	7ed8      	ldrb	r0, [r3, #27]
2000aacc:	3802      	subs	r0, #2
2000aace:	4243      	negs	r3, r0
2000aad0:	4158      	adcs	r0, r3
2000aad2:	b2c0      	uxtb	r0, r0
2000aad4:	e7f8      	b.n	2000aac8 <e15_is_bulkin_ep+0x14>
2000aad6:	46c0      	nop			; (mov r8, r8)
2000aad8:	50110000 	.word	0x50110000

2000aadc <e15_is_critical_frame_period>:
2000aadc:	b510      	push	{r4, lr}
2000aade:	f7ff ffe9 	bl	2000aab4 <e15_is_bulkin_ep>
2000aae2:	2800      	cmp	r0, #0
2000aae4:	d00c      	beq.n	2000ab00 <e15_is_critical_frame_period+0x24>
2000aae6:	4907      	ldr	r1, [pc, #28]	; (2000ab04 <e15_is_critical_frame_period+0x28>)
2000aae8:	4b07      	ldr	r3, [pc, #28]	; (2000ab08 <e15_is_critical_frame_period+0x2c>)
2000aaea:	468c      	mov	ip, r1
2000aaec:	4a07      	ldr	r2, [pc, #28]	; (2000ab0c <e15_is_critical_frame_period+0x30>)
2000aaee:	6a9b      	ldr	r3, [r3, #40]	; 0x28
2000aaf0:	6812      	ldr	r2, [r2, #0]
2000aaf2:	4463      	add	r3, ip
2000aaf4:	1a9b      	subs	r3, r3, r2
2000aaf6:	2000      	movs	r0, #0
2000aaf8:	22c6      	movs	r2, #198	; 0xc6
2000aafa:	429a      	cmp	r2, r3
2000aafc:	4140      	adcs	r0, r0
2000aafe:	b2c0      	uxtb	r0, r0
2000ab00:	bd10      	pop	{r4, pc}
2000ab02:	46c0      	nop			; (mov r8, r8)
2000ab04:	fffffce0 	.word	0xfffffce0
2000ab08:	40054000 	.word	0x40054000
2000ab0c:	200110d4 	.word	0x200110d4

2000ab10 <prepare_ep_buffer>:
2000ab10:	b5f8      	push	{r3, r4, r5, r6, r7, lr}
2000ab12:	8b02      	ldrh	r2, [r0, #24]
2000ab14:	8a83      	ldrh	r3, [r0, #20]
2000ab16:	0004      	movs	r4, r0
2000ab18:	000f      	movs	r7, r1
2000ab1a:	1c16      	adds	r6, r2, #0
2000ab1c:	429a      	cmp	r2, r3
2000ab1e:	d900      	bls.n	2000ab22 <prepare_ep_buffer+0x12>
2000ab20:	1c1e      	adds	r6, r3, #0
2000ab22:	2580      	movs	r5, #128	; 0x80
2000ab24:	b2b6      	uxth	r6, r6
2000ab26:	1b9b      	subs	r3, r3, r6
2000ab28:	78e2      	ldrb	r2, [r4, #3]
2000ab2a:	b29b      	uxth	r3, r3
2000ab2c:	00ed      	lsls	r5, r5, #3
2000ab2e:	82a3      	strh	r3, [r4, #20]
2000ab30:	4335      	orrs	r5, r6
2000ab32:	2a00      	cmp	r2, #0
2000ab34:	d002      	beq.n	2000ab3c <prepare_ep_buffer+0x2c>
2000ab36:	2590      	movs	r5, #144	; 0x90
2000ab38:	01ad      	lsls	r5, r5, #6
2000ab3a:	4335      	orrs	r5, r6
2000ab3c:	2101      	movs	r1, #1
2000ab3e:	404a      	eors	r2, r1
2000ab40:	70e2      	strb	r2, [r4, #3]
2000ab42:	7862      	ldrb	r2, [r4, #1]
2000ab44:	2a00      	cmp	r2, #0
2000ab46:	d009      	beq.n	2000ab5c <prepare_ep_buffer+0x4c>
2000ab48:	2b00      	cmp	r3, #0
2000ab4a:	d102      	bne.n	2000ab52 <prepare_ep_buffer+0x42>
2000ab4c:	2380      	movs	r3, #128	; 0x80
2000ab4e:	01db      	lsls	r3, r3, #7
2000ab50:	431d      	orrs	r5, r3
2000ab52:	2f00      	cmp	r7, #0
2000ab54:	d000      	beq.n	2000ab58 <prepare_ep_buffer+0x48>
2000ab56:	042d      	lsls	r5, r5, #16
2000ab58:	0028      	movs	r0, r5
2000ab5a:	bdf8      	pop	{r3, r4, r5, r6, r7, pc}
2000ab5c:	68e3      	ldr	r3, [r4, #12]
2000ab5e:	01b8      	lsls	r0, r7, #6
2000ab60:	469c      	mov	ip, r3
2000ab62:	0032      	movs	r2, r6
2000ab64:	4460      	add	r0, ip
2000ab66:	6921      	ldr	r1, [r4, #16]
2000ab68:	f7fa fea8 	bl	200058bc <__wrap___aeabi_memcpy>
2000ab6c:	6923      	ldr	r3, [r4, #16]
2000ab6e:	469c      	mov	ip, r3
2000ab70:	2380      	movs	r3, #128	; 0x80
2000ab72:	4466      	add	r6, ip
2000ab74:	021b      	lsls	r3, r3, #8
2000ab76:	431d      	orrs	r5, r3
2000ab78:	6126      	str	r6, [r4, #16]
2000ab7a:	8aa3      	ldrh	r3, [r4, #20]
2000ab7c:	e7e4      	b.n	2000ab48 <prepare_ep_buffer+0x38>
2000ab7e:	46c0      	nop			; (mov r8, r8)

2000ab80 <sync_ep_buffer>:
2000ab80:	6883      	ldr	r3, [r0, #8]
2000ab82:	b570      	push	{r4, r5, r6, lr}
2000ab84:	0004      	movs	r4, r0
2000ab86:	681d      	ldr	r5, [r3, #0]
2000ab88:	2900      	cmp	r1, #0
2000ab8a:	d000      	beq.n	2000ab8e <sync_ep_buffer+0xe>
2000ab8c:	0c2d      	lsrs	r5, r5, #16
2000ab8e:	7863      	ldrb	r3, [r4, #1]
2000ab90:	05ad      	lsls	r5, r5, #22
2000ab92:	0dad      	lsrs	r5, r5, #22
2000ab94:	2b00      	cmp	r3, #0
2000ab96:	d109      	bne.n	2000abac <sync_ep_buffer+0x2c>
2000ab98:	8ae3      	ldrh	r3, [r4, #22]
2000ab9a:	18eb      	adds	r3, r5, r3
2000ab9c:	82e3      	strh	r3, [r4, #22]
2000ab9e:	8b23      	ldrh	r3, [r4, #24]
2000aba0:	42ab      	cmp	r3, r5
2000aba2:	d901      	bls.n	2000aba8 <sync_ep_buffer+0x28>
2000aba4:	2300      	movs	r3, #0
2000aba6:	82a3      	strh	r3, [r4, #20]
2000aba8:	0028      	movs	r0, r5
2000abaa:	bd70      	pop	{r4, r5, r6, pc}
2000abac:	68e3      	ldr	r3, [r4, #12]
2000abae:	0189      	lsls	r1, r1, #6
2000abb0:	469c      	mov	ip, r3
2000abb2:	002a      	movs	r2, r5
2000abb4:	6920      	ldr	r0, [r4, #16]
2000abb6:	4461      	add	r1, ip
2000abb8:	f7fa fe80 	bl	200058bc <__wrap___aeabi_memcpy>
2000abbc:	8ae3      	ldrh	r3, [r4, #22]
2000abbe:	18eb      	adds	r3, r5, r3
2000abc0:	82e3      	strh	r3, [r4, #22]
2000abc2:	6923      	ldr	r3, [r4, #16]
2000abc4:	195b      	adds	r3, r3, r5
2000abc6:	6123      	str	r3, [r4, #16]
2000abc8:	e7e9      	b.n	2000ab9e <sync_ep_buffer+0x1e>
2000abca:	46c0      	nop			; (mov r8, r8)

2000abcc <_hw_endpoint_xfer_sync>:
2000abcc:	b510      	push	{r4, lr}
2000abce:	0004      	movs	r4, r0
2000abd0:	6883      	ldr	r3, [r0, #8]
2000abd2:	2100      	movs	r1, #0
2000abd4:	681b      	ldr	r3, [r3, #0]
2000abd6:	f7ff ffd3 	bl	2000ab80 <sync_ep_buffer>
2000abda:	6863      	ldr	r3, [r4, #4]
2000abdc:	681b      	ldr	r3, [r3, #0]
2000abde:	005b      	lsls	r3, r3, #1
2000abe0:	d502      	bpl.n	2000abe8 <_hw_endpoint_xfer_sync+0x1c>
2000abe2:	8b23      	ldrh	r3, [r4, #24]
2000abe4:	4283      	cmp	r3, r0
2000abe6:	d000      	beq.n	2000abea <_hw_endpoint_xfer_sync+0x1e>
2000abe8:	bd10      	pop	{r4, pc}
2000abea:	2101      	movs	r1, #1
2000abec:	0020      	movs	r0, r4
2000abee:	f7ff ffc7 	bl	2000ab80 <sync_ep_buffer>
2000abf2:	e7f9      	b.n	2000abe8 <_hw_endpoint_xfer_sync+0x1c>

2000abf4 <hw_endpoint_reset_transfer>:
2000abf4:	2300      	movs	r3, #0
2000abf6:	7683      	strb	r3, [r0, #26]
2000abf8:	6143      	str	r3, [r0, #20]
2000abfa:	6103      	str	r3, [r0, #16]
2000abfc:	4770      	bx	lr
2000abfe:	46c0      	nop			; (mov r8, r8)

2000ac00 <_hw_endpoint_buffer_control_update32>:
2000ac00:	b510      	push	{r4, lr}
2000ac02:	6883      	ldr	r3, [r0, #8]
2000ac04:	2900      	cmp	r1, #0
2000ac06:	d001      	beq.n	2000ac0c <_hw_endpoint_buffer_control_update32+0xc>
2000ac08:	681c      	ldr	r4, [r3, #0]
2000ac0a:	4021      	ands	r1, r4
2000ac0c:	2a00      	cmp	r2, #0
2000ac0e:	d011      	beq.n	2000ac34 <_hw_endpoint_buffer_control_update32+0x34>
2000ac10:	2480      	movs	r4, #128	; 0x80
2000ac12:	00e4      	lsls	r4, r4, #3
2000ac14:	4311      	orrs	r1, r2
2000ac16:	4222      	tst	r2, r4
2000ac18:	d00c      	beq.n	2000ac34 <_hw_endpoint_buffer_control_update32+0x34>
2000ac1a:	681a      	ldr	r2, [r3, #0]
2000ac1c:	4222      	tst	r2, r4
2000ac1e:	d10b      	bne.n	2000ac38 <_hw_endpoint_buffer_control_update32+0x38>
2000ac20:	4a0a      	ldr	r2, [pc, #40]	; (2000ac4c <_hw_endpoint_buffer_control_update32+0x4c>)
2000ac22:	400a      	ands	r2, r1
2000ac24:	601a      	str	r2, [r3, #0]
2000ac26:	e7ff      	b.n	2000ac28 <_hw_endpoint_buffer_control_update32+0x28>
2000ac28:	e7ff      	b.n	2000ac2a <_hw_endpoint_buffer_control_update32+0x2a>
2000ac2a:	e7ff      	b.n	2000ac2c <_hw_endpoint_buffer_control_update32+0x2c>
2000ac2c:	e7ff      	b.n	2000ac2e <_hw_endpoint_buffer_control_update32+0x2e>
2000ac2e:	e7ff      	b.n	2000ac30 <_hw_endpoint_buffer_control_update32+0x30>
2000ac30:	e7ff      	b.n	2000ac32 <_hw_endpoint_buffer_control_update32+0x32>
2000ac32:	6883      	ldr	r3, [r0, #8]
2000ac34:	6019      	str	r1, [r3, #0]
2000ac36:	bd10      	pop	{r4, pc}
2000ac38:	227f      	movs	r2, #127	; 0x7f
2000ac3a:	7881      	ldrb	r1, [r0, #2]
2000ac3c:	4804      	ldr	r0, [pc, #16]	; (2000ac50 <_hw_endpoint_buffer_control_update32+0x50>)
2000ac3e:	09cb      	lsrs	r3, r1, #7
2000ac40:	4011      	ands	r1, r2
2000ac42:	4a04      	ldr	r2, [pc, #16]	; (2000ac54 <_hw_endpoint_buffer_control_update32+0x54>)
2000ac44:	009b      	lsls	r3, r3, #2
2000ac46:	589a      	ldr	r2, [r3, r2]
2000ac48:	f7fa fab2 	bl	200051b0 <panic>
2000ac4c:	fffffbff 	.word	0xfffffbff
2000ac50:	2000b25c 	.word	0x2000b25c
2000ac54:	2000b528 	.word	0x2000b528

2000ac58 <hw_endpoint_start_next_buffer>:
2000ac58:	6843      	ldr	r3, [r0, #4]
2000ac5a:	b570      	push	{r4, r5, r6, lr}
2000ac5c:	2100      	movs	r1, #0
2000ac5e:	2580      	movs	r5, #128	; 0x80
2000ac60:	681e      	ldr	r6, [r3, #0]
2000ac62:	0004      	movs	r4, r0
2000ac64:	f7ff ff54 	bl	2000ab10 <prepare_ep_buffer>
2000ac68:	4b13      	ldr	r3, [pc, #76]	; (2000acb8 <hw_endpoint_start_next_buffer+0x60>)
2000ac6a:	016d      	lsls	r5, r5, #5
2000ac6c:	6c1b      	ldr	r3, [r3, #64]	; 0x40
2000ac6e:	4305      	orrs	r5, r0
2000ac70:	079b      	lsls	r3, r3, #30
2000ac72:	d50f      	bpl.n	2000ac94 <hw_endpoint_start_next_buffer+0x3c>
2000ac74:	78a3      	ldrb	r3, [r4, #2]
2000ac76:	065b      	lsls	r3, r3, #25
2000ac78:	d00f      	beq.n	2000ac9a <hw_endpoint_start_next_buffer+0x42>
2000ac7a:	4b10      	ldr	r3, [pc, #64]	; (2000acbc <hw_endpoint_start_next_buffer+0x64>)
2000ac7c:	401e      	ands	r6, r3
2000ac7e:	2380      	movs	r3, #128	; 0x80
2000ac80:	059b      	lsls	r3, r3, #22
2000ac82:	4333      	orrs	r3, r6
2000ac84:	6862      	ldr	r2, [r4, #4]
2000ac86:	2100      	movs	r1, #0
2000ac88:	6013      	str	r3, [r2, #0]
2000ac8a:	0020      	movs	r0, r4
2000ac8c:	002a      	movs	r2, r5
2000ac8e:	f7ff ffb7 	bl	2000ac00 <_hw_endpoint_buffer_control_update32>
2000ac92:	bd70      	pop	{r4, r5, r6, pc}
2000ac94:	78a3      	ldrb	r3, [r4, #2]
2000ac96:	09db      	lsrs	r3, r3, #7
2000ac98:	d0ef      	beq.n	2000ac7a <hw_endpoint_start_next_buffer+0x22>
2000ac9a:	8aa3      	ldrh	r3, [r4, #20]
2000ac9c:	2b00      	cmp	r3, #0
2000ac9e:	d0ec      	beq.n	2000ac7a <hw_endpoint_start_next_buffer+0x22>
2000aca0:	2101      	movs	r1, #1
2000aca2:	0020      	movs	r0, r4
2000aca4:	f7ff ff34 	bl	2000ab10 <prepare_ep_buffer>
2000aca8:	23a0      	movs	r3, #160	; 0xa0
2000acaa:	4a05      	ldr	r2, [pc, #20]	; (2000acc0 <hw_endpoint_start_next_buffer+0x68>)
2000acac:	05db      	lsls	r3, r3, #23
2000acae:	4032      	ands	r2, r6
2000acb0:	4305      	orrs	r5, r0
2000acb2:	4313      	orrs	r3, r2
2000acb4:	e7e6      	b.n	2000ac84 <hw_endpoint_start_next_buffer+0x2c>
2000acb6:	46c0      	nop			; (mov r8, r8)
2000acb8:	50110000 	.word	0x50110000
2000acbc:	afffffff 	.word	0xafffffff
2000acc0:	dfffffff 	.word	0xdfffffff

2000acc4 <hw_endpoint_xfer_continue>:
2000acc4:	b570      	push	{r4, r5, r6, lr}
2000acc6:	7e85      	ldrb	r5, [r0, #26]
2000acc8:	0004      	movs	r4, r0
2000acca:	2d00      	cmp	r5, #0
2000accc:	d013      	beq.n	2000acf6 <hw_endpoint_xfer_continue+0x32>
2000acce:	f7ff ff7d 	bl	2000abcc <_hw_endpoint_xfer_sync>
2000acd2:	8aa3      	ldrh	r3, [r4, #20]
2000acd4:	2b00      	cmp	r3, #0
2000acd6:	d101      	bne.n	2000acdc <hw_endpoint_xfer_continue+0x18>
2000acd8:	0028      	movs	r0, r5
2000acda:	bd70      	pop	{r4, r5, r6, pc}
2000acdc:	0020      	movs	r0, r4
2000acde:	f7ff fefd 	bl	2000aadc <e15_is_critical_frame_period>
2000ace2:	1e05      	subs	r5, r0, #0
2000ace4:	d003      	beq.n	2000acee <hw_endpoint_xfer_continue+0x2a>
2000ace6:	2301      	movs	r3, #1
2000ace8:	2500      	movs	r5, #0
2000acea:	7723      	strb	r3, [r4, #28]
2000acec:	e7f4      	b.n	2000acd8 <hw_endpoint_xfer_continue+0x14>
2000acee:	0020      	movs	r0, r4
2000acf0:	f7ff ffb2 	bl	2000ac58 <hw_endpoint_start_next_buffer>
2000acf4:	e7f0      	b.n	2000acd8 <hw_endpoint_xfer_continue+0x14>
2000acf6:	227f      	movs	r2, #127	; 0x7f
2000acf8:	7881      	ldrb	r1, [r0, #2]
2000acfa:	4804      	ldr	r0, [pc, #16]	; (2000ad0c <hw_endpoint_xfer_continue+0x48>)
2000acfc:	09cb      	lsrs	r3, r1, #7
2000acfe:	4011      	ands	r1, r2
2000ad00:	4a03      	ldr	r2, [pc, #12]	; (2000ad10 <hw_endpoint_xfer_continue+0x4c>)
2000ad02:	009b      	lsls	r3, r3, #2
2000ad04:	589a      	ldr	r2, [r3, r2]
2000ad06:	f7fa fa53 	bl	200051b0 <panic>
2000ad0a:	46c0      	nop			; (mov r8, r8)
2000ad0c:	2000b27c 	.word	0x2000b27c
2000ad10:	2000b528 	.word	0x2000b528

2000ad14 <dcd_event_handler>:
2000ad14:	b5f0      	push	{r4, r5, r6, r7, lr}
2000ad16:	46c6      	mov	lr, r8
2000ad18:	b500      	push	{lr}
2000ad1a:	7843      	ldrb	r3, [r0, #1]
2000ad1c:	0005      	movs	r5, r0
2000ad1e:	b084      	sub	sp, #16
2000ad20:	2b04      	cmp	r3, #4
2000ad22:	d100      	bne.n	2000ad26 <dcd_event_handler+0x12>
2000ad24:	e084      	b.n	2000ae30 <dcd_event_handler+0x11c>
2000ad26:	d853      	bhi.n	2000add0 <dcd_event_handler+0xbc>
2000ad28:	2b02      	cmp	r3, #2
2000ad2a:	d100      	bne.n	2000ad2e <dcd_event_handler+0x1a>
2000ad2c:	e092      	b.n	2000ae54 <dcd_event_handler+0x140>
2000ad2e:	2b03      	cmp	r3, #3
2000ad30:	d162      	bne.n	2000adf8 <dcd_event_handler+0xe4>
2000ad32:	4e5f      	ldr	r6, [pc, #380]	; (2000aeb0 <dcd_event_handler+0x19c>)
2000ad34:	4b5f      	ldr	r3, [pc, #380]	; (2000aeb4 <dcd_event_handler+0x1a0>)
2000ad36:	2400      	movs	r4, #0
2000ad38:	7831      	ldrb	r1, [r6, #0]
2000ad3a:	2b00      	cmp	r3, #0
2000ad3c:	d100      	bne.n	2000ad40 <dcd_event_handler+0x2c>
2000ad3e:	e0a1      	b.n	2000ae84 <dcd_event_handler+0x170>
2000ad40:	4b5d      	ldr	r3, [pc, #372]	; (2000aeb8 <dcd_event_handler+0x1a4>)
2000ad42:	4f5e      	ldr	r7, [pc, #376]	; (2000aebc <dcd_event_handler+0x1a8>)
2000ad44:	4698      	mov	r8, r3
2000ad46:	e013      	b.n	2000ad70 <dcd_event_handler+0x5c>
2000ad48:	1a62      	subs	r2, r4, r1
2000ad4a:	b2d2      	uxtb	r2, r2
2000ad4c:	2a02      	cmp	r2, #2
2000ad4e:	d80a      	bhi.n	2000ad66 <dcd_event_handler+0x52>
2000ad50:	0053      	lsls	r3, r2, #1
2000ad52:	189b      	adds	r3, r3, r2
2000ad54:	00db      	lsls	r3, r3, #3
2000ad56:	18fb      	adds	r3, r7, r3
2000ad58:	695b      	ldr	r3, [r3, #20]
2000ad5a:	2b00      	cmp	r3, #0
2000ad5c:	d003      	beq.n	2000ad66 <dcd_event_handler+0x52>
2000ad5e:	6869      	ldr	r1, [r5, #4]
2000ad60:	7828      	ldrb	r0, [r5, #0]
2000ad62:	4798      	blx	r3
2000ad64:	7831      	ldrb	r1, [r6, #0]
2000ad66:	3401      	adds	r4, #1
2000ad68:	b2e4      	uxtb	r4, r4
2000ad6a:	1c8b      	adds	r3, r1, #2
2000ad6c:	42a3      	cmp	r3, r4
2000ad6e:	db0f      	blt.n	2000ad90 <dcd_event_handler+0x7c>
2000ad70:	42a1      	cmp	r1, r4
2000ad72:	d9e9      	bls.n	2000ad48 <dcd_event_handler+0x34>
2000ad74:	4642      	mov	r2, r8
2000ad76:	6812      	ldr	r2, [r2, #0]
2000ad78:	0063      	lsls	r3, r4, #1
2000ad7a:	4694      	mov	ip, r2
2000ad7c:	191b      	adds	r3, r3, r4
2000ad7e:	00db      	lsls	r3, r3, #3
2000ad80:	4463      	add	r3, ip
2000ad82:	2b00      	cmp	r3, #0
2000ad84:	d1e8      	bne.n	2000ad58 <dcd_event_handler+0x44>
2000ad86:	3401      	adds	r4, #1
2000ad88:	b2e4      	uxtb	r4, r4
2000ad8a:	1c8b      	adds	r3, r1, #2
2000ad8c:	42a3      	cmp	r3, r4
2000ad8e:	daef      	bge.n	2000ad70 <dcd_event_handler+0x5c>
2000ad90:	4b4b      	ldr	r3, [pc, #300]	; (2000aec0 <dcd_event_handler+0x1ac>)
2000ad92:	781a      	ldrb	r2, [r3, #0]
2000ad94:	0752      	lsls	r2, r2, #29
2000ad96:	d547      	bpl.n	2000ae28 <dcd_event_handler+0x114>
2000ad98:	2104      	movs	r1, #4
2000ad9a:	781a      	ldrb	r2, [r3, #0]
2000ad9c:	a801      	add	r0, sp, #4
2000ad9e:	438a      	bics	r2, r1
2000ada0:	701a      	strb	r2, [r3, #0]
2000ada2:	2100      	movs	r1, #0
2000ada4:	220c      	movs	r2, #12
2000ada6:	f7fa fd83 	bl	200058b0 <__wrap_memset>
2000adaa:	466a      	mov	r2, sp
2000adac:	782b      	ldrb	r3, [r5, #0]
2000adae:	7113      	strb	r3, [r2, #4]
2000adb0:	2305      	movs	r3, #5
2000adb2:	7153      	strb	r3, [r2, #5]
2000adb4:	4b43      	ldr	r3, [pc, #268]	; (2000aec4 <dcd_event_handler+0x1b0>)
2000adb6:	681c      	ldr	r4, [r3, #0]
2000adb8:	6962      	ldr	r2, [r4, #20]
2000adba:	f3ef 8110 	mrs	r1, PRIMASK
2000adbe:	b672      	cpsid	i
2000adc0:	6813      	ldr	r3, [r2, #0]
2000adc2:	2b00      	cmp	r3, #0
2000adc4:	d0fc      	beq.n	2000adc0 <dcd_event_handler+0xac>
2000adc6:	f3bf 8f5f 	dmb	sy
2000adca:	61a1      	str	r1, [r4, #24]
2000adcc:	a901      	add	r1, sp, #4
2000adce:	e020      	b.n	2000ae12 <dcd_event_handler+0xfe>
2000add0:	2b05      	cmp	r3, #5
2000add2:	d111      	bne.n	2000adf8 <dcd_event_handler+0xe4>
2000add4:	4b3a      	ldr	r3, [pc, #232]	; (2000aec0 <dcd_event_handler+0x1ac>)
2000add6:	781a      	ldrb	r2, [r3, #0]
2000add8:	07d2      	lsls	r2, r2, #31
2000adda:	d525      	bpl.n	2000ae28 <dcd_event_handler+0x114>
2000addc:	2104      	movs	r1, #4
2000adde:	781a      	ldrb	r2, [r3, #0]
2000ade0:	438a      	bics	r2, r1
2000ade2:	701a      	strb	r2, [r3, #0]
2000ade4:	4b37      	ldr	r3, [pc, #220]	; (2000aec4 <dcd_event_handler+0x1b0>)
2000ade6:	681c      	ldr	r4, [r3, #0]
2000ade8:	6962      	ldr	r2, [r4, #20]
2000adea:	f3ef 8110 	mrs	r1, PRIMASK
2000adee:	b672      	cpsid	i
2000adf0:	6813      	ldr	r3, [r2, #0]
2000adf2:	2b00      	cmp	r3, #0
2000adf4:	d109      	bne.n	2000ae0a <dcd_event_handler+0xf6>
2000adf6:	e7fb      	b.n	2000adf0 <dcd_event_handler+0xdc>
2000adf8:	4b32      	ldr	r3, [pc, #200]	; (2000aec4 <dcd_event_handler+0x1b0>)
2000adfa:	681c      	ldr	r4, [r3, #0]
2000adfc:	6962      	ldr	r2, [r4, #20]
2000adfe:	f3ef 8110 	mrs	r1, PRIMASK
2000ae02:	b672      	cpsid	i
2000ae04:	6813      	ldr	r3, [r2, #0]
2000ae06:	2b00      	cmp	r3, #0
2000ae08:	d0fc      	beq.n	2000ae04 <dcd_event_handler+0xf0>
2000ae0a:	f3bf 8f5f 	dmb	sy
2000ae0e:	61a1      	str	r1, [r4, #24]
2000ae10:	0029      	movs	r1, r5
2000ae12:	0020      	movs	r0, r4
2000ae14:	f7fc feb8 	bl	20007b88 <tu_fifo_write>
2000ae18:	6962      	ldr	r2, [r4, #20]
2000ae1a:	69a3      	ldr	r3, [r4, #24]
2000ae1c:	f3bf 8f5f 	dmb	sy
2000ae20:	2100      	movs	r1, #0
2000ae22:	6011      	str	r1, [r2, #0]
2000ae24:	f383 8810 	msr	PRIMASK, r3
2000ae28:	b004      	add	sp, #16
2000ae2a:	bc80      	pop	{r7}
2000ae2c:	46b8      	mov	r8, r7
2000ae2e:	bdf0      	pop	{r4, r5, r6, r7, pc}
2000ae30:	4b23      	ldr	r3, [pc, #140]	; (2000aec0 <dcd_event_handler+0x1ac>)
2000ae32:	781a      	ldrb	r2, [r3, #0]
2000ae34:	07d2      	lsls	r2, r2, #31
2000ae36:	d5f7      	bpl.n	2000ae28 <dcd_event_handler+0x114>
2000ae38:	2104      	movs	r1, #4
2000ae3a:	781a      	ldrb	r2, [r3, #0]
2000ae3c:	430a      	orrs	r2, r1
2000ae3e:	701a      	strb	r2, [r3, #0]
2000ae40:	4b20      	ldr	r3, [pc, #128]	; (2000aec4 <dcd_event_handler+0x1b0>)
2000ae42:	681c      	ldr	r4, [r3, #0]
2000ae44:	6962      	ldr	r2, [r4, #20]
2000ae46:	f3ef 8110 	mrs	r1, PRIMASK
2000ae4a:	b672      	cpsid	i
2000ae4c:	6813      	ldr	r3, [r2, #0]
2000ae4e:	2b00      	cmp	r3, #0
2000ae50:	d1db      	bne.n	2000ae0a <dcd_event_handler+0xf6>
2000ae52:	e7fb      	b.n	2000ae4c <dcd_event_handler+0x138>
2000ae54:	2001      	movs	r0, #1
2000ae56:	4a1a      	ldr	r2, [pc, #104]	; (2000aec0 <dcd_event_handler+0x1ac>)
2000ae58:	7811      	ldrb	r1, [r2, #0]
2000ae5a:	4381      	bics	r1, r0
2000ae5c:	7011      	strb	r1, [r2, #0]
2000ae5e:	7811      	ldrb	r1, [r2, #0]
2000ae60:	4399      	bics	r1, r3
2000ae62:	2300      	movs	r3, #0
2000ae64:	7011      	strb	r1, [r2, #0]
2000ae66:	2104      	movs	r1, #4
2000ae68:	7053      	strb	r3, [r2, #1]
2000ae6a:	7813      	ldrb	r3, [r2, #0]
2000ae6c:	438b      	bics	r3, r1
2000ae6e:	7013      	strb	r3, [r2, #0]
2000ae70:	4b14      	ldr	r3, [pc, #80]	; (2000aec4 <dcd_event_handler+0x1b0>)
2000ae72:	681c      	ldr	r4, [r3, #0]
2000ae74:	6962      	ldr	r2, [r4, #20]
2000ae76:	f3ef 8110 	mrs	r1, PRIMASK
2000ae7a:	b672      	cpsid	i
2000ae7c:	6813      	ldr	r3, [r2, #0]
2000ae7e:	2b00      	cmp	r3, #0
2000ae80:	d1c3      	bne.n	2000ae0a <dcd_event_handler+0xf6>
2000ae82:	e7fb      	b.n	2000ae7c <dcd_event_handler+0x168>
2000ae84:	2400      	movs	r4, #0
2000ae86:	4f0d      	ldr	r7, [pc, #52]	; (2000aebc <dcd_event_handler+0x1a8>)
2000ae88:	2c02      	cmp	r4, #2
2000ae8a:	d80a      	bhi.n	2000aea2 <dcd_event_handler+0x18e>
2000ae8c:	0063      	lsls	r3, r4, #1
2000ae8e:	191b      	adds	r3, r3, r4
2000ae90:	00db      	lsls	r3, r3, #3
2000ae92:	18fb      	adds	r3, r7, r3
2000ae94:	695b      	ldr	r3, [r3, #20]
2000ae96:	2b00      	cmp	r3, #0
2000ae98:	d003      	beq.n	2000aea2 <dcd_event_handler+0x18e>
2000ae9a:	6869      	ldr	r1, [r5, #4]
2000ae9c:	7828      	ldrb	r0, [r5, #0]
2000ae9e:	4798      	blx	r3
2000aea0:	7831      	ldrb	r1, [r6, #0]
2000aea2:	3401      	adds	r4, #1
2000aea4:	b2e4      	uxtb	r4, r4
2000aea6:	1c8b      	adds	r3, r1, #2
2000aea8:	42a3      	cmp	r3, r4
2000aeaa:	daed      	bge.n	2000ae88 <dcd_event_handler+0x174>
2000aeac:	e770      	b.n	2000ad90 <dcd_event_handler+0x7c>
2000aeae:	46c0      	nop			; (mov r8, r8)
2000aeb0:	200218c5 	.word	0x200218c5
2000aeb4:	20002d09 	.word	0x20002d09
2000aeb8:	2000baf8 	.word	0x2000baf8
2000aebc:	2000b334 	.word	0x2000b334
2000aec0:	2000cd70 	.word	0x2000cd70
2000aec4:	2000cdc8 	.word	0x2000cdc8
2000aec8:	2e302e32 	.word	0x2e302e32
2000aecc:	00000030 	.word	0x00000030
2000aed0:	2000050c 	.word	0x2000050c
2000aed4:	200004fc 	.word	0x200004fc
2000aed8:	200004b6 	.word	0x200004b6
2000aedc:	20000450 	.word	0x20000450
2000aee0:	20000624 	.word	0x20000624
2000aee4:	200005e4 	.word	0x200005e4
2000aee8:	200003be 	.word	0x200003be
2000aeec:	200001a4 	.word	0x200001a4
2000aef0:	20000378 	.word	0x20000378
2000aef4:	20000436 	.word	0x20000436
2000aef8:	2000042a 	.word	0x2000042a
2000aefc:	200001a4 	.word	0x200001a4
2000af00:	200001a4 	.word	0x200001a4
2000af04:	200001a4 	.word	0x200001a4
2000af08:	200001a4 	.word	0x200001a4
2000af0c:	200001a4 	.word	0x200001a4
2000af10:	20000648 	.word	0x20000648
2000af14:	200003f8 	.word	0x200003f8
2000af18:	20000556 	.word	0x20000556
2000af1c:	2000053a 	.word	0x2000053a
2000af20:	2000057a 	.word	0x2000057a
2000af24:	2000028a 	.word	0x2000028a
2000af28:	20000252 	.word	0x20000252
2000af2c:	200001a4 	.word	0x200001a4
2000af30:	200001a4 	.word	0x200001a4
2000af34:	200001a4 	.word	0x200001a4
2000af38:	200001a4 	.word	0x200001a4
2000af3c:	200001a4 	.word	0x200001a4
2000af40:	200001a4 	.word	0x200001a4
2000af44:	200001ae 	.word	0x200001ae
2000af48:	00445554 	.word	0x00445554
2000af4c:	00504144 	.word	0x00504144
2000af50:	63617473 	.word	0x63617473
2000af54:	766f206b 	.word	0x766f206b
2000af58:	6c667265 	.word	0x6c667265
2000af5c:	2820776f 	.word	0x2820776f
2000af60:	20746f6e 	.word	0x20746f6e
2000af64:	20656874 	.word	0x20656874
2000af68:	706c6568 	.word	0x706c6568
2000af6c:	206c7566 	.word	0x206c7566
2000af70:	646e696b 	.word	0x646e696b
2000af74:	6f662029 	.word	0x6f662029
2000af78:	73252072 	.word	0x73252072
2000af7c:	0000000a 	.word	0x0000000a
2000af80:	6c6c614d 	.word	0x6c6c614d
2000af84:	4620636f 	.word	0x4620636f
2000af88:	656c6961 	.word	0x656c6961
2000af8c:	00000a64 	.word	0x00000a64
2000af90:	70736152 	.word	0x70736152
2000af94:	72726562 	.word	0x72726562
2000af98:	69502079 	.word	0x69502079
2000af9c:	00000000 	.word	0x00000000
2000afa0:	4741544a 	.word	0x4741544a
2000afa4:	6f727020 	.word	0x6f727020
2000afa8:	6f206562 	.word	0x6f206562
2000afac:	6950206e 	.word	0x6950206e
2000afb0:	28206f63 	.word	0x28206f63
2000afb4:	49534d43 	.word	0x49534d43
2000afb8:	41442d53 	.word	0x41442d53
2000afbc:	00002950 	.word	0x00002950
2000afc0:	49534d43 	.word	0x49534d43
2000afc4:	41442d53 	.word	0x41442d53
2000afc8:	31762050 	.word	0x31762050
2000afcc:	746e4920 	.word	0x746e4920
2000afd0:	61667265 	.word	0x61667265
2000afd4:	00006563 	.word	0x00006563
2000afd8:	49534d43 	.word	0x49534d43
2000afdc:	41442d53 	.word	0x41442d53
2000afe0:	32762050 	.word	0x32762050
2000afe4:	746e4920 	.word	0x746e4920
2000afe8:	61667265 	.word	0x61667265
2000afec:	00006563 	.word	0x00006563
2000aff0:	2d434443 	.word	0x2d434443
2000aff4:	204d4341 	.word	0x204d4341
2000aff8:	54524155 	.word	0x54524155
2000affc:	746e4920 	.word	0x746e4920
2000b000:	61667265 	.word	0x61667265
2000b004:	00006563 	.word	0x00006563

2000b008 <__compound_literal.0>:
2000b008:	00000409                                ....

2000b00c <desc_bos>:
2000b00c:	00210f05 05101c01 dd60df00 c74589d8     ..!.......`...E.
2000b01c:	65d29c4c 8a649e9d 0300009f 0100b206     L..e..d.........
2000b02c:	00000000                                ....

2000b030 <desc_device>:
2000b030:	02100112 40000000 000c2e8a 02010200     .......@........
2000b040:	00000103                                ....

2000b044 <desc_hid_report>:
2000b044:	09ff0006 0901a101 26001502 087500ff     ...........&..u.
2000b054:	02814095 00150309 7500ff26 91409508     .@......&..u..@.
2000b064:	0000c002                                ....

2000b068 <desc_ms_os_20>:
2000b068:	0000000a 06030000 000800b2 00000001     ................
2000b078:	000800a8 00000002 001400a0 49570003     ..............WI
2000b088:	4253554e 00000000 00000000 00840000     NUSB............
2000b098:	00070004 0044002a 00760065 00630069     ....*.D.e.v.i.c.
2000b0a8:	00490065 0074006e 00720065 00610066     e.I.n.t.e.r.f.a.
2000b0b8:	00650063 00550047 00440049 00000073     c.e.G.U.I.D.s...
2000b0c8:	007b0050 00440043 00330042 00350042     P.{.C.D.B.3.B.5.
2000b0d8:	00440041 0032002d 00330039 002d0042     A.D.-.2.9.3.B.-.
2000b0e8:	00360034 00330036 0041002d 00330041     4.6.6.3.-.A.A.3.
2000b0f8:	002d0036 00410031 00450041 00360034     6.-.1.A.A.E.4.6.
2000b108:	00360034 00370033 00360037 0000007d     4.6.3.7.7.6.}...
2000b118:	00000000                                ....

2000b11c <_dap_edpt_driver>:
2000b11c:	20002a21 20002a25 20002a2d 20002a29     !*. %*. -*. )*. 
2000b12c:	20002add 00000000 64726148 65726177     .*. ....Hardware
2000b13c:	616c6120 25206d72 6c612064 64616572      alarm %d alread
2000b14c:	6c632079 656d6961 00000064 73206f4e     y claimed...No s
2000b15c:	6c6e6970 736b636f 65726120 61766120     pinlocks are ava
2000b16c:	62616c69 0000656c 2a2a2a0a 4e415020     ilable...*** PAN
2000b17c:	2a204349 000a2a2a 20746f6e 70707573     IC ***..not supp
2000b18c:	6574726f 00000064 64726148 73736120     orted...Hard ass
2000b19c:	00747265 656c6552 00657361 746f6f62     ert.Release.boot
2000b1ac:	32775f32 38307135 00000030 2e352e31     2_w25q080...1.5.
2000b1bc:	00000031 6f636970 00000000 75626564     1...pico....debu
2000b1cc:	6f727067 00006562 206e754a 32203831     gprobe..Jun 18 2
2000b1dc:	00343230                                024.

2000b1e0 <__bi_44>:
2000b1e0:	50520006 b63cffbb 2000b1c0              ..RP..<.... 

2000b1ec <__bi_75>:
2000b1ec:	50520006 7f8882e1 2000b1a8              ..RP....... 

2000b1f8 <__bi_81>:
2000b1f8:	50520006 4275f0d3 2000b1a0              ..RP..uB... 

2000b204 <crlf_str.0>:
2000b204:	00000a0d 54524155 64747320 00006e69     ....UART stdin..
2000b214:	54524155 64747320 0074756f 54524155     UART stdout.UART
2000b224:	64747320 2f206e69 64747320 0074756f      stdin / stdout.

2000b234 <__bi_33.4>:
2000b234:	50520006 a1f4b453 2000b220              ..RPS... .. 

2000b240 <__bi_34.5>:
2000b240:	50520008 00000092 61686e55 656c646e     ..RP....Unhandle
2000b250:	52492064 78302051 000a7825 25207065     d IRQ 0x%x..ep %
2000b260:	73252064 73617720 726c6120 79646165     d %s was already
2000b270:	61766120 62616c69 0000656c 276e6143      available..Can'
2000b280:	6f632074 6e69746e 78206575 20726566     t continue xfer 
2000b290:	69206e6f 7463616e 20657669 25207065     on inactive ep %
2000b2a0:	73252064 00000000 20006340 2000649c     d %s....@c. .d. 
2000b2b0:	20006484 20006340 20006466 2000644e     .d. @c. fd. Nd. 
2000b2c0:	200063ea 2000638e 20006382 20006752     .c. .c. .c. Rg. 
2000b2d0:	20006738 2000643c 2000671e 2000643c     8g. <d. .g. <d. 
2000b2e0:	20006706 200066c8 2000643c 200066b4     .g. .f. <d. .f. 
2000b2f0:	200066dc 2000643c 200067d0 200067b4     .f. <d. .g. .g. 
2000b300:	200067a8 2000643c 2000643c 2000678a     .g. <d. <d. .g. 
2000b310:	200067b4 2000643c 2000643c 2000643c     .g. <d. <d. <d. 
2000b320:	2000643c 2000643c 2000643c 2000643c     <d. <d. <d. <d. 
2000b330:	20006766                                fg. 

2000b334 <_usbd_driver>:
2000b334:	20006ea5 20006f21 20006f4d 20007035     .n. !o. Mo. 5p. 
2000b344:	20007119 00000000 200072f5 20007309     .q. .....r. .s. 
2000b354:	2000731d 200073ad 20007569 00000000     .s. .s. iu. ....
2000b364:	200075d1 2000763d 20007659 20002905     .u. =v. Yv. .). 
2000b374:	20007729 00000000 200073ee 200074be     )w. .....s. .t. 
2000b384:	200074aa 200073f4 200073ee 200073ee     .t. .s. .s. .s. 
2000b394:	200073ee 200073ee 200073ee 20007468     .s. .s. .s. ht. 
2000b3a4:	20007444 20007428 0044454c              Dt. (t. LED.

2000b3b0 <__bi_142.0>:
2000b3b0:	50520009 02000000 2000b3ac              ..RP....... 

2000b3bc <__bi_152.1>:
2000b3bc:	50520008 00000012 20009d16 20009dc4     ..RP....... ... 
2000b3cc:	20009dc4 20009e2a 20009dfc 20009e36     ... *.. ... 6.. 
2000b3dc:	20009dc4 20009dc4 20009e2a 20009dfc     ... ... *.. ... 
2000b3ec:	51726d54 00000000 20726d54 00637653     TmrQ....Tmr Svc.

2000b3fc <desc_configuration>:
2000b3fc:	00620209 80000103 00040932 00ff0200     ..b.....2.......
2000b40c:	05070500 00400204 85050700 00004002     ......@......@..
2000b41c:	02010b08 00000202 00010409 00020201     ................
2000b42c:	00240506 24050120 04020001 05020224     ..$. ..$....$...
2000b43c:	02010624 03810507 09100040 02000204     $.......@.......
2000b44c:	0000000a 02020507 07000040 40028305     ........@......@
2000b45c:	00000000                                ....

2000b460 <string_desc_arr>:
2000b460:	2000b008 2000af90 2000afa0 200217d8     ... ... ... ... 
2000b470:	2000afc0 2000afd8 2000aff0              ... ... ... 

2000b47c <default_alarm_pool>:
2000b47c:	2000b494 00000000 2000b580 20011090     ... ....... ... 
	...

2000b494 <default_alarm_pool_heap>:
2000b494:	200110a0 00000000 00000000 00000010     ... ............

2000b4a4 <striped_spin_lock_num>:
2000b4a4:	00000010                                ....

2000b4a8 <irq_handler_chain_slots>:
2000b4a8:	00000000 	.word	0x00000000
2000b4ac:	00010000 	.word	0x00010000
	...
2000b4b8:	00020000 	.word	0x00020000
	...
2000b4c4:	00030000 	.word	0x00030000
	...
2000b4d0:	00ff0000 	.word	0x00ff0000
2000b4d4:	00000000 	.word	0x00000000

2000b4d8 <irq_handler_chain_first_slot>:
2000b4d8:	b501      	push	{r0, lr}
2000b4da:	6848      	ldr	r0, [r1, #4]
2000b4dc:	3101      	adds	r1, #1
2000b4de:	468e      	mov	lr, r1
2000b4e0:	4700      	bx	r0

2000b4e2 <irq_handler_chain_remove_tail>:
2000b4e2:	4670      	mov	r0, lr
2000b4e4:	3809      	subs	r0, #9
2000b4e6:	4901      	ldr	r1, [pc, #4]	; (2000b4ec <irq_handler_chain_remove_tail+0xa>)
2000b4e8:	4788      	blx	r1
2000b4ea:	bd01      	pop	{r0, pc}
2000b4ec:	200045f5 	.word	0x200045f5

2000b4f0 <aeabi_bits_funcs>:
2000b4f0:	00003350 	.word	0x00003350
2000b4f4:	0000334c 	.word	0x0000334c
2000b4f8:	00003354 	.word	0x00003354
2000b4fc:	00003352 	.word	0x00003352

2000b500 <aeabi_bits_funcs_end>:
2000b500:	0000534d 	.word	0x0000534d
2000b504:	0000434d 	.word	0x0000434d
2000b508:	00003453 	.word	0x00003453
2000b50c:	00003443 	.word	0x00003443

2000b510 <stdio_uart>:
2000b510:	20005b8d 00000000 20005bd9 20005c85     .[. .....[. .\. 
2000b520:	00000000 00000100                       ........

2000b528 <ep_dir_string>:
2000b528:	2000b230 2000b210                       0.. ... 

2000b530 <_usbd_qdef>:
2000b530:	2000cdcc 000c0010 00000000 00000000     ... ............
	...

2000b54c <_usbd_rhport>:
2000b54c:	                                         .

2000b54d <ucLaunchCoreNum>:
2000b54d:	                                         ...

2000b550 <uxTopUsedPriority>:
2000b550:	0000001f                                ....

2000b554 <malloc_mutex>:
	...

2000b55c <print_mutex>:
	...

2000b564 <__mutex_array_end>:
2000b564:	200058a1 	.word	0x200058a1
2000b568:	20005239 	.word	0x20005239
2000b56c:	2000571d 	.word	0x2000571d
2000b570:	20005811 	.word	0x20005811

2000b574 <__frame_dummy_init_array_entry>:
2000b574:	20000139 20005d95 20008489              9.. .]. ... 
